---
triple:          'x86_64-apple-darwin'
binary-path:     test
relocations:
  - { offsetInCU: 0x3B, offset: 0x3B, size: 0x8, addend: 0x0, symName: _.str, symObjAddr: 0x1F920, symBinAddr: 0x100022900, symSize: 0x0 }
  - { offsetInCU: 0x6B, offset: 0x6B, size: 0x8, addend: 0x0, symName: _.str.1, symObjAddr: 0x1F940, symBinAddr: 0x100022920, symSize: 0x0 }
  - { offsetInCU: 0x7C, offset: 0x7C, size: 0x8, addend: 0x0, symName: _.str.2, symObjAddr: 0x1F960, symBinAddr: 0x100022940, symSize: 0x0 }
  - { offsetInCU: 0x8D, offset: 0x8D, size: 0x8, addend: 0x0, symName: _.str.3, symObjAddr: 0x1F980, symBinAddr: 0x100022960, symSize: 0x0 }
  - { offsetInCU: 0xAA, offset: 0xAA, size: 0x8, addend: 0x0, symName: _.str.4, symObjAddr: 0x1F9A0, symBinAddr: 0x100022980, symSize: 0x0 }
  - { offsetInCU: 0xBB, offset: 0xBB, size: 0x8, addend: 0x0, symName: _.str.5, symObjAddr: 0x1F9C0, symBinAddr: 0x1000229A0, symSize: 0x0 }
  - { offsetInCU: 0xCD, offset: 0xCD, size: 0x8, addend: 0x0, symName: _.str.6, symObjAddr: 0x1F9E0, symBinAddr: 0x1000229C0, symSize: 0x0 }
  - { offsetInCU: 0xEA, offset: 0xEA, size: 0x8, addend: 0x0, symName: _.str.7, symObjAddr: 0x1FA00, symBinAddr: 0x1000229E0, symSize: 0x0 }
  - { offsetInCU: 0xFB, offset: 0xFB, size: 0x8, addend: 0x0, symName: _.str.8, symObjAddr: 0x1FA20, symBinAddr: 0x100022A00, symSize: 0x0 }
  - { offsetInCU: 0x6F98, offset: 0x6F98, size: 0x8, addend: 0x0, symName: __ZNSt3__124__put_character_sequenceB8ue170006IcNS_11char_traitsIcEEEERNS_13basic_ostreamIT_T0_EES7_PKS4_m, symObjAddr: 0x16490, symBinAddr: 0x100017160, symSize: 0x750 }
  - { offsetInCU: 0x8E10, offset: 0x8E10, size: 0x8, addend: 0x0, symName: __ZNSt3__17advanceB8ue170006IPKNS_12basic_stringIcNS_11char_traitsIcEENS_9allocatorIcEEEEllvEEvRT_T0_, symObjAddr: 0x1AE40, symBinAddr: 0x10001BB10, symSize: 0x30 }
  - { offsetInCU: 0x9EE6, offset: 0x9EE6, size: 0x8, addend: 0x0, symName: __ZNSt3__112__to_addressB8ue170006IP8TreeNodeEEPT_S4_, symObjAddr: 0x3110, symBinAddr: 0x100003DE0, symSize: 0x10 }
  - { offsetInCU: 0x9F1B, offset: 0x9F1B, size: 0x8, addend: 0x0, symName: __ZNSt3__13maxB8ue170006ImEERKT_S3_S3_, symObjAddr: 0x64C0, symBinAddr: 0x100007190, symSize: 0x30 }
  - { offsetInCU: 0xA3B7, offset: 0xA3B7, size: 0x8, addend: 0x0, symName: __ZNSt3__14swapB8ue170006IPPP8TreeNodeEENS_9enable_ifIXaasr21is_move_constructibleIT_EE5valuesr18is_move_assignableIS6_EE5valueEvE4typeERS6_S9_, symObjAddr: 0x7CE0, symBinAddr: 0x1000089B0, symSize: 0x100 }
  - { offsetInCU: 0xA408, offset: 0xA408, size: 0x8, addend: 0x0, symName: __ZNSt3__14moveB8ue170006IPPP8TreeNodeS4_EET0_T_S6_S5_, symObjAddr: 0x7EF0, symBinAddr: 0x100008BC0, symSize: 0x220 }
  - { offsetInCU: 0xA481, offset: 0xA481, size: 0x8, addend: 0x0, symName: __ZNSt3__112__to_addressB8ue170006IPP8TreeNodeEEPT_S5_, symObjAddr: 0x84C0, symBinAddr: 0x100009190, symSize: 0x10 }
  - { offsetInCU: 0xA4B6, offset: 0xA4B6, size: 0x8, addend: 0x0, symName: __ZNSt3__16__moveB8ue170006INS_17_ClassicAlgPolicyEPPP8TreeNodeS5_S5_EENS_4pairIT0_T2_EES7_T1_S8_, symObjAddr: 0x84D0, symBinAddr: 0x1000091A0, symSize: 0x210 }
  - { offsetInCU: 0xA525, offset: 0xA525, size: 0x8, addend: 0x0, symName: __ZNSt3__123__dispatch_copy_or_moveB8ue170006INS_17_ClassicAlgPolicyENS_11__move_loopIS1_EENS_14__move_trivialEPPP8TreeNodeS8_S8_EENS_4pairIT2_T4_EESA_T3_SB_, symObjAddr: 0x86E0, symBinAddr: 0x1000093B0, symSize: 0x210 }
  - { offsetInCU: 0xA5A6, offset: 0xA5A6, size: 0x8, addend: 0x0, symName: __ZNSt3__121__unwrap_and_dispatchB8ue170006INS_10__overloadINS_11__move_loopINS_17_ClassicAlgPolicyEEENS_14__move_trivialEEEPPP8TreeNodeSA_SA_Li0EEENS_4pairIT0_T2_EESC_T1_SD_, symObjAddr: 0x88F0, symBinAddr: 0x1000095C0, symSize: 0x650 }
  - { offsetInCU: 0xA63F, offset: 0xA63F, size: 0x8, addend: 0x0, symName: __ZNSt3__114__unwrap_rangeB8ue170006IPPP8TreeNodeS4_EENS_4pairIT0_S6_EET_S8_, symObjAddr: 0x8F40, symBinAddr: 0x100009C10, symSize: 0x300 }
  - { offsetInCU: 0xA805, offset: 0xA805, size: 0x8, addend: 0x0, symName: __ZNSt3__113__unwrap_iterB8ue170006IPPP8TreeNodeNS_18__unwrap_iter_implIS4_Lb1EEELi0EEEDTclsrT0_8__unwrapclsr3stdE7declvalIT_EEEES8_, symObjAddr: 0x9450, symBinAddr: 0x10000A120, symSize: 0x20 }
  - { offsetInCU: 0xA849, offset: 0xA849, size: 0x8, addend: 0x0, symName: __ZNSt3__19make_pairB8ue170006IPPP8TreeNodeS4_EENS_4pairINS_18__unwrap_ref_decayIT_E4typeENS6_IT0_E4typeEEEOS7_OSA_, symObjAddr: 0x9470, symBinAddr: 0x10000A140, symSize: 0x190 }
  - { offsetInCU: 0xA89A, offset: 0xA89A, size: 0x8, addend: 0x0, symName: __ZNSt3__114__rewrap_rangeB8ue170006IPPP8TreeNodeS4_EET_S5_T0_, symObjAddr: 0x9600, symBinAddr: 0x10000A2D0, symSize: 0x30 }
  - { offsetInCU: 0xA8E6, offset: 0xA8E6, size: 0x8, addend: 0x0, symName: __ZNSt3__113__rewrap_iterB8ue170006IPPP8TreeNodeS4_NS_18__unwrap_iter_implIS4_Lb1EEEEET_S7_T0_, symObjAddr: 0x9630, symBinAddr: 0x10000A300, symSize: 0x50 }
  - { offsetInCU: 0xA93B, offset: 0xA93B, size: 0x8, addend: 0x0, symName: __ZNSt3__119__copy_trivial_implB8ue170006IPP8TreeNodeS3_EENS_4pairIPT_PT0_EES6_S6_S8_, symObjAddr: 0x9680, symBinAddr: 0x10000A350, symSize: 0x350 }
  - { offsetInCU: 0xA9AA, offset: 0xA9AA, size: 0x8, addend: 0x0, symName: __ZNSt3__119__constexpr_memmoveB8ue170006IPP8TreeNodeS3_Li0EEEPT_S5_PT0_NS_15__element_countE, symObjAddr: 0x99D0, symBinAddr: 0x10000A6A0, symSize: 0x50 }
  - { offsetInCU: 0xAA18, offset: 0xAA18, size: 0x8, addend: 0x0, symName: __ZNSt3__19make_pairB8ue170006IRPPP8TreeNodeS4_EENS_4pairINS_18__unwrap_ref_decayIT_E4typeENS7_IT0_E4typeEEEOS8_OSB_, symObjAddr: 0x9A20, symBinAddr: 0x10000A6F0, symSize: 0x190 }
  - { offsetInCU: 0xAABC, offset: 0xAABC, size: 0x8, addend: 0x0, symName: __ZNSt3__18distanceB8ue170006INS_13move_iteratorIPPP8TreeNodeEEEENS_15iterator_traitsIT_E15difference_typeES8_S8_, symObjAddr: 0xA280, symBinAddr: 0x10000AF50, symSize: 0x2C0 }
  - { offsetInCU: 0xAB07, offset: 0xAB07, size: 0x8, addend: 0x0, symName: __ZNSt3__110__distanceB8ue170006INS_13move_iteratorIPPP8TreeNodeEEEENS_15iterator_traitsIT_E15difference_typeES8_S8_NS_26random_access_iterator_tagE, symObjAddr: 0xA9A0, symBinAddr: 0x10000B670, symSize: 0x1E0 }
  - { offsetInCU: 0xAB5D, offset: 0xAB5D, size: 0x8, addend: 0x0, symName: __ZNSt3__1miB8ue170006IPPP8TreeNodeS4_EEDTmicldtfp_4baseEcldtfp0_4baseEERKNS_13move_iteratorIT_EERKNS6_IT0_EE, symObjAddr: 0xAB80, symBinAddr: 0x10000B850, symSize: 0x40 }
  - { offsetInCU: 0xABAC, offset: 0xABAC, size: 0x8, addend: 0x0, symName: __ZNSt3__117__libcpp_allocateB8ue170006Emm, symObjAddr: 0xAE10, symBinAddr: 0x10000BAE0, symSize: 0x20 }
  - { offsetInCU: 0xABE9, offset: 0xABE9, size: 0x8, addend: 0x0, symName: __ZNSt3__121__libcpp_operator_newB8ue170006IJmEEEPvDpT_, symObjAddr: 0xAE50, symBinAddr: 0x10000BB20, symSize: 0x20 }
  - { offsetInCU: 0xAC22, offset: 0xAC22, size: 0x8, addend: 0x0, symName: __ZNSt3__113move_backwardB8ue170006IPPP8TreeNodeS4_EET0_T_S6_S5_, symObjAddr: 0xAE70, symBinAddr: 0x10000BB40, symSize: 0x220 }
  - { offsetInCU: 0xAC7F, offset: 0xAC7F, size: 0x8, addend: 0x0, symName: __ZNSt3__115__move_backwardB8ue170006INS_17_ClassicAlgPolicyEPPP8TreeNodeS5_S5_EENS_4pairIT0_T2_EES7_T1_S8_, symObjAddr: 0xB090, symBinAddr: 0x10000BD60, symSize: 0x210 }
  - { offsetInCU: 0xACEE, offset: 0xACEE, size: 0x8, addend: 0x0, symName: __ZNSt3__123__dispatch_copy_or_moveB8ue170006INS_17_ClassicAlgPolicyENS_20__move_backward_loopIS1_EENS_23__move_backward_trivialEPPP8TreeNodeS8_S8_EENS_4pairIT2_T4_EESA_T3_SB_, symObjAddr: 0xB2A0, symBinAddr: 0x10000BF70, symSize: 0x210 }
  - { offsetInCU: 0xAD6F, offset: 0xAD6F, size: 0x8, addend: 0x0, symName: __ZNSt3__121__unwrap_and_dispatchB8ue170006INS_10__overloadINS_20__move_backward_loopINS_17_ClassicAlgPolicyEEENS_23__move_backward_trivialEEEPPP8TreeNodeSA_SA_Li0EEENS_4pairIT0_T2_EESC_T1_SD_, symObjAddr: 0xB4B0, symBinAddr: 0x10000C180, symSize: 0x650 }
  - { offsetInCU: 0xAE4E, offset: 0xAE4E, size: 0x8, addend: 0x0, symName: __ZNSt3__128__copy_backward_trivial_implB8ue170006IPP8TreeNodeS3_EENS_4pairIPT_PT0_EES6_S6_S8_, symObjAddr: 0xBD10, symBinAddr: 0x10000C9E0, symSize: 0x370 }
  - { offsetInCU: 0xAEC0, offset: 0xAEC0, size: 0x8, addend: 0x0, symName: __ZNSt3__19make_pairB8ue170006IRPPP8TreeNodeS5_EENS_4pairINS_18__unwrap_ref_decayIT_E4typeENS7_IT0_E4typeEEEOS8_OSB_, symObjAddr: 0xC080, symBinAddr: 0x10000CD50, symSize: 0x190 }
  - { offsetInCU: 0xAF11, offset: 0xAF11, size: 0x8, addend: 0x0, symName: __ZNSt3__13maxB8ue170006ImNS_6__lessIvvEEEERKT_S5_S5_T0_, symObjAddr: 0xC390, symBinAddr: 0x10000D060, symSize: 0x170 }
  - { offsetInCU: 0xAFB6, offset: 0xAFB6, size: 0x8, addend: 0x0, symName: __ZNSt3__119__allocate_at_leastB8ue170006INS_9allocatorIPP8TreeNodeEEEENS_19__allocation_resultINS_16allocator_traitsIT_E7pointerEEERS8_m, symObjAddr: 0xCAC0, symBinAddr: 0x10000D790, symSize: 0x210 }
  - { offsetInCU: 0xAFFB, offset: 0xAFFB, size: 0x8, addend: 0x0, symName: __ZNSt3__119__libcpp_deallocateB8ue170006EPvmm, symObjAddr: 0xD460, symBinAddr: 0x10000E130, symSize: 0x30 }
  - { offsetInCU: 0xB043, offset: 0xB043, size: 0x8, addend: 0x0, symName: __ZNSt3__127__do_deallocate_handle_sizeB8ue170006IJEEEvPvmDpT_, symObjAddr: 0xD490, symBinAddr: 0x10000E160, symSize: 0x20 }
  - { offsetInCU: 0xB081, offset: 0xB081, size: 0x8, addend: 0x0, symName: __ZNSt3__124__libcpp_operator_deleteB8ue170006IJPvEEEvDpT_, symObjAddr: 0xD4B0, symBinAddr: 0x10000E180, symSize: 0x20 }
  - { offsetInCU: 0xB0B6, offset: 0xB0B6, size: 0x8, addend: 0x0, symName: __ZNSt3__112__to_addressB8ue170006IiEEPT_S2_, symObjAddr: 0xE3E0, symBinAddr: 0x10000F0B0, symSize: 0x10 }
  - { offsetInCU: 0xB0EB, offset: 0xB0EB, size: 0x8, addend: 0x0, symName: __ZNSt3__13minB8ue170006ImEERKT_S3_S3_, symObjAddr: 0xF8E0, symBinAddr: 0x1000105B0, symSize: 0x30 }
  - { offsetInCU: 0xB32F, offset: 0xB32F, size: 0x8, addend: 0x0, symName: __ZNSt3__13minB8ue170006ImNS_6__lessIvvEEEERKT_S5_S5_T0_, symObjAddr: 0xF960, symBinAddr: 0x100010630, symSize: 0x170 }
  - { offsetInCU: 0xB38F, offset: 0xB38F, size: 0x8, addend: 0x0, symName: __ZNSt3__120__throw_length_errorB8ue170006EPKc, symObjAddr: 0xFB30, symBinAddr: 0x100010800, symSize: 0x70 }
  - { offsetInCU: 0xB3B9, offset: 0xB3B9, size: 0x8, addend: 0x0, symName: __ZNSt3__119__allocate_at_leastB8ue170006INS_9allocatorIiEEEENS_19__allocation_resultINS_16allocator_traitsIT_E7pointerEEERS5_m, symObjAddr: 0x10130, symBinAddr: 0x100010E00, symSize: 0x210 }
  - { offsetInCU: 0xB3FE, offset: 0xB3FE, size: 0x8, addend: 0x0, symName: __ZNSt3__142__uninitialized_allocator_move_if_noexceptB8ue170006INS_9allocatorIiEENS_16reverse_iteratorIPiEES5_ivEET1_RT_T0_S9_S6_, symObjAddr: 0x10620, symBinAddr: 0x1000112F0, symSize: 0x610 }
  - { offsetInCU: 0xB488, offset: 0xB488, size: 0x8, addend: 0x0, symName: __ZNSt3__14swapB8ue170006IPiEENS_9enable_ifIXaasr21is_move_constructibleIT_EE5valuesr18is_move_assignableIS3_EE5valueEvE4typeERS3_S6_, symObjAddr: 0x10CB0, symBinAddr: 0x100011980, symSize: 0x100 }
  - { offsetInCU: 0xB4D9, offset: 0xB4D9, size: 0x8, addend: 0x0, symName: __ZNSt3__14moveB8ue170006INS_16reverse_iteratorIPiEES3_EET0_T_S5_S4_, symObjAddr: 0x10E60, symBinAddr: 0x100011B30, symSize: 0x660 }
  - { offsetInCU: 0xB540, offset: 0xB540, size: 0x8, addend: 0x0, symName: __ZNSt3__16__moveB8ue170006INS_17_ClassicAlgPolicyENS_16reverse_iteratorIPiEES4_S4_EENS_4pairIT0_T2_EES6_T1_S7_, symObjAddr: 0x114C0, symBinAddr: 0x100012190, symSize: 0x550 }
  - { offsetInCU: 0xB5B8, offset: 0xB5B8, size: 0x8, addend: 0x0, symName: __ZNSt3__123__dispatch_copy_or_moveB8ue170006INS_17_ClassicAlgPolicyENS_11__move_loopIS1_EENS_14__move_trivialENS_16reverse_iteratorIPiEES7_S7_EENS_4pairIT2_T4_EES9_T3_SA_, symObjAddr: 0x11A10, symBinAddr: 0x1000126E0, symSize: 0x550 }
  - { offsetInCU: 0xB642, offset: 0xB642, size: 0x8, addend: 0x0, symName: __ZNSt3__121__unwrap_and_dispatchB8ue170006INS_10__overloadINS_11__move_loopINS_17_ClassicAlgPolicyEEENS_14__move_trivialEEENS_16reverse_iteratorIPiEES9_S9_Li0EEENS_4pairIT0_T2_EESB_T1_SC_, symObjAddr: 0x11F60, symBinAddr: 0x100012C30, symSize: 0xD30 }
  - { offsetInCU: 0xB6E6, offset: 0xB6E6, size: 0x8, addend: 0x0, symName: __ZNSt3__114__unwrap_rangeB8ue170006INS_16reverse_iteratorIPiEES3_EENS_4pairIT0_S5_EET_S7_, symObjAddr: 0x12C90, symBinAddr: 0x100013960, symSize: 0x5A0 }
  - { offsetInCU: 0xB869, offset: 0xB869, size: 0x8, addend: 0x0, symName: __ZNSt3__113__unwrap_iterB8ue170006INS_16reverse_iteratorIPiEENS_18__unwrap_iter_implIS3_Lb0EEELi0EEEDTclsrT0_8__unwrapclsr3stdE7declvalIT_EEEES7_, symObjAddr: 0x135F0, symBinAddr: 0x1000142C0, symSize: 0x340 }
  - { offsetInCU: 0xB8B1, offset: 0xB8B1, size: 0x8, addend: 0x0, symName: __ZNSt3__19make_pairB8ue170006INS_16reverse_iteratorIPiEES3_EENS_4pairINS_18__unwrap_ref_decayIT_E4typeENS5_IT0_E4typeEEEOS6_OS9_, symObjAddr: 0x13930, symBinAddr: 0x100014600, symSize: 0x30 }
  - { offsetInCU: 0xB900, offset: 0xB900, size: 0x8, addend: 0x0, symName: __ZNSt3__114__rewrap_rangeB8ue170006INS_16reverse_iteratorIPiEES3_EET_S4_T0_, symObjAddr: 0x13960, symBinAddr: 0x100014630, symSize: 0x4E0 }
  - { offsetInCU: 0xB954, offset: 0xB954, size: 0x8, addend: 0x0, symName: __ZNSt3__113__rewrap_iterB8ue170006INS_16reverse_iteratorIPiEES3_NS_18__unwrap_iter_implIS3_Lb0EEEEET_S6_T0_, symObjAddr: 0x13E40, symBinAddr: 0x100014B10, symSize: 0x4F0 }
  - { offsetInCU: 0xB9B1, offset: 0xB9B1, size: 0x8, addend: 0x0, symName: __ZNSt3__1neB8ue170006IPiS1_EEbRKNS_16reverse_iteratorIT_EERKNS2_IT0_EE, symObjAddr: 0x14330, symBinAddr: 0x100015000, symSize: 0x40 }
  - { offsetInCU: 0xBAAF, offset: 0xBAAF, size: 0x8, addend: 0x0, symName: __ZNSt3__1neB8ue170006ERKNS_16__deque_iteratorIP8TreeNodePS2_RS2_PS3_lLl512EEES8_, symObjAddr: 0x15860, symBinAddr: 0x100016530, symSize: 0x30 }
  - { offsetInCU: 0xBAEC, offset: 0xBAEC, size: 0x8, addend: 0x0, symName: __ZNSt3__1eqB8ue170006ERKNS_16__deque_iteratorIP8TreeNodePS2_RS2_PS3_lLl512EEES8_, symObjAddr: 0x15A40, symBinAddr: 0x100016710, symSize: 0xA0 }
  - { offsetInCU: 0xBB29, offset: 0xBB29, size: 0x8, addend: 0x0, symName: __ZNSt3__1neB8ue170006IPiEEbRKNS_11__wrap_iterIT_EES6_, symObjAddr: 0x160E0, symBinAddr: 0x100016DB0, symSize: 0x30 }
  - { offsetInCU: 0xBB6C, offset: 0xBB6C, size: 0x8, addend: 0x0, symName: __ZNSt3__1lsB8ue170006INS_11char_traitsIcEEEERNS_13basic_ostreamIcT_EES6_PKc, symObjAddr: 0x16160, symBinAddr: 0x100016E30, symSize: 0x40 }
  - { offsetInCU: 0xBBB2, offset: 0xBBB2, size: 0x8, addend: 0x0, symName: __ZNSt3__1eqB8ue170006IPiEEbRKNS_11__wrap_iterIT_EES6_, symObjAddr: 0x16400, symBinAddr: 0x1000170D0, symSize: 0x40 }
  - { offsetInCU: 0xBBF5, offset: 0xBBF5, size: 0x8, addend: 0x0, symName: __ZNSt3__116__pad_and_outputB8ue170006IcNS_11char_traitsIcEEEENS_19ostreambuf_iteratorIT_T0_EES6_PKS4_S8_S8_RNS_8ios_baseES4_, symObjAddr: 0x16C90, symBinAddr: 0x100017960, symSize: 0x6E0 }
  - { offsetInCU: 0xBCD2, offset: 0xBCD2, size: 0x8, addend: 0x0, symName: __ZNSt3__112__to_addressB8ue170006IKcEEPT_S3_, symObjAddr: 0x17A10, symBinAddr: 0x1000186E0, symSize: 0x10 }
  - { offsetInCU: 0xBD3A, offset: 0xBD3A, size: 0x8, addend: 0x0, symName: __ZNSt3__19use_facetB8ue170006INS_5ctypeIcEEEERKT_RKNS_6localeE, symObjAddr: 0x17F30, symBinAddr: 0x100018C00, symSize: 0x30 }
  - { offsetInCU: 0xC207, offset: 0xC207, size: 0x8, addend: 0x0, symName: __ZNSt3__118__constexpr_strlenB8ue170006EPKc, symObjAddr: 0x18080, symBinAddr: 0x100018D50, symSize: 0x20 }
  - { offsetInCU: 0xC233, offset: 0xC233, size: 0x8, addend: 0x0, symName: __ZNSt3__112__to_addressB8ue170006INS_12basic_stringIcNS_11char_traitsIcEENS_9allocatorIcEEEEEEPT_S8_, symObjAddr: 0x19320, symBinAddr: 0x100019FF0, symSize: 0x10 }
  - { offsetInCU: 0xC268, offset: 0xC268, size: 0x8, addend: 0x0, symName: __ZNSt3__18distanceB8ue170006IPKNS_12basic_stringIcNS_11char_traitsIcEENS_9allocatorIcEEEEEENS_15iterator_traitsIT_E15difference_typeESA_SA_, symObjAddr: 0x19C80, symBinAddr: 0x10001A950, symSize: 0x30 }
  - { offsetInCU: 0xC2AB, offset: 0xC2AB, size: 0x8, addend: 0x0, symName: __ZNSt3__14nextB8ue170006IPKNS_12basic_stringIcNS_11char_traitsIcEENS_9allocatorIcEEEEEENS_9enable_ifIXsr29__has_input_iterator_categoryIT_EE5valueESA_E4typeESA_NS_15iterator_traitsISA_E15difference_typeE, symObjAddr: 0x19CB0, symBinAddr: 0x10001A980, symSize: 0x1B0 }
  - { offsetInCU: 0xC2F3, offset: 0xC2F3, size: 0x8, addend: 0x0, symName: __ZNSt3__14copyB8ue170006IPKNS_12basic_stringIcNS_11char_traitsIcEENS_9allocatorIcEEEEPS6_EET0_T_SB_SA_, symObjAddr: 0x19E60, symBinAddr: 0x10001AB30, symSize: 0x220 }
  - { offsetInCU: 0xC350, offset: 0xC350, size: 0x8, addend: 0x0, symName: __ZNSt3__16__copyB8ue170006INS_17_ClassicAlgPolicyEPKNS_12basic_stringIcNS_11char_traitsIcEENS_9allocatorIcEEEES9_PS7_EENS_4pairIT0_T2_EESC_T1_SD_, symObjAddr: 0x1A380, symBinAddr: 0x10001B050, symSize: 0x210 }
  - { offsetInCU: 0xC3BF, offset: 0xC3BF, size: 0x8, addend: 0x0, symName: __ZNSt3__121__convert_to_integralB8ue170006El, symObjAddr: 0x1AE70, symBinAddr: 0x10001BB40, symSize: 0x10 }
  - { offsetInCU: 0xC3EB, offset: 0xC3EB, size: 0x8, addend: 0x0, symName: __ZNSt3__19__advanceB8ue170006IPKNS_12basic_stringIcNS_11char_traitsIcEENS_9allocatorIcEEEEEEvRT_NS_15iterator_traitsIS9_E15difference_typeENS_26random_access_iterator_tagE, symObjAddr: 0x1AE80, symBinAddr: 0x10001BB50, symSize: 0x60 }
  - { offsetInCU: 0xC434, offset: 0xC434, size: 0x8, addend: 0x0, symName: __ZNSt3__130__uninitialized_allocator_copyB8ue170006INS_9allocatorINS_12basic_stringIcNS_11char_traitsIcEENS1_IcEEEEEEPKS6_S9_PS6_EET2_RT_T0_T1_SB_, symObjAddr: 0x1AF10, symBinAddr: 0x10001BBE0, symSize: 0x2A0 }
  - { offsetInCU: 0xC4DA, offset: 0xC4DA, size: 0x8, addend: 0x0, symName: __ZNSt3__114__unwrap_rangeB8ue170006IPKNS_12basic_stringIcNS_11char_traitsIcEENS_9allocatorIcEEEES8_EENS_4pairIT0_SA_EET_SC_, symObjAddr: 0x1B440, symBinAddr: 0x10001C110, symSize: 0x300 }
  - { offsetInCU: 0xC528, offset: 0xC528, size: 0x8, addend: 0x0, symName: __ZNSt3__135__uninitialized_allocator_copy_implB8ue170006INS_9allocatorINS_12basic_stringIcNS_11char_traitsIcEENS1_IcEEEEEEPKS6_S9_PS6_EET2_RT_T0_T1_SB_, symObjAddr: 0x1B740, symBinAddr: 0x10001C410, symSize: 0x550 }
  - { offsetInCU: 0xC5D4, offset: 0xC5D4, size: 0x8, addend: 0x0, symName: __ZNSt3__113__unwrap_iterB8ue170006IPNS_12basic_stringIcNS_11char_traitsIcEENS_9allocatorIcEEEENS_18__unwrap_iter_implIS7_Lb1EEELi0EEEDTclsrT0_8__unwrapclsr3stdE7declvalIT_EEEESB_, symObjAddr: 0x1BC90, symBinAddr: 0x10001C960, symSize: 0x20 }
  - { offsetInCU: 0xC618, offset: 0xC618, size: 0x8, addend: 0x0, symName: __ZNSt3__113__rewrap_iterB8ue170006IPNS_12basic_stringIcNS_11char_traitsIcEENS_9allocatorIcEEEES7_NS_18__unwrap_iter_implIS7_Lb1EEEEET_SA_T0_, symObjAddr: 0x1BCB0, symBinAddr: 0x10001C980, symSize: 0x50 }
  - { offsetInCU: 0xC66D, offset: 0xC66D, size: 0x8, addend: 0x0, symName: __ZNSt3__19make_pairB8ue170006IPKNS_12basic_stringIcNS_11char_traitsIcEENS_9allocatorIcEEEES8_EENS_4pairINS_18__unwrap_ref_decayIT_E4typeENSA_IT0_E4typeEEEOSB_OSE_, symObjAddr: 0x1BD00, symBinAddr: 0x10001C9D0, symSize: 0x190 }
  - { offsetInCU: 0xC6BE, offset: 0xC6BE, size: 0x8, addend: 0x0, symName: __ZNSt3__113__unwrap_iterB8ue170006IPKNS_12basic_stringIcNS_11char_traitsIcEENS_9allocatorIcEEEENS_18__unwrap_iter_implIS8_Lb1EEELi0EEEDTclsrT0_8__unwrapclsr3stdE7declvalIT_EEEESC_, symObjAddr: 0x1BE90, symBinAddr: 0x10001CB60, symSize: 0x20 }
  - { offsetInCU: 0xC829, offset: 0xC829, size: 0x8, addend: 0x0, symName: __ZNSt3__112__to_addressB8ue170006IKNS_12basic_stringIcNS_11char_traitsIcEENS_9allocatorIcEEEEEEPT_S9_, symObjAddr: 0x1C010, symBinAddr: 0x10001CCE0, symSize: 0x10 }
  - { offsetInCU: 0xC85E, offset: 0xC85E, size: 0x8, addend: 0x0, symName: __ZNSt3__122__make_exception_guardB8ue170006INS_29_AllocatorDestroyRangeReverseINS_9allocatorINS_12basic_stringIcNS_11char_traitsIcEENS2_IcEEEEEEPS7_EEEENS_28__exception_guard_exceptionsIT_EESC_, symObjAddr: 0x1C020, symBinAddr: 0x10001CCF0, symSize: 0x2A0 }
  - { offsetInCU: 0xC897, offset: 0xC897, size: 0x8, addend: 0x0, symName: __ZNSt3__119__allocator_destroyB8ue170006INS_9allocatorINS_12basic_stringIcNS_11char_traitsIcEENS1_IcEEEEEENS_16reverse_iteratorIPS6_EESA_EEvRT_T0_T1_, symObjAddr: 0x1CD20, symBinAddr: 0x10001D9F0, symSize: 0x2B0 }
  - { offsetInCU: 0xC903, offset: 0xC903, size: 0x8, addend: 0x0, symName: __ZNSt3__1neB8ue170006IPNS_12basic_stringIcNS_11char_traitsIcEENS_9allocatorIcEEEES7_EEbRKNS_16reverse_iteratorIT_EERKNS8_IT0_EE, symObjAddr: 0x1D000, symBinAddr: 0x10001DCD0, symSize: 0x40 }
  - { offsetInCU: 0xC94F, offset: 0xC94F, size: 0x8, addend: 0x0, symName: __ZNSt3__112__to_addressB8ue170006INS_16reverse_iteratorIPNS_12basic_stringIcNS_11char_traitsIcEENS_9allocatorIcEEEEEEvEEu7__decayIDTclsr19__to_address_helperIT_EE6__callclsr3stdE7declvalIRKSA_EEEEESC_, symObjAddr: 0x1D040, symBinAddr: 0x10001DD10, symSize: 0x20 }
  - { offsetInCU: 0xCA01, offset: 0xCA01, size: 0x8, addend: 0x0, symName: __ZNSt3__123__dispatch_copy_or_moveB8ue170006INS_17_ClassicAlgPolicyENS_11__copy_loopIS1_EENS_14__copy_trivialEPKNS_12basic_stringIcNS_11char_traitsIcEENS_9allocatorIcEEEESC_PSA_EENS_4pairIT2_T4_EESF_T3_SG_, symObjAddr: 0x1D5E0, symBinAddr: 0x10001E2B0, symSize: 0x210 }
  - { offsetInCU: 0xCA82, offset: 0xCA82, size: 0x8, addend: 0x0, symName: __ZNSt3__121__unwrap_and_dispatchB8ue170006INS_10__overloadINS_11__copy_loopINS_17_ClassicAlgPolicyEEENS_14__copy_trivialEEEPKNS_12basic_stringIcNS_11char_traitsIcEENS_9allocatorIcEEEESE_PSC_Li0EEENS_4pairIT0_T2_EESH_T1_SI_, symObjAddr: 0x1D7F0, symBinAddr: 0x10001E4C0, symSize: 0x650 }
  - { offsetInCU: 0xCC41, offset: 0xCC41, size: 0x8, addend: 0x0, symName: __ZNSt3__19make_pairB8ue170006IPKNS_12basic_stringIcNS_11char_traitsIcEENS_9allocatorIcEEEEPS6_EENS_4pairINS_18__unwrap_ref_decayIT_E4typeENSB_IT0_E4typeEEEOSC_OSF_, symObjAddr: 0x1E230, symBinAddr: 0x10001EF00, symSize: 0x190 }
  - { offsetInCU: 0xCC92, offset: 0xCC92, size: 0x8, addend: 0x0, symName: __ZNSt3__114__rewrap_rangeB8ue170006IPKNS_12basic_stringIcNS_11char_traitsIcEENS_9allocatorIcEEEES8_EET_S9_T0_, symObjAddr: 0x1E3C0, symBinAddr: 0x10001F090, symSize: 0x30 }
  - { offsetInCU: 0xCCDE, offset: 0xCCDE, size: 0x8, addend: 0x0, symName: __ZNSt3__113__rewrap_iterB8ue170006IPKNS_12basic_stringIcNS_11char_traitsIcEENS_9allocatorIcEEEES8_NS_18__unwrap_iter_implIS8_Lb1EEEEET_SB_T0_, symObjAddr: 0x1E530, symBinAddr: 0x10001F200, symSize: 0x50 }
  - { offsetInCU: 0xCD33, offset: 0xCD33, size: 0x8, addend: 0x0, symName: __ZNSt3__119__allocate_at_leastB8ue170006INS_9allocatorINS_12basic_stringIcNS_11char_traitsIcEENS1_IcEEEEEEEENS_19__allocation_resultINS_16allocator_traitsIT_E7pointerEEERSA_m, symObjAddr: 0x1E8F0, symBinAddr: 0x10001F5C0, symSize: 0x210 }
  - { offsetInCU: 0xCD78, offset: 0xCD78, size: 0x8, addend: 0x0, symName: __ZNSt3__110__distanceB8ue170006IPKNS_12basic_stringIcNS_11char_traitsIcEENS_9allocatorIcEEEEEENS_15iterator_traitsIT_E15difference_typeESA_SA_NS_26random_access_iterator_tagE, symObjAddr: 0x1ECA0, symBinAddr: 0x10001F970, symSize: 0x30 }
  - { offsetInCU: 0xD270, offset: 0xD270, size: 0x8, addend: 0x0, symName: __ZSt28__throw_bad_array_new_lengthB8ue170006v, symObjAddr: 0xADD0, symBinAddr: 0x10000BAA0, symSize: 0x40 }
  - { offsetInCU: 0xDA13, offset: 0xDA13, size: 0x8, addend: 0x0, symName: __ZNSt3__16vectorIiNS_9allocatorIiEEE26__swap_out_circular_bufferERNS_14__split_bufferIiRS2_EE, symObjAddr: 0xEF80, symBinAddr: 0x10000FC50, symSize: 0x6C0 }
  - { offsetInCU: 0x10031, offset: 0x10031, size: 0x8, addend: 0x0, symName: _main, symObjAddr: 0x0, symBinAddr: 0x100000CD0, symSize: 0xE70 }
  - { offsetInCU: 0x100C3, offset: 0x100C3, size: 0x8, addend: 0x0, symName: __ZNSt3__16vectorINS_12basic_stringIcNS_11char_traitsIcEENS_9allocatorIcEEEENS4_IS6_EEEC1B8ue170006Ev, symObjAddr: 0xE70, symBinAddr: 0x100001B40, symSize: 0x20 }
  - { offsetInCU: 0x100EC, offset: 0x100EC, size: 0x8, addend: 0x0, symName: __ZNSt3__16vectorIiNS_9allocatorIiEEEC1B8ue170006Ev, symObjAddr: 0xE90, symBinAddr: 0x100001B60, symSize: 0x20 }
  - { offsetInCU: 0x1011A, offset: 0x1011A, size: 0x8, addend: 0x0, symName: __ZNSt3__112basic_stringIcNS_11char_traitsIcEENS_9allocatorIcEEEC1B8ue170006ILi0EEEPKc, symObjAddr: 0xEB0, symBinAddr: 0x100001B80, symSize: 0x30 }
  - { offsetInCU: 0x10158, offset: 0x10158, size: 0x8, addend: 0x0, symName: __ZNSt3__16vectorINS_12basic_stringIcNS_11char_traitsIcEENS_9allocatorIcEEEENS4_IS6_EEEaSB8ue170006ESt16initializer_listIS6_E, symObjAddr: 0xEE0, symBinAddr: 0x100001BB0, symSize: 0x1F0 }
  - { offsetInCU: 0x101BB, offset: 0x101BB, size: 0x8, addend: 0x0, symName: __ZN8Solution13rightSideViewEP8TreeNode, symObjAddr: 0x10D0, symBinAddr: 0x100001DA0, symSize: 0x540 }
  - { offsetInCU: 0x1024D, offset: 0x1024D, size: 0x8, addend: 0x0, symName: __ZNSt3__16vectorIiNS_9allocatorIiEEEaSB8ue170006EOS3_, symObjAddr: 0x1610, symBinAddr: 0x1000022E0, symSize: 0x30 }
  - { offsetInCU: 0x10283, offset: 0x10283, size: 0x8, addend: 0x0, symName: __ZNSt3__16vectorIiNS_9allocatorIiEEED1B8ue170006Ev, symObjAddr: 0x1640, symBinAddr: 0x100002310, symSize: 0x20 }
  - { offsetInCU: 0x102B6, offset: 0x102B6, size: 0x8, addend: 0x0, symName: '__ZZ4mainENK3$_0clEv', symObjAddr: 0x1660, symBinAddr: 0x100002330, symSize: 0x2F0 }
  - { offsetInCU: 0x1033D, offset: 0x1033D, size: 0x8, addend: 0x0, symName: __ZNSt16initializer_listINSt3__112basic_stringIcNS0_11char_traitsIcEENS0_9allocatorIcEEEEEC1B8ue170006Ev, symObjAddr: 0x1950, symBinAddr: 0x100002620, symSize: 0x20 }
  - { offsetInCU: 0x10366, offset: 0x10366, size: 0x8, addend: 0x0, symName: __ZNSt3__16vectorINS_12basic_stringIcNS_11char_traitsIcEENS_9allocatorIcEEEENS4_IS6_EEED1B8ue170006Ev, symObjAddr: 0x1970, symBinAddr: 0x100002640, symSize: 0x20 }
  - { offsetInCU: 0x1038F, offset: 0x1038F, size: 0x8, addend: 0x0, symName: __ZNSt3__15dequeIP8TreeNodeNS_9allocatorIS2_EEEC1B8ue170006Ev, symObjAddr: 0x1990, symBinAddr: 0x100002660, symSize: 0x20 }
  - { offsetInCU: 0x103B7, offset: 0x103B7, size: 0x8, addend: 0x0, symName: __ZNSt3__15dequeIP8TreeNodeNS_9allocatorIS2_EEE9push_backERKS2_, symObjAddr: 0x19B0, symBinAddr: 0x100002680, symSize: 0x270 }
  - { offsetInCU: 0x103FF, offset: 0x103FF, size: 0x8, addend: 0x0, symName: __ZNKSt3__15dequeIP8TreeNodeNS_9allocatorIS2_EEE5emptyB8ue170006Ev, symObjAddr: 0x1C20, symBinAddr: 0x1000028F0, symSize: 0x30 }
  - { offsetInCU: 0x10424, offset: 0x10424, size: 0x8, addend: 0x0, symName: __ZNKSt3__15dequeIP8TreeNodeNS_9allocatorIS2_EEE4sizeB8ue170006Ev, symObjAddr: 0x1C50, symBinAddr: 0x100002920, symSize: 0x50 }
  - { offsetInCU: 0x10448, offset: 0x10448, size: 0x8, addend: 0x0, symName: __ZNSt3__15dequeIP8TreeNodeNS_9allocatorIS2_EEE5frontEv, symObjAddr: 0x1CA0, symBinAddr: 0x100002970, symSize: 0xF0 }
  - { offsetInCU: 0x1046E, offset: 0x1046E, size: 0x8, addend: 0x0, symName: __ZNSt3__15dequeIP8TreeNodeNS_9allocatorIS2_EEE9pop_frontEv, symObjAddr: 0x1D90, symBinAddr: 0x100002A60, symSize: 0x200 }
  - { offsetInCU: 0x104C1, offset: 0x104C1, size: 0x8, addend: 0x0, symName: __ZNSt3__16vectorIiNS_9allocatorIiEEE9push_backB8ue170006ERKi, symObjAddr: 0x1F90, symBinAddr: 0x100002C60, symSize: 0xC0 }
  - { offsetInCU: 0x104F7, offset: 0x104F7, size: 0x8, addend: 0x0, symName: __ZNSt3__15dequeIP8TreeNodeNS_9allocatorIS2_EEED1B8ue170006Ev, symObjAddr: 0x2050, symBinAddr: 0x100002D20, symSize: 0x20 }
  - { offsetInCU: 0x10520, offset: 0x10520, size: 0x8, addend: 0x0, symName: __ZNSt3__15dequeIP8TreeNodeNS_9allocatorIS2_EEEC2B8ue170006Ev, symObjAddr: 0x2070, symBinAddr: 0x100002D40, symSize: 0x240 }
  - { offsetInCU: 0x1054A, offset: 0x1054A, size: 0x8, addend: 0x0, symName: __ZNSt3__114__split_bufferIPP8TreeNodeNS_9allocatorIS3_EEEC1B8ue170006Ev, symObjAddr: 0x22B0, symBinAddr: 0x100002F80, symSize: 0x20 }
  - { offsetInCU: 0x1057D, offset: 0x1057D, size: 0x8, addend: 0x0, symName: __ZNSt3__117__compressed_pairImNS_9allocatorIP8TreeNodeEEEC1B8ue170006IiNS_18__default_init_tagEEEOT_OT0_, symObjAddr: 0x22D0, symBinAddr: 0x100002FA0, symSize: 0x30 }
  - { offsetInCU: 0x105D4, offset: 0x105D4, size: 0x8, addend: 0x0, symName: __ZNKSt3__15dequeIP8TreeNodeNS_9allocatorIS2_EEE14__annotate_newB8ue170006Em, symObjAddr: 0x2310, symBinAddr: 0x100002FE0, symSize: 0x130 }
  - { offsetInCU: 0x10608, offset: 0x10608, size: 0x8, addend: 0x0, symName: __ZNSt3__114__split_bufferIPP8TreeNodeNS_9allocatorIS3_EEEC2B8ue170006Ev, symObjAddr: 0x2440, symBinAddr: 0x100003110, symSize: 0x290 }
  - { offsetInCU: 0x10637, offset: 0x10637, size: 0x8, addend: 0x0, symName: __ZNSt3__117__compressed_pairIPPP8TreeNodeNS_9allocatorIS3_EEEC1B8ue170006IDnNS_18__default_init_tagEEEOT_OT0_, symObjAddr: 0x26D0, symBinAddr: 0x1000033A0, symSize: 0x30 }
  - { offsetInCU: 0x1068E, offset: 0x1068E, size: 0x8, addend: 0x0, symName: __ZNSt3__117__compressed_pairIPPP8TreeNodeNS_9allocatorIS3_EEEC2B8ue170006IDnNS_18__default_init_tagEEEOT_OT0_, symObjAddr: 0x2700, symBinAddr: 0x1000033D0, symSize: 0x40 }
  - { offsetInCU: 0x106E5, offset: 0x106E5, size: 0x8, addend: 0x0, symName: __ZNSt3__122__compressed_pair_elemIPPP8TreeNodeLi0ELb0EEC2B8ue170006IDnvEEOT_, symObjAddr: 0x2740, symBinAddr: 0x100003410, symSize: 0x50 }
  - { offsetInCU: 0x10726, offset: 0x10726, size: 0x8, addend: 0x0, symName: __ZNSt3__122__compressed_pair_elemINS_9allocatorIPP8TreeNodeEELi1ELb1EEC2B8ue170006ENS_18__default_init_tagE, symObjAddr: 0x2790, symBinAddr: 0x100003460, symSize: 0x20 }
  - { offsetInCU: 0x10759, offset: 0x10759, size: 0x8, addend: 0x0, symName: __ZNSt3__19allocatorIPP8TreeNodeEC2B8ue170006Ev, symObjAddr: 0x27B0, symBinAddr: 0x100003480, symSize: 0x20 }
  - { offsetInCU: 0x10782, offset: 0x10782, size: 0x8, addend: 0x0, symName: __ZNSt3__116__non_trivial_ifILb1ENS_9allocatorIPP8TreeNodeEEEC2B8ue170006Ev, symObjAddr: 0x27D0, symBinAddr: 0x1000034A0, symSize: 0x10 }
  - { offsetInCU: 0x107AB, offset: 0x107AB, size: 0x8, addend: 0x0, symName: __ZNSt3__117__compressed_pairImNS_9allocatorIP8TreeNodeEEEC2B8ue170006IiNS_18__default_init_tagEEEOT_OT0_, symObjAddr: 0x27E0, symBinAddr: 0x1000034B0, symSize: 0x40 }
  - { offsetInCU: 0x10802, offset: 0x10802, size: 0x8, addend: 0x0, symName: __ZNSt3__122__compressed_pair_elemImLi0ELb0EEC2B8ue170006IivEEOT_, symObjAddr: 0x2820, symBinAddr: 0x1000034F0, symSize: 0xB0 }
  - { offsetInCU: 0x10843, offset: 0x10843, size: 0x8, addend: 0x0, symName: __ZNSt3__122__compressed_pair_elemINS_9allocatorIP8TreeNodeEELi1ELb1EEC2B8ue170006ENS_18__default_init_tagE, symObjAddr: 0x28D0, symBinAddr: 0x1000035A0, symSize: 0x20 }
  - { offsetInCU: 0x10876, offset: 0x10876, size: 0x8, addend: 0x0, symName: __ZNSt3__19allocatorIP8TreeNodeEC2B8ue170006Ev, symObjAddr: 0x28F0, symBinAddr: 0x1000035C0, symSize: 0x20 }
  - { offsetInCU: 0x1089F, offset: 0x1089F, size: 0x8, addend: 0x0, symName: __ZNSt3__116__non_trivial_ifILb1ENS_9allocatorIP8TreeNodeEEEC2B8ue170006Ev, symObjAddr: 0x2910, symBinAddr: 0x1000035E0, symSize: 0x10 }
  - { offsetInCU: 0x108C8, offset: 0x108C8, size: 0x8, addend: 0x0, symName: __ZNKSt3__15dequeIP8TreeNodeNS_9allocatorIS2_EEE18__annotate_from_toB8ue170006EmmNS5_22__asan_annotation_typeENS5_23__asan_annotation_placeE, symObjAddr: 0x2920, symBinAddr: 0x1000035F0, symSize: 0x700 }
  - { offsetInCU: 0x10A83, offset: 0x10A83, size: 0x8, addend: 0x0, symName: __ZNKSt3__114__split_bufferIPP8TreeNodeNS_9allocatorIS3_EEE4sizeB8ue170006Ev, symObjAddr: 0x3020, symBinAddr: 0x100003CF0, symSize: 0xA0 }
  - { offsetInCU: 0x10AA8, offset: 0x10AA8, size: 0x8, addend: 0x0, symName: __ZNKSt3__114__split_bufferIPP8TreeNodeNS_9allocatorIS3_EEE5beginB8ue170006Ev, symObjAddr: 0x30C0, symBinAddr: 0x100003D90, symSize: 0x50 }
  - { offsetInCU: 0x10ACD, offset: 0x10ACD, size: 0x8, addend: 0x0, symName: __ZNKSt3__15dequeIP8TreeNodeNS_9allocatorIS2_EEE44__annotate_double_ended_contiguous_containerB8ue170006EPKvS7_S7_S7_S7_S7_, symObjAddr: 0x3120, symBinAddr: 0x100003DF0, symSize: 0x30 }
  - { offsetInCU: 0x10B34, offset: 0x10B34, size: 0x8, addend: 0x0, symName: __ZNSt3__15dequeIP8TreeNodeNS_9allocatorIS2_EEE7__allocB8ue170006Ev, symObjAddr: 0x3150, symBinAddr: 0x100003E20, symSize: 0x20 }
  - { offsetInCU: 0x10B59, offset: 0x10B59, size: 0x8, addend: 0x0, symName: __ZNKSt3__15dequeIP8TreeNodeNS_9allocatorIS2_EEE12__back_spareB8ue170006Ev, symObjAddr: 0x3170, symBinAddr: 0x100003E40, symSize: 0x80 }
  - { offsetInCU: 0x10B7D, offset: 0x10B7D, size: 0x8, addend: 0x0, symName: __ZNSt3__15dequeIP8TreeNodeNS_9allocatorIS2_EEE19__add_back_capacityEv, symObjAddr: 0x31F0, symBinAddr: 0x100003EC0, symSize: 0xA60 }
  - { offsetInCU: 0x10C3E, offset: 0x10C3E, size: 0x8, addend: 0x0, symName: __ZNKSt3__15dequeIP8TreeNodeNS_9allocatorIS2_EEE24__annotate_increase_backB8ue170006Em, symObjAddr: 0x3C50, symBinAddr: 0x100004920, symSize: 0xE0 }
  - { offsetInCU: 0x10C72, offset: 0x10C72, size: 0x8, addend: 0x0, symName: __ZNSt3__116allocator_traitsINS_9allocatorIP8TreeNodeEEE9constructB8ue170006IS3_JRKS3_EvEEvRS4_PT_DpOT0_, symObjAddr: 0x3D30, symBinAddr: 0x100004A00, symSize: 0x30 }
  - { offsetInCU: 0x10CC9, offset: 0x10CC9, size: 0x8, addend: 0x0, symName: __ZNSt3__15dequeIP8TreeNodeNS_9allocatorIS2_EEE3endB8ue170006Ev, symObjAddr: 0x3D60, symBinAddr: 0x100004A30, symSize: 0x2B0 }
  - { offsetInCU: 0x10D0F, offset: 0x10D0F, size: 0x8, addend: 0x0, symName: __ZNKSt3__116__deque_iteratorIP8TreeNodePS2_RS2_PS3_lLl512EEdeB8ue170006Ev, symObjAddr: 0x4010, symBinAddr: 0x100004CE0, symSize: 0x50 }
  - { offsetInCU: 0x10D34, offset: 0x10D34, size: 0x8, addend: 0x0, symName: __ZNSt3__15dequeIP8TreeNodeNS_9allocatorIS2_EEE6__sizeB8ue170006Ev, symObjAddr: 0x4060, symBinAddr: 0x100004D30, symSize: 0x20 }
  - { offsetInCU: 0x10D59, offset: 0x10D59, size: 0x8, addend: 0x0, symName: __ZNSt3__117__compressed_pairImNS_9allocatorIP8TreeNodeEEE6secondB8ue170006Ev, symObjAddr: 0x4080, symBinAddr: 0x100004D50, symSize: 0x20 }
  - { offsetInCU: 0x10D7E, offset: 0x10D7E, size: 0x8, addend: 0x0, symName: __ZNSt3__122__compressed_pair_elemINS_9allocatorIP8TreeNodeEELi1ELb1EE5__getB8ue170006Ev, symObjAddr: 0x40A0, symBinAddr: 0x100004D70, symSize: 0x10 }
  - { offsetInCU: 0x10DA3, offset: 0x10DA3, size: 0x8, addend: 0x0, symName: __ZNKSt3__15dequeIP8TreeNodeNS_9allocatorIS2_EEE10__capacityB8ue170006Ev, symObjAddr: 0x40B0, symBinAddr: 0x100004D80, symSize: 0x50 }
  - { offsetInCU: 0x10DC8, offset: 0x10DC8, size: 0x8, addend: 0x0, symName: __ZNKSt3__15dequeIP8TreeNodeNS_9allocatorIS2_EEE13__front_spareB8ue170006Ev, symObjAddr: 0x4100, symBinAddr: 0x100004DD0, symSize: 0x50 }
  - { offsetInCU: 0x10DED, offset: 0x10DED, size: 0x8, addend: 0x0, symName: __ZNSt3__114__split_bufferIPP8TreeNodeNS_9allocatorIS3_EEE5frontB8ue170006Ev, symObjAddr: 0x4150, symBinAddr: 0x100004E20, symSize: 0x50 }
  - { offsetInCU: 0x10E12, offset: 0x10E12, size: 0x8, addend: 0x0, symName: __ZNSt3__114__split_bufferIPP8TreeNodeNS_9allocatorIS3_EEE9pop_frontB8ue170006Ev, symObjAddr: 0x41A0, symBinAddr: 0x100004E70, symSize: 0x60 }
  - { offsetInCU: 0x10E36, offset: 0x10E36, size: 0x8, addend: 0x0, symName: __ZNSt3__114__split_bufferIPP8TreeNodeNS_9allocatorIS3_EEE9push_backB8ue170006ERKS3_, symObjAddr: 0x4200, symBinAddr: 0x100004ED0, symSize: 0xAC0 }
  - { offsetInCU: 0x10EB5, offset: 0x10EB5, size: 0x8, addend: 0x0, symName: __ZNKSt3__114__split_bufferIPP8TreeNodeNS_9allocatorIS3_EEE8capacityB8ue170006Ev, symObjAddr: 0x4CC0, symBinAddr: 0x100005990, symSize: 0x90 }
  - { offsetInCU: 0x10EDA, offset: 0x10EDA, size: 0x8, addend: 0x0, symName: __ZNKSt3__114__split_bufferIPP8TreeNodeNS_9allocatorIS3_EEE12__back_spareB8ue170006Ev, symObjAddr: 0x4D50, symBinAddr: 0x100005A20, symSize: 0xA0 }
  - { offsetInCU: 0x10EFE, offset: 0x10EFE, size: 0x8, addend: 0x0, symName: __ZNSt3__114__split_bufferIPP8TreeNodeNS_9allocatorIS3_EEE9push_backEOS3_, symObjAddr: 0x4DF0, symBinAddr: 0x100005AC0, symSize: 0xAC0 }
  - { offsetInCU: 0x10F7D, offset: 0x10F7D, size: 0x8, addend: 0x0, symName: __ZNSt3__116allocator_traitsINS_9allocatorIP8TreeNodeEEE8allocateB8ue170006ERS4_m, symObjAddr: 0x58B0, symBinAddr: 0x100006580, symSize: 0x30 }
  - { offsetInCU: 0x10FAF, offset: 0x10FAF, size: 0x8, addend: 0x0, symName: __ZNSt3__114__split_bufferIPP8TreeNodeNS_9allocatorIS3_EEE10push_frontEOS3_, symObjAddr: 0x58E0, symBinAddr: 0x1000065B0, symSize: 0xAE0 }
  - { offsetInCU: 0x1102E, offset: 0x1102E, size: 0x8, addend: 0x0, symName: __ZNKSt3__15dequeIP8TreeNodeNS_9allocatorIS2_EEE22__annotate_whole_blockB8ue170006EmNS5_22__asan_annotation_typeE, symObjAddr: 0x63C0, symBinAddr: 0x100007090, symSize: 0x100 }
  - { offsetInCU: 0x1109E, offset: 0x1109E, size: 0x8, addend: 0x0, symName: __ZNSt3__114__split_bufferIPP8TreeNodeNS_9allocatorIS3_EEE7__allocB8ue170006Ev, symObjAddr: 0x64F0, symBinAddr: 0x1000071C0, symSize: 0x20 }
  - { offsetInCU: 0x110C3, offset: 0x110C3, size: 0x8, addend: 0x0, symName: __ZNSt3__114__split_bufferIPP8TreeNodeRNS_9allocatorIS3_EEEC1EmmS6_, symObjAddr: 0x6510, symBinAddr: 0x1000071E0, symSize: 0x40 }
  - { offsetInCU: 0x1111D, offset: 0x1111D, size: 0x8, addend: 0x0, symName: __ZNSt3__122__allocator_destructorINS_9allocatorIP8TreeNodeEEEC1B8ue170006ERS4_m, symObjAddr: 0x6550, symBinAddr: 0x100007220, symSize: 0x30 }
  - { offsetInCU: 0x111DF, offset: 0x111DF, size: 0x8, addend: 0x0, symName: __ZNSt3__110unique_ptrIPP8TreeNodeNS_22__allocator_destructorINS_9allocatorIS2_EEEEEC1B8ue170006ILb1EvEES3_NS_16__dependent_typeINS_27__unique_ptr_deleter_sfinaeIS7_EEXT_EE20__good_rval_ref_typeE, symObjAddr: 0x6580, symBinAddr: 0x100007250, symSize: 0x30 }
  - { offsetInCU: 0x1122E, offset: 0x1122E, size: 0x8, addend: 0x0, symName: __ZNSt3__114__split_bufferIPP8TreeNodeRNS_9allocatorIS3_EEE9push_backEOS3_, symObjAddr: 0x65B0, symBinAddr: 0x100007280, symSize: 0xAC0 }
  - { offsetInCU: 0x112AD, offset: 0x112AD, size: 0x8, addend: 0x0, symName: __ZNKSt3__110unique_ptrIPP8TreeNodeNS_22__allocator_destructorINS_9allocatorIS2_EEEEE3getB8ue170006Ev, symObjAddr: 0x7070, symBinAddr: 0x100007D40, symSize: 0x50 }
  - { offsetInCU: 0x112D2, offset: 0x112D2, size: 0x8, addend: 0x0, symName: __ZNSt3__110unique_ptrIPP8TreeNodeNS_22__allocator_destructorINS_9allocatorIS2_EEEEE7releaseB8ue170006Ev, symObjAddr: 0x70C0, symBinAddr: 0x100007D90, symSize: 0xA0 }
  - { offsetInCU: 0x11306, offset: 0x11306, size: 0x8, addend: 0x0, symName: __ZNSt3__114__split_bufferIPP8TreeNodeNS_9allocatorIS3_EEE3endB8ue170006Ev, symObjAddr: 0x7160, symBinAddr: 0x100007E30, symSize: 0x50 }
  - { offsetInCU: 0x1132B, offset: 0x1132B, size: 0x8, addend: 0x0, symName: __ZNSt3__114__split_bufferIPP8TreeNodeNS_9allocatorIS3_EEE5beginB8ue170006Ev, symObjAddr: 0x71B0, symBinAddr: 0x100007E80, symSize: 0x50 }
  - { offsetInCU: 0x1134F, offset: 0x1134F, size: 0x8, addend: 0x0, symName: __ZNSt3__114__split_bufferIPP8TreeNodeRNS_9allocatorIS3_EEE10push_frontERKS3_, symObjAddr: 0x7200, symBinAddr: 0x100007ED0, symSize: 0xAE0 }
  - { offsetInCU: 0x113CE, offset: 0x113CE, size: 0x8, addend: 0x0, symName: __ZNSt3__114__split_bufferIPP8TreeNodeNS_9allocatorIS3_EEE9__end_capB8ue170006Ev, symObjAddr: 0x7DE0, symBinAddr: 0x100008AB0, symSize: 0x20 }
  - { offsetInCU: 0x113F3, offset: 0x113F3, size: 0x8, addend: 0x0, symName: __ZNSt3__114__split_bufferIPP8TreeNodeRNS_9allocatorIS3_EEE9__end_capB8ue170006Ev, symObjAddr: 0x7E00, symBinAddr: 0x100008AD0, symSize: 0x20 }
  - { offsetInCU: 0x11418, offset: 0x11418, size: 0x8, addend: 0x0, symName: __ZNSt3__110unique_ptrIPP8TreeNodeNS_22__allocator_destructorINS_9allocatorIS2_EEEEED1B8ue170006Ev, symObjAddr: 0x7E20, symBinAddr: 0x100008AF0, symSize: 0x20 }
  - { offsetInCU: 0x11441, offset: 0x11441, size: 0x8, addend: 0x0, symName: __ZNSt3__114__split_bufferIPP8TreeNodeRNS_9allocatorIS3_EEED1Ev, symObjAddr: 0x7E40, symBinAddr: 0x100008B10, symSize: 0x20 }
  - { offsetInCU: 0x1146C, offset: 0x1146C, size: 0x8, addend: 0x0, symName: __ZNSt3__114__split_bufferIPP8TreeNodeNS_9allocatorIS3_EEE19__destruct_at_beginB8ue170006EPS3_, symObjAddr: 0x7E60, symBinAddr: 0x100008B30, symSize: 0x30 }
  - { offsetInCU: 0x1149E, offset: 0x1149E, size: 0x8, addend: 0x0, symName: __ZNSt3__114__split_bufferIPP8TreeNodeNS_9allocatorIS3_EEE19__destruct_at_beginEPS3_NS_17integral_constantIbLb1EEE, symObjAddr: 0x7E90, symBinAddr: 0x100008B60, symSize: 0x60 }
  - { offsetInCU: 0x114DC, offset: 0x114DC, size: 0x8, addend: 0x0, symName: __ZNSt3__114__split_bufferIPP8TreeNodeRNS_9allocatorIS3_EEE18__construct_at_endINS_13move_iteratorIPS3_EEEENS_9enable_ifIXsr31__has_forward_iterator_categoryIT_EE5valueEvE4typeESD_SD_, symObjAddr: 0x8110, symBinAddr: 0x100008DE0, symSize: 0x350 }
  - { offsetInCU: 0x11531, offset: 0x11531, size: 0x8, addend: 0x0, symName: __ZNSt3__113move_iteratorIPPP8TreeNodeEC1B8ue170006ES4_, symObjAddr: 0x8460, symBinAddr: 0x100009130, symSize: 0x30 }
  - { offsetInCU: 0x11568, offset: 0x11568, size: 0x8, addend: 0x0, symName: __ZNSt3__116allocator_traitsINS_9allocatorIPP8TreeNodeEEE9constructB8ue170006IS4_JRKS4_EvEEvRS5_PT_DpOT0_, symObjAddr: 0x8490, symBinAddr: 0x100009160, symSize: 0x30 }
  - { offsetInCU: 0x115E2, offset: 0x115E2, size: 0x8, addend: 0x0, symName: __ZNKSt3__114__move_trivialclB8ue170006IPP8TreeNodeS4_Li0EEENS_4pairIPT_PT0_EES7_S7_S9_, symObjAddr: 0x9240, symBinAddr: 0x100009F10, symSize: 0x210 }
  - { offsetInCU: 0x11652, offset: 0x11652, size: 0x8, addend: 0x0, symName: __ZNSt3__14pairIPPP8TreeNodeS4_EC1B8ue170006IRS4_S4_LPv0EEEOT_OT0_, symObjAddr: 0x9BB0, symBinAddr: 0x10000A880, symSize: 0x30 }
  - { offsetInCU: 0x116AF, offset: 0x116AF, size: 0x8, addend: 0x0, symName: __ZNSt3__14pairIPPP8TreeNodeS4_EC2B8ue170006IRS4_S4_LPv0EEEOT_OT0_, symObjAddr: 0x9BE0, symBinAddr: 0x10000A8B0, symSize: 0x110 }
  - { offsetInCU: 0x1170C, offset: 0x1170C, size: 0x8, addend: 0x0, symName: __ZNSt3__118__unwrap_iter_implIPPP8TreeNodeLb1EE8__unwrapB8ue170006ES4_, symObjAddr: 0x9CF0, symBinAddr: 0x10000A9C0, symSize: 0x20 }
  - { offsetInCU: 0x1172F, offset: 0x1172F, size: 0x8, addend: 0x0, symName: __ZNSt3__14pairIPPP8TreeNodeS4_EC1B8ue170006IS4_S4_LPv0EEEOT_OT0_, symObjAddr: 0x9D10, symBinAddr: 0x10000A9E0, symSize: 0x30 }
  - { offsetInCU: 0x1178C, offset: 0x1178C, size: 0x8, addend: 0x0, symName: __ZNSt3__14pairIPPP8TreeNodeS4_EC2B8ue170006IS4_S4_LPv0EEEOT_OT0_, symObjAddr: 0x9D40, symBinAddr: 0x10000AA10, symSize: 0x110 }
  - { offsetInCU: 0x117E9, offset: 0x117E9, size: 0x8, addend: 0x0, symName: __ZNSt3__118__unwrap_iter_implIPPP8TreeNodeLb1EE8__rewrapB8ue170006ES4_S4_, symObjAddr: 0x9E50, symBinAddr: 0x10000AB20, symSize: 0x50 }
  - { offsetInCU: 0x11819, offset: 0x11819, size: 0x8, addend: 0x0, symName: __ZNSt3__114__split_bufferIPP8TreeNodeRNS_9allocatorIS3_EEE28__construct_at_end_with_sizeINS_13move_iteratorIPS3_EEEEvT_m, symObjAddr: 0x9EA0, symBinAddr: 0x10000AB70, symSize: 0x3E0 }
  - { offsetInCU: 0x11888, offset: 0x11888, size: 0x8, addend: 0x0, symName: __ZNSt3__114__split_bufferIPP8TreeNodeRNS_9allocatorIS3_EEE21_ConstructTransactionC1B8ue170006EPPS3_m, symObjAddr: 0xA540, symBinAddr: 0x10000B210, symSize: 0x30 }
  - { offsetInCU: 0x118CD, offset: 0x118CD, size: 0x8, addend: 0x0, symName: __ZNSt3__116allocator_traitsINS_9allocatorIPP8TreeNodeEEE9constructB8ue170006IS4_JS4_EvEEvRS5_PT_DpOT0_, symObjAddr: 0xA570, symBinAddr: 0x10000B240, symSize: 0x30 }
  - { offsetInCU: 0x11924, offset: 0x11924, size: 0x8, addend: 0x0, symName: __ZNSt3__114__split_bufferIPP8TreeNodeRNS_9allocatorIS3_EEE7__allocB8ue170006Ev, symObjAddr: 0xA5A0, symBinAddr: 0x10000B270, symSize: 0x20 }
  - { offsetInCU: 0x11949, offset: 0x11949, size: 0x8, addend: 0x0, symName: __ZNKSt3__113move_iteratorIPPP8TreeNodeEdeB8ue170006Ev, symObjAddr: 0xA5C0, symBinAddr: 0x10000B290, symSize: 0x50 }
  - { offsetInCU: 0x1196E, offset: 0x1196E, size: 0x8, addend: 0x0, symName: __ZNSt3__113move_iteratorIPPP8TreeNodeEppB8ue170006Ev, symObjAddr: 0xA610, symBinAddr: 0x10000B2E0, symSize: 0x50 }
  - { offsetInCU: 0x11993, offset: 0x11993, size: 0x8, addend: 0x0, symName: __ZNSt3__114__split_bufferIPP8TreeNodeRNS_9allocatorIS3_EEE21_ConstructTransactionD1B8ue170006Ev, symObjAddr: 0xA660, symBinAddr: 0x10000B330, symSize: 0x20 }
  - { offsetInCU: 0x119BC, offset: 0x119BC, size: 0x8, addend: 0x0, symName: __ZNSt3__114__split_bufferIPP8TreeNodeRNS_9allocatorIS3_EEE21_ConstructTransactionC2B8ue170006EPPS3_m, symObjAddr: 0xA680, symBinAddr: 0x10000B350, symSize: 0x160 }
  - { offsetInCU: 0x11A01, offset: 0x11A01, size: 0x8, addend: 0x0, symName: __ZNSt3__19allocatorIPP8TreeNodeE9constructB8ue170006IS3_JS3_EEEvPT_DpOT0_, symObjAddr: 0xA7E0, symBinAddr: 0x10000B4B0, symSize: 0x90 }
  - { offsetInCU: 0x11A56, offset: 0x11A56, size: 0x8, addend: 0x0, symName: __ZNSt3__117__compressed_pairIPPP8TreeNodeRNS_9allocatorIS3_EEE6secondB8ue170006Ev, symObjAddr: 0xA870, symBinAddr: 0x10000B540, symSize: 0x20 }
  - { offsetInCU: 0x11A7B, offset: 0x11A7B, size: 0x8, addend: 0x0, symName: __ZNSt3__122__compressed_pair_elemIRNS_9allocatorIPP8TreeNodeEELi1ELb0EE5__getB8ue170006Ev, symObjAddr: 0xA890, symBinAddr: 0x10000B560, symSize: 0x50 }
  - { offsetInCU: 0x11AA0, offset: 0x11AA0, size: 0x8, addend: 0x0, symName: __ZNSt3__114__split_bufferIPP8TreeNodeRNS_9allocatorIS3_EEE21_ConstructTransactionD2B8ue170006Ev, symObjAddr: 0xA8E0, symBinAddr: 0x10000B5B0, symSize: 0xC0 }
  - { offsetInCU: 0x11AC9, offset: 0x11AC9, size: 0x8, addend: 0x0, symName: __ZNKSt3__113move_iteratorIPPP8TreeNodeE4baseB8ue170006Ev, symObjAddr: 0xABC0, symBinAddr: 0x10000B890, symSize: 0x50 }
  - { offsetInCU: 0x11AEE, offset: 0x11AEE, size: 0x8, addend: 0x0, symName: __ZNSt3__113move_iteratorIPPP8TreeNodeEC2B8ue170006ES4_, symObjAddr: 0xAC10, symBinAddr: 0x10000B8E0, symSize: 0x60 }
  - { offsetInCU: 0x11B25, offset: 0x11B25, size: 0x8, addend: 0x0, symName: __ZNSt3__19allocatorIPP8TreeNodeE9constructB8ue170006IS3_JRKS3_EEEvPT_DpOT0_, symObjAddr: 0xAC70, symBinAddr: 0x10000B940, symSize: 0x90 }
  - { offsetInCU: 0x11B7A, offset: 0x11B7A, size: 0x8, addend: 0x0, symName: __ZNKSt3__114__split_bufferIPP8TreeNodeNS_9allocatorIS3_EEE9__end_capB8ue170006Ev, symObjAddr: 0xAD00, symBinAddr: 0x10000B9D0, symSize: 0x20 }
  - { offsetInCU: 0x11B9F, offset: 0x11B9F, size: 0x8, addend: 0x0, symName: __ZNKSt3__117__compressed_pairIPPP8TreeNodeNS_9allocatorIS3_EEE5firstB8ue170006Ev, symObjAddr: 0xAD20, symBinAddr: 0x10000B9F0, symSize: 0x20 }
  - { offsetInCU: 0x11BC4, offset: 0x11BC4, size: 0x8, addend: 0x0, symName: __ZNKSt3__122__compressed_pair_elemIPPP8TreeNodeLi0ELb0EE5__getB8ue170006Ev, symObjAddr: 0xAD40, symBinAddr: 0x10000BA10, symSize: 0x10 }
  - { offsetInCU: 0x11BE9, offset: 0x11BE9, size: 0x8, addend: 0x0, symName: __ZNSt3__19allocatorIP8TreeNodeE8allocateB8ue170006Em, symObjAddr: 0xAD50, symBinAddr: 0x10000BA20, symSize: 0x60 }
  - { offsetInCU: 0x11C26, offset: 0x11C26, size: 0x8, addend: 0x0, symName: __ZNSt3__116allocator_traitsINS_9allocatorIP8TreeNodeEEE8max_sizeB8ue170006IS4_vEEmRKS4_, symObjAddr: 0xADB0, symBinAddr: 0x10000BA80, symSize: 0x20 }
  - { offsetInCU: 0x11C54, offset: 0x11C54, size: 0x8, addend: 0x0, symName: __ZNKSt3__19allocatorIP8TreeNodeE8max_sizeB8ue170006Ev, symObjAddr: 0xAE30, symBinAddr: 0x10000BB00, symSize: 0x20 }
  - { offsetInCU: 0x11C83, offset: 0x11C83, size: 0x8, addend: 0x0, symName: __ZNKSt3__123__move_backward_trivialclB8ue170006IPP8TreeNodeS4_Li0EEENS_4pairIPT_PT0_EES7_S7_S9_, symObjAddr: 0xBB00, symBinAddr: 0x10000C7D0, symSize: 0x210 }
  - { offsetInCU: 0x11CEE, offset: 0x11CEE, size: 0x8, addend: 0x0, symName: __ZNSt3__14pairIPPP8TreeNodeS4_EC1B8ue170006IRS4_S7_LPv0EEEOT_OT0_, symObjAddr: 0xC210, symBinAddr: 0x10000CEE0, symSize: 0x30 }
  - { offsetInCU: 0x11D4B, offset: 0x11D4B, size: 0x8, addend: 0x0, symName: __ZNSt3__14pairIPPP8TreeNodeS4_EC2B8ue170006IRS4_S7_LPv0EEEOT_OT0_, symObjAddr: 0xC240, symBinAddr: 0x10000CF10, symSize: 0x110 }
  - { offsetInCU: 0x11DA8, offset: 0x11DA8, size: 0x8, addend: 0x0, symName: __ZNKSt3__15dequeIP8TreeNodeNS_9allocatorIS2_EEE23__annotate_poison_blockB8ue170006EPKvS7_, symObjAddr: 0xC350, symBinAddr: 0x10000D020, symSize: 0x40 }
  - { offsetInCU: 0x11DF5, offset: 0x11DF5, size: 0x8, addend: 0x0, symName: __ZNKSt3__16__lessIvvEclB8ue170006ImmEEbRKT_RKT0_, symObjAddr: 0xC500, symBinAddr: 0x10000D1D0, symSize: 0xA0 }
  - { offsetInCU: 0x11E48, offset: 0x11E48, size: 0x8, addend: 0x0, symName: __ZNSt3__117__compressed_pairIPPP8TreeNodeNS_9allocatorIS3_EEE6secondB8ue170006Ev, symObjAddr: 0xC5A0, symBinAddr: 0x10000D270, symSize: 0x20 }
  - { offsetInCU: 0x11E6D, offset: 0x11E6D, size: 0x8, addend: 0x0, symName: __ZNSt3__122__compressed_pair_elemINS_9allocatorIPP8TreeNodeEELi1ELb1EE5__getB8ue170006Ev, symObjAddr: 0xC5C0, symBinAddr: 0x10000D290, symSize: 0x10 }
  - { offsetInCU: 0x11E92, offset: 0x11E92, size: 0x8, addend: 0x0, symName: __ZNSt3__114__split_bufferIPP8TreeNodeRNS_9allocatorIS3_EEEC2EmmS6_, symObjAddr: 0xC5D0, symBinAddr: 0x10000D2A0, symSize: 0x4C0 }
  - { offsetInCU: 0x11F0D, offset: 0x11F0D, size: 0x8, addend: 0x0, symName: __ZNSt3__117__compressed_pairIPPP8TreeNodeRNS_9allocatorIS3_EEEC1B8ue170006IDnS7_EEOT_OT0_, symObjAddr: 0xCA90, symBinAddr: 0x10000D760, symSize: 0x30 }
  - { offsetInCU: 0x11F64, offset: 0x11F64, size: 0x8, addend: 0x0, symName: __ZNSt3__117__compressed_pairIPPP8TreeNodeRNS_9allocatorIS3_EEEC2B8ue170006IDnS7_EEOT_OT0_, symObjAddr: 0xCCD0, symBinAddr: 0x10000D9A0, symSize: 0x40 }
  - { offsetInCU: 0x11FBB, offset: 0x11FBB, size: 0x8, addend: 0x0, symName: __ZNSt3__122__compressed_pair_elemIRNS_9allocatorIPP8TreeNodeEELi1ELb0EEC2B8ue170006IS6_vEEOT_, symObjAddr: 0xCD10, symBinAddr: 0x10000D9E0, symSize: 0x60 }
  - { offsetInCU: 0x11FFC, offset: 0x11FFC, size: 0x8, addend: 0x0, symName: __ZNSt3__19allocatorIPP8TreeNodeE8allocateB8ue170006Em, symObjAddr: 0xCD70, symBinAddr: 0x10000DA40, symSize: 0x60 }
  - { offsetInCU: 0x12039, offset: 0x12039, size: 0x8, addend: 0x0, symName: __ZNSt3__116allocator_traitsINS_9allocatorIPP8TreeNodeEEE8max_sizeB8ue170006IS5_vEEmRKS5_, symObjAddr: 0xCDD0, symBinAddr: 0x10000DAA0, symSize: 0x20 }
  - { offsetInCU: 0x12067, offset: 0x12067, size: 0x8, addend: 0x0, symName: __ZNKSt3__19allocatorIPP8TreeNodeE8max_sizeB8ue170006Ev, symObjAddr: 0xCDF0, symBinAddr: 0x10000DAC0, symSize: 0x20 }
  - { offsetInCU: 0x1208C, offset: 0x1208C, size: 0x8, addend: 0x0, symName: __ZNSt3__122__allocator_destructorINS_9allocatorIP8TreeNodeEEEC2B8ue170006ERS4_m, symObjAddr: 0xCE10, symBinAddr: 0x10000DAE0, symSize: 0xA0 }
  - { offsetInCU: 0x120D1, offset: 0x120D1, size: 0x8, addend: 0x0, symName: __ZNSt3__110unique_ptrIPP8TreeNodeNS_22__allocator_destructorINS_9allocatorIS2_EEEEEC2B8ue170006ILb1EvEES3_NS_16__dependent_typeINS_27__unique_ptr_deleter_sfinaeIS7_EEXT_EE20__good_rval_ref_typeE, symObjAddr: 0xCEB0, symBinAddr: 0x10000DB80, symSize: 0x1A0 }
  - { offsetInCU: 0x12127, offset: 0x12127, size: 0x8, addend: 0x0, symName: __ZNSt3__117__compressed_pairIPP8TreeNodeNS_22__allocator_destructorINS_9allocatorIS2_EEEEEC1B8ue170006IRS3_S7_EEOT_OT0_, symObjAddr: 0xD050, symBinAddr: 0x10000DD20, symSize: 0x30 }
  - { offsetInCU: 0x1217E, offset: 0x1217E, size: 0x8, addend: 0x0, symName: __ZNSt3__117__compressed_pairIPP8TreeNodeNS_22__allocator_destructorINS_9allocatorIS2_EEEEEC2B8ue170006IRS3_S7_EEOT_OT0_, symObjAddr: 0xD080, symBinAddr: 0x10000DD50, symSize: 0x40 }
  - { offsetInCU: 0x121D5, offset: 0x121D5, size: 0x8, addend: 0x0, symName: __ZNSt3__122__compressed_pair_elemIPP8TreeNodeLi0ELb0EEC2B8ue170006IRS3_vEEOT_, symObjAddr: 0xD0C0, symBinAddr: 0x10000DD90, symSize: 0x90 }
  - { offsetInCU: 0x12216, offset: 0x12216, size: 0x8, addend: 0x0, symName: __ZNSt3__122__compressed_pair_elemINS_22__allocator_destructorINS_9allocatorIP8TreeNodeEEEELi1ELb0EEC2B8ue170006IS6_vEEOT_, symObjAddr: 0xD150, symBinAddr: 0x10000DE20, symSize: 0x30 }
  - { offsetInCU: 0x12257, offset: 0x12257, size: 0x8, addend: 0x0, symName: __ZNKSt3__117__compressed_pairIPP8TreeNodeNS_22__allocator_destructorINS_9allocatorIS2_EEEEE5firstB8ue170006Ev, symObjAddr: 0xD180, symBinAddr: 0x10000DE50, symSize: 0x20 }
  - { offsetInCU: 0x1227C, offset: 0x1227C, size: 0x8, addend: 0x0, symName: __ZNKSt3__122__compressed_pair_elemIPP8TreeNodeLi0ELb0EE5__getB8ue170006Ev, symObjAddr: 0xD1A0, symBinAddr: 0x10000DE70, symSize: 0x10 }
  - { offsetInCU: 0x122A1, offset: 0x122A1, size: 0x8, addend: 0x0, symName: __ZNSt3__117__compressed_pairIPP8TreeNodeNS_22__allocator_destructorINS_9allocatorIS2_EEEEE5firstB8ue170006Ev, symObjAddr: 0xD1B0, symBinAddr: 0x10000DE80, symSize: 0x20 }
  - { offsetInCU: 0x122C6, offset: 0x122C6, size: 0x8, addend: 0x0, symName: __ZNSt3__122__compressed_pair_elemIPP8TreeNodeLi0ELb0EE5__getB8ue170006Ev, symObjAddr: 0xD1D0, symBinAddr: 0x10000DEA0, symSize: 0x10 }
  - { offsetInCU: 0x122EB, offset: 0x122EB, size: 0x8, addend: 0x0, symName: __ZNSt3__117__compressed_pairIPPP8TreeNodeNS_9allocatorIS3_EEE5firstB8ue170006Ev, symObjAddr: 0xD1E0, symBinAddr: 0x10000DEB0, symSize: 0x20 }
  - { offsetInCU: 0x12310, offset: 0x12310, size: 0x8, addend: 0x0, symName: __ZNSt3__122__compressed_pair_elemIPPP8TreeNodeLi0ELb0EE5__getB8ue170006Ev, symObjAddr: 0xD200, symBinAddr: 0x10000DED0, symSize: 0x10 }
  - { offsetInCU: 0x12335, offset: 0x12335, size: 0x8, addend: 0x0, symName: __ZNSt3__117__compressed_pairIPPP8TreeNodeRNS_9allocatorIS3_EEE5firstB8ue170006Ev, symObjAddr: 0xD210, symBinAddr: 0x10000DEE0, symSize: 0x20 }
  - { offsetInCU: 0x1235A, offset: 0x1235A, size: 0x8, addend: 0x0, symName: __ZNSt3__110unique_ptrIPP8TreeNodeNS_22__allocator_destructorINS_9allocatorIS2_EEEEED2B8ue170006Ev, symObjAddr: 0xD230, symBinAddr: 0x10000DF00, symSize: 0x20 }
  - { offsetInCU: 0x12383, offset: 0x12383, size: 0x8, addend: 0x0, symName: __ZNSt3__110unique_ptrIPP8TreeNodeNS_22__allocator_destructorINS_9allocatorIS2_EEEEE5resetB8ue170006ES3_, symObjAddr: 0xD250, symBinAddr: 0x10000DF20, symSize: 0xC0 }
  - { offsetInCU: 0x123C6, offset: 0x123C6, size: 0x8, addend: 0x0, symName: __ZNSt3__117__compressed_pairIPP8TreeNodeNS_22__allocator_destructorINS_9allocatorIS2_EEEEE6secondB8ue170006Ev, symObjAddr: 0xD310, symBinAddr: 0x10000DFE0, symSize: 0x20 }
  - { offsetInCU: 0x123EB, offset: 0x123EB, size: 0x8, addend: 0x0, symName: __ZNSt3__122__allocator_destructorINS_9allocatorIP8TreeNodeEEEclB8ue170006EPS3_, symObjAddr: 0xD330, symBinAddr: 0x10000E000, symSize: 0xA0 }
  - { offsetInCU: 0x1241E, offset: 0x1241E, size: 0x8, addend: 0x0, symName: __ZNSt3__122__compressed_pair_elemINS_22__allocator_destructorINS_9allocatorIP8TreeNodeEEEELi1ELb0EE5__getB8ue170006Ev, symObjAddr: 0xD3D0, symBinAddr: 0x10000E0A0, symSize: 0x10 }
  - { offsetInCU: 0x12443, offset: 0x12443, size: 0x8, addend: 0x0, symName: __ZNSt3__116allocator_traitsINS_9allocatorIP8TreeNodeEEE10deallocateB8ue170006ERS4_PS3_m, symObjAddr: 0xD3E0, symBinAddr: 0x10000E0B0, symSize: 0x30 }
  - { offsetInCU: 0x12485, offset: 0x12485, size: 0x8, addend: 0x0, symName: __ZNSt3__19allocatorIP8TreeNodeE10deallocateB8ue170006EPS2_m, symObjAddr: 0xD410, symBinAddr: 0x10000E0E0, symSize: 0x50 }
  - { offsetInCU: 0x124C6, offset: 0x124C6, size: 0x8, addend: 0x0, symName: __ZNSt3__114__split_bufferIPP8TreeNodeRNS_9allocatorIS3_EEED2Ev, symObjAddr: 0xD4D0, symBinAddr: 0x10000E1A0, symSize: 0xD0 }
  - { offsetInCU: 0x124F1, offset: 0x124F1, size: 0x8, addend: 0x0, symName: __ZNSt3__114__split_bufferIPP8TreeNodeRNS_9allocatorIS3_EEE5clearB8ue170006Ev, symObjAddr: 0xD5A0, symBinAddr: 0x10000E270, symSize: 0x60 }
  - { offsetInCU: 0x12516, offset: 0x12516, size: 0x8, addend: 0x0, symName: __ZNSt3__116allocator_traitsINS_9allocatorIPP8TreeNodeEEE10deallocateB8ue170006ERS5_PS4_m, symObjAddr: 0xD600, symBinAddr: 0x10000E2D0, symSize: 0x30 }
  - { offsetInCU: 0x12558, offset: 0x12558, size: 0x8, addend: 0x0, symName: __ZNKSt3__114__split_bufferIPP8TreeNodeRNS_9allocatorIS3_EEE8capacityB8ue170006Ev, symObjAddr: 0xD630, symBinAddr: 0x10000E300, symSize: 0x90 }
  - { offsetInCU: 0x1257D, offset: 0x1257D, size: 0x8, addend: 0x0, symName: __ZNSt3__114__split_bufferIPP8TreeNodeRNS_9allocatorIS3_EEE17__destruct_at_endB8ue170006EPS3_, symObjAddr: 0xD6C0, symBinAddr: 0x10000E390, symSize: 0x30 }
  - { offsetInCU: 0x125AF, offset: 0x125AF, size: 0x8, addend: 0x0, symName: __ZNSt3__114__split_bufferIPP8TreeNodeRNS_9allocatorIS3_EEE17__destruct_at_endB8ue170006EPS3_NS_17integral_constantIbLb0EEE, symObjAddr: 0xD6F0, symBinAddr: 0x10000E3C0, symSize: 0xF0 }
  - { offsetInCU: 0x125EE, offset: 0x125EE, size: 0x8, addend: 0x0, symName: __ZNSt3__116allocator_traitsINS_9allocatorIPP8TreeNodeEEE7destroyB8ue170006IS4_vEEvRS5_PT_, symObjAddr: 0xD7E0, symBinAddr: 0x10000E4B0, symSize: 0x30 }
  - { offsetInCU: 0x1262B, offset: 0x1262B, size: 0x8, addend: 0x0, symName: __ZNSt3__19allocatorIPP8TreeNodeE7destroyB8ue170006EPS3_, symObjAddr: 0xD810, symBinAddr: 0x10000E4E0, symSize: 0x10 }
  - { offsetInCU: 0x1265E, offset: 0x1265E, size: 0x8, addend: 0x0, symName: __ZNSt3__19allocatorIPP8TreeNodeE10deallocateB8ue170006EPS3_m, symObjAddr: 0xD820, symBinAddr: 0x10000E4F0, symSize: 0x50 }
  - { offsetInCU: 0x1269F, offset: 0x1269F, size: 0x8, addend: 0x0, symName: __ZNKSt3__114__split_bufferIPP8TreeNodeRNS_9allocatorIS3_EEE9__end_capB8ue170006Ev, symObjAddr: 0xD870, symBinAddr: 0x10000E540, symSize: 0x20 }
  - { offsetInCU: 0x126C4, offset: 0x126C4, size: 0x8, addend: 0x0, symName: __ZNKSt3__117__compressed_pairIPPP8TreeNodeRNS_9allocatorIS3_EEE5firstB8ue170006Ev, symObjAddr: 0xD890, symBinAddr: 0x10000E560, symSize: 0x20 }
  - { offsetInCU: 0x126E9, offset: 0x126E9, size: 0x8, addend: 0x0, symName: __ZNSt3__19allocatorIP8TreeNodeE9constructB8ue170006IS2_JRKS2_EEEvPT_DpOT0_, symObjAddr: 0xD8B0, symBinAddr: 0x10000E580, symSize: 0x90 }
  - { offsetInCU: 0x1273E, offset: 0x1273E, size: 0x8, addend: 0x0, symName: __ZNKSt3__114__split_bufferIPP8TreeNodeNS_9allocatorIS3_EEE5emptyB8ue170006Ev, symObjAddr: 0xD940, symBinAddr: 0x10000E610, symSize: 0xA0 }
  - { offsetInCU: 0x12763, offset: 0x12763, size: 0x8, addend: 0x0, symName: __ZNSt3__116__deque_iteratorIP8TreeNodePS2_RS2_PS3_lLl512EEC1B8ue170006ES5_S3_, symObjAddr: 0xD9E0, symBinAddr: 0x10000E6B0, symSize: 0x30 }
  - { offsetInCU: 0x127AA, offset: 0x127AA, size: 0x8, addend: 0x0, symName: __ZNSt3__116__deque_iteratorIP8TreeNodePS2_RS2_PS3_lLl512EEC2B8ue170006ES5_S3_, symObjAddr: 0xDA10, symBinAddr: 0x10000E6E0, symSize: 0xA0 }
  - { offsetInCU: 0x127F1, offset: 0x127F1, size: 0x8, addend: 0x0, symName: __ZNSt3__117__compressed_pairImNS_9allocatorIP8TreeNodeEEE5firstB8ue170006Ev, symObjAddr: 0xDAB0, symBinAddr: 0x10000E780, symSize: 0x20 }
  - { offsetInCU: 0x12816, offset: 0x12816, size: 0x8, addend: 0x0, symName: __ZNSt3__122__compressed_pair_elemImLi0ELb0EE5__getB8ue170006Ev, symObjAddr: 0xDAD0, symBinAddr: 0x10000E7A0, symSize: 0x10 }
  - { offsetInCU: 0x1283B, offset: 0x1283B, size: 0x8, addend: 0x0, symName: __ZNKSt3__15dequeIP8TreeNodeNS_9allocatorIS2_EEE6__sizeB8ue170006Ev, symObjAddr: 0xDAE0, symBinAddr: 0x10000E7B0, symSize: 0x20 }
  - { offsetInCU: 0x12860, offset: 0x12860, size: 0x8, addend: 0x0, symName: __ZNKSt3__117__compressed_pairImNS_9allocatorIP8TreeNodeEEE5firstB8ue170006Ev, symObjAddr: 0xDB00, symBinAddr: 0x10000E7D0, symSize: 0x20 }
  - { offsetInCU: 0x12885, offset: 0x12885, size: 0x8, addend: 0x0, symName: __ZNKSt3__122__compressed_pair_elemImLi0ELb0EE5__getB8ue170006Ev, symObjAddr: 0xDB20, symBinAddr: 0x10000E7F0, symSize: 0x10 }
  - { offsetInCU: 0x128AA, offset: 0x128AA, size: 0x8, addend: 0x0, symName: __ZNSt3__116allocator_traitsINS_9allocatorIP8TreeNodeEEE7destroyB8ue170006IS3_vEEvRS4_PT_, symObjAddr: 0xDB30, symBinAddr: 0x10000E800, symSize: 0x30 }
  - { offsetInCU: 0x128E7, offset: 0x128E7, size: 0x8, addend: 0x0, symName: __ZNKSt3__15dequeIP8TreeNodeNS_9allocatorIS2_EEE23__annotate_shrink_frontB8ue170006Emm, symObjAddr: 0xDB60, symBinAddr: 0x10000E830, symSize: 0x70 }
  - { offsetInCU: 0x1292A, offset: 0x1292A, size: 0x8, addend: 0x0, symName: __ZNSt3__15dequeIP8TreeNodeNS_9allocatorIS2_EEE26__maybe_remove_front_spareB8ue170006Eb, symObjAddr: 0xDBD0, symBinAddr: 0x10000E8A0, symSize: 0x120 }
  - { offsetInCU: 0x1295E, offset: 0x1295E, size: 0x8, addend: 0x0, symName: __ZNSt3__19allocatorIP8TreeNodeE7destroyB8ue170006EPS2_, symObjAddr: 0xDCF0, symBinAddr: 0x10000E9C0, symSize: 0x10 }
  - { offsetInCU: 0x12991, offset: 0x12991, size: 0x8, addend: 0x0, symName: __ZNKSt3__15dequeIP8TreeNodeNS_9allocatorIS2_EEE20__front_spare_blocksB8ue170006Ev, symObjAddr: 0xDD00, symBinAddr: 0x10000E9D0, symSize: 0x20 }
  - { offsetInCU: 0x129B6, offset: 0x129B6, size: 0x8, addend: 0x0, symName: __ZNSt3__16vectorIiNS_9allocatorIiEEE9__end_capB8ue170006Ev, symObjAddr: 0xDD20, symBinAddr: 0x10000E9F0, symSize: 0x20 }
  - { offsetInCU: 0x129DB, offset: 0x129DB, size: 0x8, addend: 0x0, symName: __ZNSt3__16vectorIiNS_9allocatorIiEEE22__construct_one_at_endB8ue170006IJRKiEEEvDpOT_, symObjAddr: 0xDD40, symBinAddr: 0x10000EA10, symSize: 0x2C0 }
  - { offsetInCU: 0x12A2E, offset: 0x12A2E, size: 0x8, addend: 0x0, symName: __ZNSt3__16vectorIiNS_9allocatorIiEEE21__push_back_slow_pathIRKiEEvOT_, symObjAddr: 0xE000, symBinAddr: 0x10000ECD0, symSize: 0x330 }
  - { offsetInCU: 0x12A92, offset: 0x12A92, size: 0x8, addend: 0x0, symName: __ZNSt3__117__compressed_pairIPiNS_9allocatorIiEEE5firstB8ue170006Ev, symObjAddr: 0xE330, symBinAddr: 0x10000F000, symSize: 0x20 }
  - { offsetInCU: 0x12AB7, offset: 0x12AB7, size: 0x8, addend: 0x0, symName: __ZNSt3__122__compressed_pair_elemIPiLi0ELb0EE5__getB8ue170006Ev, symObjAddr: 0xE350, symBinAddr: 0x10000F020, symSize: 0x10 }
  - { offsetInCU: 0x12AF5, offset: 0x12AF5, size: 0x8, addend: 0x0, symName: __ZNSt3__16vectorIiNS_9allocatorIiEEE21_ConstructTransactionC1B8ue170006ERS3_m, symObjAddr: 0xE360, symBinAddr: 0x10000F030, symSize: 0x30 }
  - { offsetInCU: 0x12B3C, offset: 0x12B3C, size: 0x8, addend: 0x0, symName: __ZNSt3__116allocator_traitsINS_9allocatorIiEEE9constructB8ue170006IiJRKiEvEEvRS2_PT_DpOT0_, symObjAddr: 0xE390, symBinAddr: 0x10000F060, symSize: 0x30 }
  - { offsetInCU: 0x12B93, offset: 0x12B93, size: 0x8, addend: 0x0, symName: __ZNSt3__16vectorIiNS_9allocatorIiEEE7__allocB8ue170006Ev, symObjAddr: 0xE3C0, symBinAddr: 0x10000F090, symSize: 0x20 }
  - { offsetInCU: 0x12BB8, offset: 0x12BB8, size: 0x8, addend: 0x0, symName: __ZNSt3__16vectorIiNS_9allocatorIiEEE21_ConstructTransactionD1B8ue170006Ev, symObjAddr: 0xE3F0, symBinAddr: 0x10000F0C0, symSize: 0x20 }
  - { offsetInCU: 0x12BE1, offset: 0x12BE1, size: 0x8, addend: 0x0, symName: __ZNSt3__16vectorIiNS_9allocatorIiEEE21_ConstructTransactionC2B8ue170006ERS3_m, symObjAddr: 0xE410, symBinAddr: 0x10000F0E0, symSize: 0x1A0 }
  - { offsetInCU: 0x12C28, offset: 0x12C28, size: 0x8, addend: 0x0, symName: __ZNKSt3__16vectorIiNS_9allocatorIiEEE19__annotate_increaseB8ue170006Em, symObjAddr: 0xE5B0, symBinAddr: 0x10000F280, symSize: 0xD0 }
  - { offsetInCU: 0x12C5C, offset: 0x12C5C, size: 0x8, addend: 0x0, symName: __ZNKSt3__16vectorIiNS_9allocatorIiEEE31__annotate_contiguous_containerEPKvS5_S5_S5_, symObjAddr: 0xE680, symBinAddr: 0x10000F350, symSize: 0x50 }
  - { offsetInCU: 0x12CBD, offset: 0x12CBD, size: 0x8, addend: 0x0, symName: __ZNKSt3__16vectorIiNS_9allocatorIiEEE4dataB8ue170006Ev, symObjAddr: 0xE6D0, symBinAddr: 0x10000F3A0, symSize: 0x50 }
  - { offsetInCU: 0x12CE2, offset: 0x12CE2, size: 0x8, addend: 0x0, symName: __ZNKSt3__16vectorIiNS_9allocatorIiEEE8capacityB8ue170006Ev, symObjAddr: 0xE720, symBinAddr: 0x10000F3F0, symSize: 0x90 }
  - { offsetInCU: 0x12D07, offset: 0x12D07, size: 0x8, addend: 0x0, symName: __ZNKSt3__16vectorIiNS_9allocatorIiEEE4sizeB8ue170006Ev, symObjAddr: 0xE7B0, symBinAddr: 0x10000F480, symSize: 0x90 }
  - { offsetInCU: 0x12D2C, offset: 0x12D2C, size: 0x8, addend: 0x0, symName: __ZNKSt3__16vectorIiNS_9allocatorIiEEE9__end_capB8ue170006Ev, symObjAddr: 0xE840, symBinAddr: 0x10000F510, symSize: 0x20 }
  - { offsetInCU: 0x12D51, offset: 0x12D51, size: 0x8, addend: 0x0, symName: __ZNKSt3__117__compressed_pairIPiNS_9allocatorIiEEE5firstB8ue170006Ev, symObjAddr: 0xE860, symBinAddr: 0x10000F530, symSize: 0x20 }
  - { offsetInCU: 0x12D76, offset: 0x12D76, size: 0x8, addend: 0x0, symName: __ZNKSt3__122__compressed_pair_elemIPiLi0ELb0EE5__getB8ue170006Ev, symObjAddr: 0xE880, symBinAddr: 0x10000F550, symSize: 0x10 }
  - { offsetInCU: 0x12D9B, offset: 0x12D9B, size: 0x8, addend: 0x0, symName: __ZNSt3__19allocatorIiE9constructB8ue170006IiJRKiEEEvPT_DpOT0_, symObjAddr: 0xE890, symBinAddr: 0x10000F560, symSize: 0xC0 }
  - { offsetInCU: 0x12DF0, offset: 0x12DF0, size: 0x8, addend: 0x0, symName: __ZNSt3__117__compressed_pairIPiNS_9allocatorIiEEE6secondB8ue170006Ev, symObjAddr: 0xE950, symBinAddr: 0x10000F620, symSize: 0x20 }
  - { offsetInCU: 0x12E15, offset: 0x12E15, size: 0x8, addend: 0x0, symName: __ZNSt3__122__compressed_pair_elemINS_9allocatorIiEELi1ELb1EE5__getB8ue170006Ev, symObjAddr: 0xE970, symBinAddr: 0x10000F640, symSize: 0x10 }
  - { offsetInCU: 0x12E3A, offset: 0x12E3A, size: 0x8, addend: 0x0, symName: __ZNSt3__16vectorIiNS_9allocatorIiEEE21_ConstructTransactionD2B8ue170006Ev, symObjAddr: 0xE980, symBinAddr: 0x10000F650, symSize: 0x220 }
  - { offsetInCU: 0x12E63, offset: 0x12E63, size: 0x8, addend: 0x0, symName: __ZNKSt3__16vectorIiNS_9allocatorIiEEE17__annotate_shrinkB8ue170006Em, symObjAddr: 0xEBA0, symBinAddr: 0x10000F870, symSize: 0xB0 }
  - { offsetInCU: 0x12E96, offset: 0x12E96, size: 0x8, addend: 0x0, symName: __ZNKSt3__16vectorIiNS_9allocatorIiEEE11__recommendB8ue170006Em, symObjAddr: 0xEC50, symBinAddr: 0x10000F920, symSize: 0x2F0 }
  - { offsetInCU: 0x12EF1, offset: 0x12EF1, size: 0x8, addend: 0x0, symName: __ZNSt3__114__split_bufferIiRNS_9allocatorIiEEEC1EmmS3_, symObjAddr: 0xEF40, symBinAddr: 0x10000FC10, symSize: 0x40 }
  - { offsetInCU: 0x12F46, offset: 0x12F46, size: 0x8, addend: 0x0, symName: __ZNSt3__114__split_bufferIiRNS_9allocatorIiEEED1Ev, symObjAddr: 0xF640, symBinAddr: 0x100010310, symSize: 0x20 }
  - { offsetInCU: 0x12F70, offset: 0x12F70, size: 0x8, addend: 0x0, symName: __ZNKSt3__16vectorIiNS_9allocatorIiEEE8max_sizeEv, symObjAddr: 0xF660, symBinAddr: 0x100010330, symSize: 0x260 }
  - { offsetInCU: 0x12F98, offset: 0x12F98, size: 0x8, addend: 0x0, symName: __ZNKSt3__16vectorIiNS_9allocatorIiEEE20__throw_length_errorB8ue170006Ev, symObjAddr: 0xF8C0, symBinAddr: 0x100010590, symSize: 0x20 }
  - { offsetInCU: 0x12FC7, offset: 0x12FC7, size: 0x8, addend: 0x0, symName: __ZNSt3__116allocator_traitsINS_9allocatorIiEEE8max_sizeB8ue170006IS2_vEEmRKS2_, symObjAddr: 0xF910, symBinAddr: 0x1000105E0, symSize: 0x20 }
  - { offsetInCU: 0x12FF5, offset: 0x12FF5, size: 0x8, addend: 0x0, symName: __ZNKSt3__16vectorIiNS_9allocatorIiEEE7__allocB8ue170006Ev, symObjAddr: 0xF930, symBinAddr: 0x100010600, symSize: 0x20 }
  - { offsetInCU: 0x1301A, offset: 0x1301A, size: 0x8, addend: 0x0, symName: __ZNSt3__114numeric_limitsIlE3maxB8ue170006Ev, symObjAddr: 0xF950, symBinAddr: 0x100010620, symSize: 0x10 }
  - { offsetInCU: 0x1302E, offset: 0x1302E, size: 0x8, addend: 0x0, symName: __ZNKSt3__19allocatorIiE8max_sizeB8ue170006Ev, symObjAddr: 0xFAD0, symBinAddr: 0x1000107A0, symSize: 0x20 }
  - { offsetInCU: 0x13053, offset: 0x13053, size: 0x8, addend: 0x0, symName: __ZNKSt3__117__compressed_pairIPiNS_9allocatorIiEEE6secondB8ue170006Ev, symObjAddr: 0xFAF0, symBinAddr: 0x1000107C0, symSize: 0x20 }
  - { offsetInCU: 0x13078, offset: 0x13078, size: 0x8, addend: 0x0, symName: __ZNKSt3__122__compressed_pair_elemINS_9allocatorIiEELi1ELb1EE5__getB8ue170006Ev, symObjAddr: 0xFB10, symBinAddr: 0x1000107E0, symSize: 0x10 }
  - { offsetInCU: 0x1309D, offset: 0x1309D, size: 0x8, addend: 0x0, symName: __ZNSt3__123__libcpp_numeric_limitsIlLb1EE3maxB8ue170006Ev, symObjAddr: 0xFB20, symBinAddr: 0x1000107F0, symSize: 0x10 }
  - { offsetInCU: 0x130B1, offset: 0x130B1, size: 0x8, addend: 0x0, symName: __ZNSt12length_errorC1B8ue170006EPKc, symObjAddr: 0xFBA0, symBinAddr: 0x100010870, symSize: 0x30 }
  - { offsetInCU: 0x130E8, offset: 0x130E8, size: 0x8, addend: 0x0, symName: __ZNSt12length_errorC2B8ue170006EPKc, symObjAddr: 0xFBD0, symBinAddr: 0x1000108A0, symSize: 0x70 }
  - { offsetInCU: 0x1311F, offset: 0x1311F, size: 0x8, addend: 0x0, symName: __ZNSt3__114__split_bufferIiRNS_9allocatorIiEEEC2EmmS3_, symObjAddr: 0xFC40, symBinAddr: 0x100010910, symSize: 0x4C0 }
  - { offsetInCU: 0x1319A, offset: 0x1319A, size: 0x8, addend: 0x0, symName: __ZNSt3__117__compressed_pairIPiRNS_9allocatorIiEEEC1B8ue170006IDnS4_EEOT_OT0_, symObjAddr: 0x10100, symBinAddr: 0x100010DD0, symSize: 0x30 }
  - { offsetInCU: 0x131F1, offset: 0x131F1, size: 0x8, addend: 0x0, symName: __ZNSt3__114__split_bufferIiRNS_9allocatorIiEEE7__allocB8ue170006Ev, symObjAddr: 0x10340, symBinAddr: 0x100011010, symSize: 0x20 }
  - { offsetInCU: 0x13216, offset: 0x13216, size: 0x8, addend: 0x0, symName: __ZNSt3__114__split_bufferIiRNS_9allocatorIiEEE9__end_capB8ue170006Ev, symObjAddr: 0x10360, symBinAddr: 0x100011030, symSize: 0x20 }
  - { offsetInCU: 0x1323B, offset: 0x1323B, size: 0x8, addend: 0x0, symName: __ZNSt3__117__compressed_pairIPiRNS_9allocatorIiEEEC2B8ue170006IDnS4_EEOT_OT0_, symObjAddr: 0x10380, symBinAddr: 0x100011050, symSize: 0x40 }
  - { offsetInCU: 0x13292, offset: 0x13292, size: 0x8, addend: 0x0, symName: __ZNSt3__122__compressed_pair_elemIPiLi0ELb0EEC2B8ue170006IDnvEEOT_, symObjAddr: 0x103C0, symBinAddr: 0x100011090, symSize: 0x50 }
  - { offsetInCU: 0x132D3, offset: 0x132D3, size: 0x8, addend: 0x0, symName: __ZNSt3__122__compressed_pair_elemIRNS_9allocatorIiEELi1ELb0EEC2B8ue170006IS3_vEEOT_, symObjAddr: 0x10410, symBinAddr: 0x1000110E0, symSize: 0x60 }
  - { offsetInCU: 0x13314, offset: 0x13314, size: 0x8, addend: 0x0, symName: __ZNSt3__19allocatorIiE8allocateB8ue170006Em, symObjAddr: 0x10470, symBinAddr: 0x100011140, symSize: 0x60 }
  - { offsetInCU: 0x13347, offset: 0x13347, size: 0x8, addend: 0x0, symName: __ZNSt3__117__compressed_pairIPiRNS_9allocatorIiEEE6secondB8ue170006Ev, symObjAddr: 0x104D0, symBinAddr: 0x1000111A0, symSize: 0x20 }
  - { offsetInCU: 0x1336C, offset: 0x1336C, size: 0x8, addend: 0x0, symName: __ZNSt3__122__compressed_pair_elemIRNS_9allocatorIiEELi1ELb0EE5__getB8ue170006Ev, symObjAddr: 0x104F0, symBinAddr: 0x1000111C0, symSize: 0x50 }
  - { offsetInCU: 0x13391, offset: 0x13391, size: 0x8, addend: 0x0, symName: __ZNSt3__117__compressed_pairIPiRNS_9allocatorIiEEE5firstB8ue170006Ev, symObjAddr: 0x10540, symBinAddr: 0x100011210, symSize: 0x20 }
  - { offsetInCU: 0x133B6, offset: 0x133B6, size: 0x8, addend: 0x0, symName: __ZNKSt3__16vectorIiNS_9allocatorIiEEE17__annotate_deleteB8ue170006Ev, symObjAddr: 0x10560, symBinAddr: 0x100011230, symSize: 0xC0 }
  - { offsetInCU: 0x133DB, offset: 0x133DB, size: 0x8, addend: 0x0, symName: __ZNSt3__116reverse_iteratorIPiEC1B8ue170006ES1_, symObjAddr: 0x10C30, symBinAddr: 0x100011900, symSize: 0x30 }
  - { offsetInCU: 0x13412, offset: 0x13412, size: 0x8, addend: 0x0, symName: __ZNKSt3__116reverse_iteratorIPiE4baseB8ue170006Ev, symObjAddr: 0x10C60, symBinAddr: 0x100011930, symSize: 0x50 }
  - { offsetInCU: 0x13437, offset: 0x13437, size: 0x8, addend: 0x0, symName: __ZNKSt3__16vectorIiNS_9allocatorIiEEE14__annotate_newB8ue170006Em, symObjAddr: 0x10DB0, symBinAddr: 0x100011A80, symSize: 0xB0 }
  - { offsetInCU: 0x1348E, offset: 0x1348E, size: 0x8, addend: 0x0, symName: __ZNKSt3__111__move_loopINS_17_ClassicAlgPolicyEEclB8ue170006INS_16reverse_iteratorIPiEES6_S6_EENS_4pairIT_T1_EES8_T0_S9_, symObjAddr: 0x13230, symBinAddr: 0x100013F00, symSize: 0x3C0 }
  - { offsetInCU: 0x13505, offset: 0x13505, size: 0x8, addend: 0x0, symName: __ZNSt3__18_IterOpsINS_17_ClassicAlgPolicyEE11__iter_moveB8ue170006IRNS_16reverse_iteratorIPiEEEENS_9enable_ifIXsr12is_referenceIDTdeclsr3stdE7declvalIRT_EEEEE5valueEDTclsr3stdE4movedeclsr3stdE7declvalISA_EEEEE4typeEOS9_, symObjAddr: 0x14370, symBinAddr: 0x100015040, symSize: 0x20 }
  - { offsetInCU: 0x13531, offset: 0x13531, size: 0x8, addend: 0x0, symName: __ZNKSt3__116reverse_iteratorIPiEdeB8ue170006Ev, symObjAddr: 0x14390, symBinAddr: 0x100015060, symSize: 0x60 }
  - { offsetInCU: 0x13564, offset: 0x13564, size: 0x8, addend: 0x0, symName: __ZNSt3__116reverse_iteratorIPiEppB8ue170006Ev, symObjAddr: 0x143F0, symBinAddr: 0x1000150C0, symSize: 0x60 }
  - { offsetInCU: 0x13589, offset: 0x13589, size: 0x8, addend: 0x0, symName: __ZNSt3__18_IterOpsINS_17_ClassicAlgPolicyEE25__validate_iter_referenceB8ue170006IRNS_16reverse_iteratorIPiEEEEvv, symObjAddr: 0x14450, symBinAddr: 0x100015120, symSize: 0x10 }
  - { offsetInCU: 0x135A7, offset: 0x135A7, size: 0x8, addend: 0x0, symName: __ZNSt3__118__unwrap_iter_implINS_16reverse_iteratorIPiEELb0EE8__unwrapB8ue170006ES3_, symObjAddr: 0x14460, symBinAddr: 0x100015130, symSize: 0x220 }
  - { offsetInCU: 0x135D3, offset: 0x135D3, size: 0x8, addend: 0x0, symName: __ZNSt3__14pairINS_16reverse_iteratorIPiEES3_EC1B8ue170006IS3_S3_LPv0EEEOT_OT0_, symObjAddr: 0x14680, symBinAddr: 0x100015350, symSize: 0x30 }
  - { offsetInCU: 0x13630, offset: 0x13630, size: 0x8, addend: 0x0, symName: __ZNSt3__14pairINS_16reverse_iteratorIPiEES3_EC2B8ue170006IS3_S3_LPv0EEEOT_OT0_, symObjAddr: 0x146B0, symBinAddr: 0x100015380, symSize: 0x50 }
  - { offsetInCU: 0x1368D, offset: 0x1368D, size: 0x8, addend: 0x0, symName: __ZNSt3__118__unwrap_iter_implINS_16reverse_iteratorIPiEELb0EE8__rewrapB8ue170006ES3_S3_, symObjAddr: 0x14700, symBinAddr: 0x1000153D0, symSize: 0x2D0 }
  - { offsetInCU: 0x136C2, offset: 0x136C2, size: 0x8, addend: 0x0, symName: __ZNSt3__116reverse_iteratorIPiEC2B8ue170006ES1_, symObjAddr: 0x149D0, symBinAddr: 0x1000156A0, symSize: 0xA0 }
  - { offsetInCU: 0x136F9, offset: 0x136F9, size: 0x8, addend: 0x0, symName: __ZNSt3__114__split_bufferIiRNS_9allocatorIiEEED2Ev, symObjAddr: 0x14A70, symBinAddr: 0x100015740, symSize: 0xD0 }
  - { offsetInCU: 0x13724, offset: 0x13724, size: 0x8, addend: 0x0, symName: __ZNSt3__114__split_bufferIiRNS_9allocatorIiEEE5clearB8ue170006Ev, symObjAddr: 0x14B40, symBinAddr: 0x100015810, symSize: 0x60 }
  - { offsetInCU: 0x13749, offset: 0x13749, size: 0x8, addend: 0x0, symName: __ZNSt3__116allocator_traitsINS_9allocatorIiEEE10deallocateB8ue170006ERS2_Pim, symObjAddr: 0x14BA0, symBinAddr: 0x100015870, symSize: 0x30 }
  - { offsetInCU: 0x1378B, offset: 0x1378B, size: 0x8, addend: 0x0, symName: __ZNKSt3__114__split_bufferIiRNS_9allocatorIiEEE8capacityB8ue170006Ev, symObjAddr: 0x14BD0, symBinAddr: 0x1000158A0, symSize: 0x90 }
  - { offsetInCU: 0x137B0, offset: 0x137B0, size: 0x8, addend: 0x0, symName: __ZNSt3__114__split_bufferIiRNS_9allocatorIiEEE17__destruct_at_endB8ue170006EPi, symObjAddr: 0x14C60, symBinAddr: 0x100015930, symSize: 0x30 }
  - { offsetInCU: 0x137E2, offset: 0x137E2, size: 0x8, addend: 0x0, symName: __ZNSt3__114__split_bufferIiRNS_9allocatorIiEEE17__destruct_at_endB8ue170006EPiNS_17integral_constantIbLb0EEE, symObjAddr: 0x14C90, symBinAddr: 0x100015960, symSize: 0xF0 }
  - { offsetInCU: 0x13821, offset: 0x13821, size: 0x8, addend: 0x0, symName: __ZNSt3__116allocator_traitsINS_9allocatorIiEEE7destroyB8ue170006IivEEvRS2_PT_, symObjAddr: 0x14D80, symBinAddr: 0x100015A50, symSize: 0x30 }
  - { offsetInCU: 0x1385E, offset: 0x1385E, size: 0x8, addend: 0x0, symName: __ZNSt3__19allocatorIiE7destroyB8ue170006EPi, symObjAddr: 0x14DB0, symBinAddr: 0x100015A80, symSize: 0x10 }
  - { offsetInCU: 0x13891, offset: 0x13891, size: 0x8, addend: 0x0, symName: __ZNSt3__19allocatorIiE10deallocateB8ue170006EPim, symObjAddr: 0x14DC0, symBinAddr: 0x100015A90, symSize: 0x50 }
  - { offsetInCU: 0x138D2, offset: 0x138D2, size: 0x8, addend: 0x0, symName: __ZNKSt3__114__split_bufferIiRNS_9allocatorIiEEE9__end_capB8ue170006Ev, symObjAddr: 0x14E10, symBinAddr: 0x100015AE0, symSize: 0x20 }
  - { offsetInCU: 0x138F7, offset: 0x138F7, size: 0x8, addend: 0x0, symName: __ZNKSt3__117__compressed_pairIPiRNS_9allocatorIiEEE5firstB8ue170006Ev, symObjAddr: 0x14E30, symBinAddr: 0x100015B00, symSize: 0x20 }
  - { offsetInCU: 0x1391C, offset: 0x1391C, size: 0x8, addend: 0x0, symName: __ZNSt3__15dequeIP8TreeNodeNS_9allocatorIS2_EEED2B8ue170006Ev, symObjAddr: 0x14E50, symBinAddr: 0x100015B20, symSize: 0xC0 }
  - { offsetInCU: 0x13971, offset: 0x13971, size: 0x8, addend: 0x0, symName: __ZNSt3__15dequeIP8TreeNodeNS_9allocatorIS2_EEE5clearEv, symObjAddr: 0x14F10, symBinAddr: 0x100015BE0, symSize: 0x520 }
  - { offsetInCU: 0x139D5, offset: 0x139D5, size: 0x8, addend: 0x0, symName: __ZNKSt3__15dequeIP8TreeNodeNS_9allocatorIS2_EEE17__annotate_deleteB8ue170006Ev, symObjAddr: 0x15430, symBinAddr: 0x100016100, symSize: 0x150 }
  - { offsetInCU: 0x13A18, offset: 0x13A18, size: 0x8, addend: 0x0, symName: __ZNSt3__114__split_bufferIPP8TreeNodeNS_9allocatorIS3_EEED1Ev, symObjAddr: 0x15580, symBinAddr: 0x100016250, symSize: 0x20 }
  - { offsetInCU: 0x13A43, offset: 0x13A43, size: 0x8, addend: 0x0, symName: __ZNSt3__15dequeIP8TreeNodeNS_9allocatorIS2_EEE5beginB8ue170006Ev, symObjAddr: 0x155A0, symBinAddr: 0x100016270, symSize: 0x2C0 }
  - { offsetInCU: 0x13A79, offset: 0x13A79, size: 0x8, addend: 0x0, symName: __ZNSt3__116__deque_iteratorIP8TreeNodePS2_RS2_PS3_lLl512EEppB8ue170006Ev, symObjAddr: 0x15890, symBinAddr: 0x100016560, symSize: 0x1B0 }
  - { offsetInCU: 0x13A9E, offset: 0x13A9E, size: 0x8, addend: 0x0, symName: __ZNSt3__114__split_bufferIPP8TreeNodeNS_9allocatorIS3_EEED2Ev, symObjAddr: 0x15AE0, symBinAddr: 0x1000167B0, symSize: 0xB0 }
  - { offsetInCU: 0x13AC9, offset: 0x13AC9, size: 0x8, addend: 0x0, symName: __ZNSt3__114__split_bufferIPP8TreeNodeNS_9allocatorIS3_EEE5clearB8ue170006Ev, symObjAddr: 0x15B90, symBinAddr: 0x100016860, symSize: 0x60 }
  - { offsetInCU: 0x13AEE, offset: 0x13AEE, size: 0x8, addend: 0x0, symName: __ZNSt3__114__split_bufferIPP8TreeNodeNS_9allocatorIS3_EEE17__destruct_at_endB8ue170006EPS3_, symObjAddr: 0x15BF0, symBinAddr: 0x1000168C0, symSize: 0x30 }
  - { offsetInCU: 0x13B20, offset: 0x13B20, size: 0x8, addend: 0x0, symName: __ZNSt3__114__split_bufferIPP8TreeNodeNS_9allocatorIS3_EEE17__destruct_at_endB8ue170006EPS3_NS_17integral_constantIbLb0EEE, symObjAddr: 0x15C20, symBinAddr: 0x1000168F0, symSize: 0xF0 }
  - { offsetInCU: 0x13B5E, offset: 0x13B5E, size: 0x8, addend: 0x0, symName: __ZNSt3__16vectorIiNS_9allocatorIiEEE5beginB8ue170006Ev, symObjAddr: 0x15D10, symBinAddr: 0x1000169E0, symSize: 0x1E0 }
  - { offsetInCU: 0x13B85, offset: 0x13B85, size: 0x8, addend: 0x0, symName: __ZNSt3__16vectorIiNS_9allocatorIiEEE3endB8ue170006Ev, symObjAddr: 0x15EF0, symBinAddr: 0x100016BC0, symSize: 0x1F0 }
  - { offsetInCU: 0x13BAD, offset: 0x13BAD, size: 0x8, addend: 0x0, symName: __ZNKSt3__111__wrap_iterIPiEdeB8ue170006Ev, symObjAddr: 0x16110, symBinAddr: 0x100016DE0, symSize: 0x50 }
  - { offsetInCU: 0x13BD2, offset: 0x13BD2, size: 0x8, addend: 0x0, symName: __ZNSt3__111__wrap_iterIPiEppB8ue170006Ev, symObjAddr: 0x161A0, symBinAddr: 0x100016E70, symSize: 0x50 }
  - { offsetInCU: 0x13BF7, offset: 0x13BF7, size: 0x8, addend: 0x0, symName: __ZNSt3__16vectorIiNS_9allocatorIiEEE11__make_iterB8ue170006EPi, symObjAddr: 0x161F0, symBinAddr: 0x100016EC0, symSize: 0x180 }
  - { offsetInCU: 0x13C2D, offset: 0x13C2D, size: 0x8, addend: 0x0, symName: __ZNSt3__111__wrap_iterIPiEC1B8ue170006ES1_, symObjAddr: 0x16370, symBinAddr: 0x100017040, symSize: 0x30 }
  - { offsetInCU: 0x13C64, offset: 0x13C64, size: 0x8, addend: 0x0, symName: __ZNSt3__111__wrap_iterIPiEC2B8ue170006ES1_, symObjAddr: 0x163A0, symBinAddr: 0x100017070, symSize: 0x60 }
  - { offsetInCU: 0x13C9B, offset: 0x13C9B, size: 0x8, addend: 0x0, symName: __ZNKSt3__111__wrap_iterIPiE4baseB8ue170006Ev, symObjAddr: 0x16440, symBinAddr: 0x100017110, symSize: 0x50 }
  - { offsetInCU: 0x13CC0, offset: 0x13CC0, size: 0x8, addend: 0x0, symName: __ZNSt3__111char_traitsIcE6lengthB8ue170006EPKc, symObjAddr: 0x16BE0, symBinAddr: 0x1000178B0, symSize: 0x40 }
  - { offsetInCU: 0x13D01, offset: 0x13D01, size: 0x8, addend: 0x0, symName: __ZNKSt3__113basic_ostreamIcNS_11char_traitsIcEEE6sentrycvbB8ue170006Ev, symObjAddr: 0x16C20, symBinAddr: 0x1000178F0, symSize: 0x70 }
  - { offsetInCU: 0x13D26, offset: 0x13D26, size: 0x8, addend: 0x0, symName: __ZNSt3__119ostreambuf_iteratorIcNS_11char_traitsIcEEEC1B8ue170006ERNS_13basic_ostreamIcS2_EE, symObjAddr: 0x17370, symBinAddr: 0x100018040, symSize: 0x30 }
  - { offsetInCU: 0x13D5C, offset: 0x13D5C, size: 0x8, addend: 0x0, symName: __ZNKSt3__18ios_base5flagsB8ue170006Ev, symObjAddr: 0x173A0, symBinAddr: 0x100018070, symSize: 0x70 }
  - { offsetInCU: 0x13D82, offset: 0x13D82, size: 0x8, addend: 0x0, symName: __ZNKSt3__19basic_iosIcNS_11char_traitsIcEEE4fillB8ue170006Ev, symObjAddr: 0x17410, symBinAddr: 0x1000180E0, symSize: 0x160 }
  - { offsetInCU: 0x13DA9, offset: 0x13DA9, size: 0x8, addend: 0x0, symName: __ZNKSt3__119ostreambuf_iteratorIcNS_11char_traitsIcEEE6failedB8ue170006Ev, symObjAddr: 0x17570, symBinAddr: 0x100018240, symSize: 0x50 }
  - { offsetInCU: 0x13DCE, offset: 0x13DCE, size: 0x8, addend: 0x0, symName: __ZNSt3__19basic_iosIcNS_11char_traitsIcEEE8setstateB8ue170006Ej, symObjAddr: 0x175C0, symBinAddr: 0x100018290, symSize: 0x30 }
  - { offsetInCU: 0x13E01, offset: 0x13E01, size: 0x8, addend: 0x0, symName: __ZNKSt3__18ios_base5widthB8ue170006Ev, symObjAddr: 0x175F0, symBinAddr: 0x1000182C0, symSize: 0x50 }
  - { offsetInCU: 0x13E28, offset: 0x13E28, size: 0x8, addend: 0x0, symName: __ZNSt3__115basic_streambufIcNS_11char_traitsIcEEE5sputnB8ue170006EPKcl, symObjAddr: 0x17640, symBinAddr: 0x100018310, symSize: 0xA0 }
  - { offsetInCU: 0x13E69, offset: 0x13E69, size: 0x8, addend: 0x0, symName: __ZNSt3__112basic_stringIcNS_11char_traitsIcEENS_9allocatorIcEEEC1B8ue170006Emc, symObjAddr: 0x176E0, symBinAddr: 0x1000183B0, symSize: 0x30 }
  - { offsetInCU: 0x13EB0, offset: 0x13EB0, size: 0x8, addend: 0x0, symName: __ZNKSt3__112basic_stringIcNS_11char_traitsIcEENS_9allocatorIcEEE4dataB8ue170006Ev, symObjAddr: 0x17710, symBinAddr: 0x1000183E0, symSize: 0x30 }
  - { offsetInCU: 0x13ED4, offset: 0x13ED4, size: 0x8, addend: 0x0, symName: __ZNSt3__18ios_base5widthB8ue170006El, symObjAddr: 0x17740, symBinAddr: 0x100018410, symSize: 0xA0 }
  - { offsetInCU: 0x13F19, offset: 0x13F19, size: 0x8, addend: 0x0, symName: __ZNSt3__112basic_stringIcNS_11char_traitsIcEENS_9allocatorIcEEEC2B8ue170006Emc, symObjAddr: 0x177E0, symBinAddr: 0x1000184B0, symSize: 0x170 }
  - { offsetInCU: 0x13F63, offset: 0x13F63, size: 0x8, addend: 0x0, symName: __ZNSt3__117__compressed_pairINS_12basic_stringIcNS_11char_traitsIcEENS_9allocatorIcEEE5__repES5_EC1B8ue170006INS_18__default_init_tagESA_EEOT_OT0_, symObjAddr: 0x17950, symBinAddr: 0x100018620, symSize: 0x30 }
  - { offsetInCU: 0x13FBA, offset: 0x13FBA, size: 0x8, addend: 0x0, symName: __ZNSt3__117__compressed_pairINS_12basic_stringIcNS_11char_traitsIcEENS_9allocatorIcEEE5__repES5_EC2B8ue170006INS_18__default_init_tagESA_EEOT_OT0_, symObjAddr: 0x17980, symBinAddr: 0x100018650, symSize: 0x30 }
  - { offsetInCU: 0x14011, offset: 0x14011, size: 0x8, addend: 0x0, symName: __ZNSt3__122__compressed_pair_elemINS_12basic_stringIcNS_11char_traitsIcEENS_9allocatorIcEEE5__repELi0ELb0EEC2B8ue170006ENS_18__default_init_tagE, symObjAddr: 0x179B0, symBinAddr: 0x100018680, symSize: 0x10 }
  - { offsetInCU: 0x14044, offset: 0x14044, size: 0x8, addend: 0x0, symName: __ZNSt3__122__compressed_pair_elemINS_9allocatorIcEELi1ELb1EEC2B8ue170006ENS_18__default_init_tagE, symObjAddr: 0x179C0, symBinAddr: 0x100018690, symSize: 0x20 }
  - { offsetInCU: 0x14077, offset: 0x14077, size: 0x8, addend: 0x0, symName: __ZNSt3__19allocatorIcEC2B8ue170006Ev, symObjAddr: 0x179E0, symBinAddr: 0x1000186B0, symSize: 0x20 }
  - { offsetInCU: 0x140A0, offset: 0x140A0, size: 0x8, addend: 0x0, symName: __ZNSt3__116__non_trivial_ifILb1ENS_9allocatorIcEEEC2B8ue170006Ev, symObjAddr: 0x17A00, symBinAddr: 0x1000186D0, symSize: 0x10 }
  - { offsetInCU: 0x140C9, offset: 0x140C9, size: 0x8, addend: 0x0, symName: __ZNKSt3__112basic_stringIcNS_11char_traitsIcEENS_9allocatorIcEEE13__get_pointerB8ue170006Ev, symObjAddr: 0x17A20, symBinAddr: 0x1000186F0, symSize: 0x50 }
  - { offsetInCU: 0x140EE, offset: 0x140EE, size: 0x8, addend: 0x0, symName: __ZNKSt3__112basic_stringIcNS_11char_traitsIcEENS_9allocatorIcEEE9__is_longB8ue170006Ev, symObjAddr: 0x17A70, symBinAddr: 0x100018740, symSize: 0x70 }
  - { offsetInCU: 0x14113, offset: 0x14113, size: 0x8, addend: 0x0, symName: __ZNKSt3__112basic_stringIcNS_11char_traitsIcEENS_9allocatorIcEEE18__get_long_pointerB8ue170006Ev, symObjAddr: 0x17AE0, symBinAddr: 0x1000187B0, symSize: 0x50 }
  - { offsetInCU: 0x14138, offset: 0x14138, size: 0x8, addend: 0x0, symName: __ZNKSt3__112basic_stringIcNS_11char_traitsIcEENS_9allocatorIcEEE19__get_short_pointerB8ue170006Ev, symObjAddr: 0x17B30, symBinAddr: 0x100018800, symSize: 0x30 }
  - { offsetInCU: 0x1415D, offset: 0x1415D, size: 0x8, addend: 0x0, symName: __ZNKSt3__117__compressed_pairINS_12basic_stringIcNS_11char_traitsIcEENS_9allocatorIcEEE5__repES5_E5firstB8ue170006Ev, symObjAddr: 0x17B60, symBinAddr: 0x100018830, symSize: 0x20 }
  - { offsetInCU: 0x14182, offset: 0x14182, size: 0x8, addend: 0x0, symName: __ZNKSt3__122__compressed_pair_elemINS_12basic_stringIcNS_11char_traitsIcEENS_9allocatorIcEEE5__repELi0ELb0EE5__getB8ue170006Ev, symObjAddr: 0x17B80, symBinAddr: 0x100018850, symSize: 0x10 }
  - { offsetInCU: 0x141A7, offset: 0x141A7, size: 0x8, addend: 0x0, symName: __ZNSt3__114pointer_traitsIPKcE10pointer_toB8ue170006ERS1_, symObjAddr: 0x17B90, symBinAddr: 0x100018860, symSize: 0x10 }
  - { offsetInCU: 0x141CA, offset: 0x141CA, size: 0x8, addend: 0x0, symName: __ZNSt3__119ostreambuf_iteratorIcNS_11char_traitsIcEEEC2B8ue170006ERNS_13basic_ostreamIcS2_EE, symObjAddr: 0x17BA0, symBinAddr: 0x100018870, symSize: 0xF0 }
  - { offsetInCU: 0x14200, offset: 0x14200, size: 0x8, addend: 0x0, symName: __ZNKSt3__19basic_iosIcNS_11char_traitsIcEEE5rdbufB8ue170006Ev, symObjAddr: 0x17C90, symBinAddr: 0x100018960, symSize: 0x20 }
  - { offsetInCU: 0x14227, offset: 0x14227, size: 0x8, addend: 0x0, symName: __ZNKSt3__18ios_base5rdbufB8ue170006Ev, symObjAddr: 0x17CB0, symBinAddr: 0x100018980, symSize: 0x50 }
  - { offsetInCU: 0x1424C, offset: 0x1424C, size: 0x8, addend: 0x0, symName: __ZNSt3__111char_traitsIcE11eq_int_typeB8ue170006Eii, symObjAddr: 0x17D00, symBinAddr: 0x1000189D0, symSize: 0x20 }
  - { offsetInCU: 0x1427F, offset: 0x1427F, size: 0x8, addend: 0x0, symName: __ZNSt3__111char_traitsIcE3eofB8ue170006Ev, symObjAddr: 0x17D20, symBinAddr: 0x1000189F0, symSize: 0x10 }
  - { offsetInCU: 0x14292, offset: 0x14292, size: 0x8, addend: 0x0, symName: __ZNKSt3__19basic_iosIcNS_11char_traitsIcEEE5widenB8ue170006Ec, symObjAddr: 0x17D30, symBinAddr: 0x100018A00, symSize: 0x200 }
  - { offsetInCU: 0x142FC, offset: 0x142FC, size: 0x8, addend: 0x0, symName: __ZNKSt3__15ctypeIcE5widenB8ue170006Ec, symObjAddr: 0x17F60, symBinAddr: 0x100018C30, symSize: 0xA0 }
  - { offsetInCU: 0x1432F, offset: 0x1432F, size: 0x8, addend: 0x0, symName: __ZNSt3__18ios_base8setstateB8ue170006Ej, symObjAddr: 0x18000, symBinAddr: 0x100018CD0, symSize: 0x80 }
  - { offsetInCU: 0x14365, offset: 0x14365, size: 0x8, addend: 0x0, symName: __ZNSt3__16vectorIiNS_9allocatorIiEEEC2B8ue170006Ev, symObjAddr: 0x180A0, symBinAddr: 0x100018D70, symSize: 0x250 }
  - { offsetInCU: 0x1438F, offset: 0x1438F, size: 0x8, addend: 0x0, symName: __ZNSt3__117__compressed_pairIPiNS_9allocatorIiEEEC1B8ue170006IDnNS_18__default_init_tagEEEOT_OT0_, symObjAddr: 0x182F0, symBinAddr: 0x100018FC0, symSize: 0x30 }
  - { offsetInCU: 0x143E6, offset: 0x143E6, size: 0x8, addend: 0x0, symName: __ZNSt3__117__compressed_pairIPiNS_9allocatorIiEEEC2B8ue170006IDnNS_18__default_init_tagEEEOT_OT0_, symObjAddr: 0x18320, symBinAddr: 0x100018FF0, symSize: 0x40 }
  - { offsetInCU: 0x1443D, offset: 0x1443D, size: 0x8, addend: 0x0, symName: __ZNSt3__122__compressed_pair_elemINS_9allocatorIiEELi1ELb1EEC2B8ue170006ENS_18__default_init_tagE, symObjAddr: 0x18360, symBinAddr: 0x100019030, symSize: 0x20 }
  - { offsetInCU: 0x14470, offset: 0x14470, size: 0x8, addend: 0x0, symName: __ZNSt3__19allocatorIiEC2B8ue170006Ev, symObjAddr: 0x18380, symBinAddr: 0x100019050, symSize: 0x20 }
  - { offsetInCU: 0x14499, offset: 0x14499, size: 0x8, addend: 0x0, symName: __ZNSt3__116__non_trivial_ifILb1ENS_9allocatorIiEEEC2B8ue170006Ev, symObjAddr: 0x183A0, symBinAddr: 0x100019070, symSize: 0x10 }
  - { offsetInCU: 0x144C2, offset: 0x144C2, size: 0x8, addend: 0x0, symName: __ZNSt3__16vectorIiNS_9allocatorIiEEED2B8ue170006Ev, symObjAddr: 0x183B0, symBinAddr: 0x100019080, symSize: 0x170 }
  - { offsetInCU: 0x144EC, offset: 0x144EC, size: 0x8, addend: 0x0, symName: __ZNSt3__16vectorIiNS_9allocatorIiEEE16__destroy_vectorC1B8ue170006ERS3_, symObjAddr: 0x18520, symBinAddr: 0x1000191F0, symSize: 0x30 }
  - { offsetInCU: 0x14524, offset: 0x14524, size: 0x8, addend: 0x0, symName: __ZNSt3__16vectorIiNS_9allocatorIiEEE16__destroy_vectorclB8ue170006Ev, symObjAddr: 0x18550, symBinAddr: 0x100019220, symSize: 0x1D0 }
  - { offsetInCU: 0x14549, offset: 0x14549, size: 0x8, addend: 0x0, symName: __ZNSt3__16vectorIiNS_9allocatorIiEEE16__destroy_vectorC2B8ue170006ERS3_, symObjAddr: 0x18720, symBinAddr: 0x1000193F0, symSize: 0x60 }
  - { offsetInCU: 0x14581, offset: 0x14581, size: 0x8, addend: 0x0, symName: __ZNSt3__16vectorIiNS_9allocatorIiEEE7__clearB8ue170006Ev, symObjAddr: 0x18780, symBinAddr: 0x100019450, symSize: 0x50 }
  - { offsetInCU: 0x145A6, offset: 0x145A6, size: 0x8, addend: 0x0, symName: __ZNSt3__16vectorIiNS_9allocatorIiEEE22__base_destruct_at_endB8ue170006EPi, symObjAddr: 0x187D0, symBinAddr: 0x1000194A0, symSize: 0xF0 }
  - { offsetInCU: 0x145E9, offset: 0x145E9, size: 0x8, addend: 0x0, symName: __ZNSt3__16vectorINS_12basic_stringIcNS_11char_traitsIcEENS_9allocatorIcEEEENS4_IS6_EEEC2B8ue170006Ev, symObjAddr: 0x188C0, symBinAddr: 0x100019590, symSize: 0x250 }
  - { offsetInCU: 0x14613, offset: 0x14613, size: 0x8, addend: 0x0, symName: __ZNSt3__117__compressed_pairIPNS_12basic_stringIcNS_11char_traitsIcEENS_9allocatorIcEEEENS4_IS6_EEEC1B8ue170006IDnNS_18__default_init_tagEEEOT_OT0_, symObjAddr: 0x18B10, symBinAddr: 0x1000197E0, symSize: 0x30 }
  - { offsetInCU: 0x1466A, offset: 0x1466A, size: 0x8, addend: 0x0, symName: __ZNSt3__117__compressed_pairIPNS_12basic_stringIcNS_11char_traitsIcEENS_9allocatorIcEEEENS4_IS6_EEEC2B8ue170006IDnNS_18__default_init_tagEEEOT_OT0_, symObjAddr: 0x18B40, symBinAddr: 0x100019810, symSize: 0x40 }
  - { offsetInCU: 0x146C1, offset: 0x146C1, size: 0x8, addend: 0x0, symName: __ZNSt3__122__compressed_pair_elemIPNS_12basic_stringIcNS_11char_traitsIcEENS_9allocatorIcEEEELi0ELb0EEC2B8ue170006IDnvEEOT_, symObjAddr: 0x18B80, symBinAddr: 0x100019850, symSize: 0x50 }
  - { offsetInCU: 0x14702, offset: 0x14702, size: 0x8, addend: 0x0, symName: __ZNSt3__122__compressed_pair_elemINS_9allocatorINS_12basic_stringIcNS_11char_traitsIcEENS1_IcEEEEEELi1ELb1EEC2B8ue170006ENS_18__default_init_tagE, symObjAddr: 0x18BD0, symBinAddr: 0x1000198A0, symSize: 0x20 }
  - { offsetInCU: 0x14735, offset: 0x14735, size: 0x8, addend: 0x0, symName: __ZNSt3__19allocatorINS_12basic_stringIcNS_11char_traitsIcEENS0_IcEEEEEC2B8ue170006Ev, symObjAddr: 0x18BF0, symBinAddr: 0x1000198C0, symSize: 0x20 }
  - { offsetInCU: 0x1475E, offset: 0x1475E, size: 0x8, addend: 0x0, symName: __ZNSt3__116__non_trivial_ifILb1ENS_9allocatorINS_12basic_stringIcNS_11char_traitsIcEENS1_IcEEEEEEEC2B8ue170006Ev, symObjAddr: 0x18C10, symBinAddr: 0x1000198E0, symSize: 0x10 }
  - { offsetInCU: 0x14787, offset: 0x14787, size: 0x8, addend: 0x0, symName: __ZNSt3__16vectorINS_12basic_stringIcNS_11char_traitsIcEENS_9allocatorIcEEEENS4_IS6_EEED2B8ue170006Ev, symObjAddr: 0x18C20, symBinAddr: 0x1000198F0, symSize: 0x170 }
  - { offsetInCU: 0x147B1, offset: 0x147B1, size: 0x8, addend: 0x0, symName: __ZNSt3__16vectorINS_12basic_stringIcNS_11char_traitsIcEENS_9allocatorIcEEEENS4_IS6_EEE16__destroy_vectorC1B8ue170006ERS8_, symObjAddr: 0x18D90, symBinAddr: 0x100019A60, symSize: 0x30 }
  - { offsetInCU: 0x147E9, offset: 0x147E9, size: 0x8, addend: 0x0, symName: __ZNSt3__16vectorINS_12basic_stringIcNS_11char_traitsIcEENS_9allocatorIcEEEENS4_IS6_EEE16__destroy_vectorclB8ue170006Ev, symObjAddr: 0x18DC0, symBinAddr: 0x100019A90, symSize: 0x1D0 }
  - { offsetInCU: 0x1480E, offset: 0x1480E, size: 0x8, addend: 0x0, symName: __ZNSt3__16vectorINS_12basic_stringIcNS_11char_traitsIcEENS_9allocatorIcEEEENS4_IS6_EEE16__destroy_vectorC2B8ue170006ERS8_, symObjAddr: 0x18F90, symBinAddr: 0x100019C60, symSize: 0x60 }
  - { offsetInCU: 0x14846, offset: 0x14846, size: 0x8, addend: 0x0, symName: __ZNSt3__16vectorINS_12basic_stringIcNS_11char_traitsIcEENS_9allocatorIcEEEENS4_IS6_EEE7__clearB8ue170006Ev, symObjAddr: 0x18FF0, symBinAddr: 0x100019CC0, symSize: 0x50 }
  - { offsetInCU: 0x1486B, offset: 0x1486B, size: 0x8, addend: 0x0, symName: __ZNKSt3__16vectorINS_12basic_stringIcNS_11char_traitsIcEENS_9allocatorIcEEEENS4_IS6_EEE17__annotate_deleteB8ue170006Ev, symObjAddr: 0x19040, symBinAddr: 0x100019D10, symSize: 0xD0 }
  - { offsetInCU: 0x14890, offset: 0x14890, size: 0x8, addend: 0x0, symName: __ZNSt3__116allocator_traitsINS_9allocatorINS_12basic_stringIcNS_11char_traitsIcEENS1_IcEEEEEEE10deallocateB8ue170006ERS7_PS6_m, symObjAddr: 0x19110, symBinAddr: 0x100019DE0, symSize: 0x30 }
  - { offsetInCU: 0x148D2, offset: 0x148D2, size: 0x8, addend: 0x0, symName: __ZNSt3__16vectorINS_12basic_stringIcNS_11char_traitsIcEENS_9allocatorIcEEEENS4_IS6_EEE7__allocB8ue170006Ev, symObjAddr: 0x19140, symBinAddr: 0x100019E10, symSize: 0x20 }
  - { offsetInCU: 0x148F7, offset: 0x148F7, size: 0x8, addend: 0x0, symName: __ZNKSt3__16vectorINS_12basic_stringIcNS_11char_traitsIcEENS_9allocatorIcEEEENS4_IS6_EEE8capacityB8ue170006Ev, symObjAddr: 0x19160, symBinAddr: 0x100019E30, symSize: 0xA0 }
  - { offsetInCU: 0x1491C, offset: 0x1491C, size: 0x8, addend: 0x0, symName: __ZNSt3__16vectorINS_12basic_stringIcNS_11char_traitsIcEENS_9allocatorIcEEEENS4_IS6_EEE22__base_destruct_at_endB8ue170006EPS6_, symObjAddr: 0x19200, symBinAddr: 0x100019ED0, symSize: 0xF0 }
  - { offsetInCU: 0x1495F, offset: 0x1495F, size: 0x8, addend: 0x0, symName: __ZNSt3__116allocator_traitsINS_9allocatorINS_12basic_stringIcNS_11char_traitsIcEENS1_IcEEEEEEE7destroyB8ue170006IS6_vEEvRS7_PT_, symObjAddr: 0x192F0, symBinAddr: 0x100019FC0, symSize: 0x30 }
  - { offsetInCU: 0x1499C, offset: 0x1499C, size: 0x8, addend: 0x0, symName: __ZNSt3__19allocatorINS_12basic_stringIcNS_11char_traitsIcEENS0_IcEEEEE7destroyB8ue170006EPS5_, symObjAddr: 0x19330, symBinAddr: 0x10001A000, symSize: 0x20 }
  - { offsetInCU: 0x149CF, offset: 0x149CF, size: 0x8, addend: 0x0, symName: __ZNKSt3__16vectorINS_12basic_stringIcNS_11char_traitsIcEENS_9allocatorIcEEEENS4_IS6_EEE31__annotate_contiguous_containerEPKvSA_SA_SA_, symObjAddr: 0x19350, symBinAddr: 0x10001A020, symSize: 0x50 }
  - { offsetInCU: 0x14A30, offset: 0x14A30, size: 0x8, addend: 0x0, symName: __ZNKSt3__16vectorINS_12basic_stringIcNS_11char_traitsIcEENS_9allocatorIcEEEENS4_IS6_EEE4dataB8ue170006Ev, symObjAddr: 0x193A0, symBinAddr: 0x10001A070, symSize: 0x50 }
  - { offsetInCU: 0x14A55, offset: 0x14A55, size: 0x8, addend: 0x0, symName: __ZNKSt3__16vectorINS_12basic_stringIcNS_11char_traitsIcEENS_9allocatorIcEEEENS4_IS6_EEE4sizeB8ue170006Ev, symObjAddr: 0x193F0, symBinAddr: 0x10001A0C0, symSize: 0xA0 }
  - { offsetInCU: 0x14A7A, offset: 0x14A7A, size: 0x8, addend: 0x0, symName: __ZNSt3__19allocatorINS_12basic_stringIcNS_11char_traitsIcEENS0_IcEEEEE10deallocateB8ue170006EPS5_m, symObjAddr: 0x19490, symBinAddr: 0x10001A160, symSize: 0x50 }
  - { offsetInCU: 0x14ABB, offset: 0x14ABB, size: 0x8, addend: 0x0, symName: __ZNSt3__117__compressed_pairIPNS_12basic_stringIcNS_11char_traitsIcEENS_9allocatorIcEEEENS4_IS6_EEE6secondB8ue170006Ev, symObjAddr: 0x194E0, symBinAddr: 0x10001A1B0, symSize: 0x20 }
  - { offsetInCU: 0x14AE0, offset: 0x14AE0, size: 0x8, addend: 0x0, symName: __ZNSt3__122__compressed_pair_elemINS_9allocatorINS_12basic_stringIcNS_11char_traitsIcEENS1_IcEEEEEELi1ELb1EE5__getB8ue170006Ev, symObjAddr: 0x19500, symBinAddr: 0x10001A1D0, symSize: 0x10 }
  - { offsetInCU: 0x14B05, offset: 0x14B05, size: 0x8, addend: 0x0, symName: __ZNKSt3__16vectorINS_12basic_stringIcNS_11char_traitsIcEENS_9allocatorIcEEEENS4_IS6_EEE9__end_capB8ue170006Ev, symObjAddr: 0x19510, symBinAddr: 0x10001A1E0, symSize: 0x20 }
  - { offsetInCU: 0x14B2A, offset: 0x14B2A, size: 0x8, addend: 0x0, symName: __ZNKSt3__117__compressed_pairIPNS_12basic_stringIcNS_11char_traitsIcEENS_9allocatorIcEEEENS4_IS6_EEE5firstB8ue170006Ev, symObjAddr: 0x19530, symBinAddr: 0x10001A200, symSize: 0x20 }
  - { offsetInCU: 0x14B4F, offset: 0x14B4F, size: 0x8, addend: 0x0, symName: __ZNKSt3__122__compressed_pair_elemIPNS_12basic_stringIcNS_11char_traitsIcEENS_9allocatorIcEEEELi0ELb0EE5__getB8ue170006Ev, symObjAddr: 0x19550, symBinAddr: 0x10001A220, symSize: 0x10 }
  - { offsetInCU: 0x14B74, offset: 0x14B74, size: 0x8, addend: 0x0, symName: __ZNSt3__112basic_stringIcNS_11char_traitsIcEENS_9allocatorIcEEEC2B8ue170006ILi0EEEPKc, symObjAddr: 0x19560, symBinAddr: 0x10001A230, symSize: 0x180 }
  - { offsetInCU: 0x14BB3, offset: 0x14BB3, size: 0x8, addend: 0x0, symName: __ZNSt3__16vectorINS_12basic_stringIcNS_11char_traitsIcEENS_9allocatorIcEEEENS4_IS6_EEE6assignIPKS6_Li0EEEvT_SC_, symObjAddr: 0x196E0, symBinAddr: 0x10001A3B0, symSize: 0x60 }
  - { offsetInCU: 0x14C07, offset: 0x14C07, size: 0x8, addend: 0x0, symName: __ZNKSt16initializer_listINSt3__112basic_stringIcNS0_11char_traitsIcEENS0_9allocatorIcEEEEE5beginB8ue170006Ev, symObjAddr: 0x19740, symBinAddr: 0x10001A410, symSize: 0x50 }
  - { offsetInCU: 0x14C2C, offset: 0x14C2C, size: 0x8, addend: 0x0, symName: __ZNKSt16initializer_listINSt3__112basic_stringIcNS0_11char_traitsIcEENS0_9allocatorIcEEEEE3endB8ue170006Ev, symObjAddr: 0x19790, symBinAddr: 0x10001A460, symSize: 0x90 }
  - { offsetInCU: 0x14C50, offset: 0x14C50, size: 0x8, addend: 0x0, symName: __ZNSt3__16vectorINS_12basic_stringIcNS_11char_traitsIcEENS_9allocatorIcEEEENS4_IS6_EEE18__assign_with_sizeB8ue170006IPKS6_SB_EEvT_T0_l, symObjAddr: 0x19820, symBinAddr: 0x10001A4F0, symSize: 0x460 }
  - { offsetInCU: 0x14D07, offset: 0x14D07, size: 0x8, addend: 0x0, symName: __ZNSt3__16vectorINS_12basic_stringIcNS_11char_traitsIcEENS_9allocatorIcEEEENS4_IS6_EEE18__construct_at_endIPKS6_SB_EEvT_T0_m, symObjAddr: 0x1A080, symBinAddr: 0x10001AD50, symSize: 0x300 }
  - { offsetInCU: 0x14D84, offset: 0x14D84, size: 0x8, addend: 0x0, symName: __ZNSt3__16vectorINS_12basic_stringIcNS_11char_traitsIcEENS_9allocatorIcEEEENS4_IS6_EEE17__destruct_at_endB8ue170006EPS6_, symObjAddr: 0x1A590, symBinAddr: 0x10001B260, symSize: 0x50 }
  - { offsetInCU: 0x14DC6, offset: 0x14DC6, size: 0x8, addend: 0x0, symName: __ZNSt3__16vectorINS_12basic_stringIcNS_11char_traitsIcEENS_9allocatorIcEEEENS4_IS6_EEE13__vdeallocateEv, symObjAddr: 0x1A5E0, symBinAddr: 0x10001B2B0, symSize: 0x170 }
  - { offsetInCU: 0x14DED, offset: 0x14DED, size: 0x8, addend: 0x0, symName: __ZNSt3__16vectorINS_12basic_stringIcNS_11char_traitsIcEENS_9allocatorIcEEEENS4_IS6_EEE11__vallocateB8ue170006Em, symObjAddr: 0x1A750, symBinAddr: 0x10001B420, symSize: 0x400 }
  - { offsetInCU: 0x14E35, offset: 0x14E35, size: 0x8, addend: 0x0, symName: __ZNKSt3__16vectorINS_12basic_stringIcNS_11char_traitsIcEENS_9allocatorIcEEEENS4_IS6_EEE11__recommendB8ue170006Em, symObjAddr: 0x1AB50, symBinAddr: 0x10001B820, symSize: 0x2F0 }
  - { offsetInCU: 0x14EA9, offset: 0x14EA9, size: 0x8, addend: 0x0, symName: __ZNSt3__16vectorINS_12basic_stringIcNS_11char_traitsIcEENS_9allocatorIcEEEENS4_IS6_EEE21_ConstructTransactionC1B8ue170006ERS8_m, symObjAddr: 0x1AEE0, symBinAddr: 0x10001BBB0, symSize: 0x30 }
  - { offsetInCU: 0x14EF0, offset: 0x14EF0, size: 0x8, addend: 0x0, symName: __ZNSt3__16vectorINS_12basic_stringIcNS_11char_traitsIcEENS_9allocatorIcEEEENS4_IS6_EEE21_ConstructTransactionD1B8ue170006Ev, symObjAddr: 0x1B1B0, symBinAddr: 0x10001BE80, symSize: 0x20 }
  - { offsetInCU: 0x14F19, offset: 0x14F19, size: 0x8, addend: 0x0, symName: __ZNSt3__16vectorINS_12basic_stringIcNS_11char_traitsIcEENS_9allocatorIcEEEENS4_IS6_EEE21_ConstructTransactionC2B8ue170006ERS8_m, symObjAddr: 0x1B1D0, symBinAddr: 0x10001BEA0, symSize: 0x190 }
  - { offsetInCU: 0x14F60, offset: 0x14F60, size: 0x8, addend: 0x0, symName: __ZNKSt3__16vectorINS_12basic_stringIcNS_11char_traitsIcEENS_9allocatorIcEEEENS4_IS6_EEE19__annotate_increaseB8ue170006Em, symObjAddr: 0x1B360, symBinAddr: 0x10001C030, symSize: 0xE0 }
  - { offsetInCU: 0x14FB2, offset: 0x14FB2, size: 0x8, addend: 0x0, symName: __ZNSt3__14pairIPKNS_12basic_stringIcNS_11char_traitsIcEENS_9allocatorIcEEEES8_EC1B8ue170006IS8_S8_LPv0EEEOT_OT0_, symObjAddr: 0x1BEB0, symBinAddr: 0x10001CB80, symSize: 0x30 }
  - { offsetInCU: 0x1500F, offset: 0x1500F, size: 0x8, addend: 0x0, symName: __ZNSt3__14pairIPKNS_12basic_stringIcNS_11char_traitsIcEENS_9allocatorIcEEEES8_EC2B8ue170006IS8_S8_LPv0EEEOT_OT0_, symObjAddr: 0x1BEE0, symBinAddr: 0x10001CBB0, symSize: 0x110 }
  - { offsetInCU: 0x1506C, offset: 0x1506C, size: 0x8, addend: 0x0, symName: __ZNSt3__118__unwrap_iter_implIPKNS_12basic_stringIcNS_11char_traitsIcEENS_9allocatorIcEEEELb1EE8__unwrapB8ue170006ES8_, symObjAddr: 0x1BFF0, symBinAddr: 0x10001CCC0, symSize: 0x20 }
  - { offsetInCU: 0x1508F, offset: 0x1508F, size: 0x8, addend: 0x0, symName: __ZNSt3__129_AllocatorDestroyRangeReverseINS_9allocatorINS_12basic_stringIcNS_11char_traitsIcEENS1_IcEEEEEEPS6_EC1B8ue170006ERS7_RS8_SB_, symObjAddr: 0x1C2C0, symBinAddr: 0x10001CF90, symSize: 0x40 }
  - { offsetInCU: 0x150E5, offset: 0x150E5, size: 0x8, addend: 0x0, symName: __ZNSt3__116allocator_traitsINS_9allocatorINS_12basic_stringIcNS_11char_traitsIcEENS1_IcEEEEEEE9constructB8ue170006IS6_JRKS6_EvEEvRS7_PT_DpOT0_, symObjAddr: 0x1C300, symBinAddr: 0x10001CFD0, symSize: 0x30 }
  - { offsetInCU: 0x1513C, offset: 0x1513C, size: 0x8, addend: 0x0, symName: __ZNSt3__128__exception_guard_exceptionsINS_29_AllocatorDestroyRangeReverseINS_9allocatorINS_12basic_stringIcNS_11char_traitsIcEENS2_IcEEEEEEPS7_EEE10__completeB8ue170006Ev, symObjAddr: 0x1C330, symBinAddr: 0x10001D000, symSize: 0x70 }
  - { offsetInCU: 0x15161, offset: 0x15161, size: 0x8, addend: 0x0, symName: __ZNSt3__128__exception_guard_exceptionsINS_29_AllocatorDestroyRangeReverseINS_9allocatorINS_12basic_stringIcNS_11char_traitsIcEENS2_IcEEEEEEPS7_EEED1B8ue170006Ev, symObjAddr: 0x1C3A0, symBinAddr: 0x10001D070, symSize: 0x20 }
  - { offsetInCU: 0x1518A, offset: 0x1518A, size: 0x8, addend: 0x0, symName: __ZNSt3__128__exception_guard_exceptionsINS_29_AllocatorDestroyRangeReverseINS_9allocatorINS_12basic_stringIcNS_11char_traitsIcEENS2_IcEEEEEEPS7_EEEC1B8ue170006ESA_, symObjAddr: 0x1C3C0, symBinAddr: 0x10001D090, symSize: 0x250 }
  - { offsetInCU: 0x151C6, offset: 0x151C6, size: 0x8, addend: 0x0, symName: __ZNSt3__128__exception_guard_exceptionsINS_29_AllocatorDestroyRangeReverseINS_9allocatorINS_12basic_stringIcNS_11char_traitsIcEENS2_IcEEEEEEPS7_EEEC2B8ue170006ESA_, symObjAddr: 0x1C610, symBinAddr: 0x10001D2E0, symSize: 0x1E0 }
  - { offsetInCU: 0x15202, offset: 0x15202, size: 0x8, addend: 0x0, symName: __ZNSt3__129_AllocatorDestroyRangeReverseINS_9allocatorINS_12basic_stringIcNS_11char_traitsIcEENS1_IcEEEEEEPS6_EC2B8ue170006ERS7_RS8_SB_, symObjAddr: 0x1C7F0, symBinAddr: 0x10001D4C0, symSize: 0xF0 }
  - { offsetInCU: 0x15258, offset: 0x15258, size: 0x8, addend: 0x0, symName: __ZNSt3__19allocatorINS_12basic_stringIcNS_11char_traitsIcEENS0_IcEEEEE9constructB8ue170006IS5_JRKS5_EEEvPT_DpOT0_, symObjAddr: 0x1C8E0, symBinAddr: 0x10001D5B0, symSize: 0x30 }
  - { offsetInCU: 0x152AD, offset: 0x152AD, size: 0x8, addend: 0x0, symName: __ZNSt3__128__exception_guard_exceptionsINS_29_AllocatorDestroyRangeReverseINS_9allocatorINS_12basic_stringIcNS_11char_traitsIcEENS2_IcEEEEEEPS7_EEED2B8ue170006Ev, symObjAddr: 0x1C910, symBinAddr: 0x10001D5E0, symSize: 0x90 }
  - { offsetInCU: 0x152D6, offset: 0x152D6, size: 0x8, addend: 0x0, symName: __ZNKSt3__129_AllocatorDestroyRangeReverseINS_9allocatorINS_12basic_stringIcNS_11char_traitsIcEENS1_IcEEEEEEPS6_EclB8ue170006Ev, symObjAddr: 0x1C9A0, symBinAddr: 0x10001D670, symSize: 0x380 }
  - { offsetInCU: 0x152FC, offset: 0x152FC, size: 0x8, addend: 0x0, symName: __ZNSt3__116reverse_iteratorIPNS_12basic_stringIcNS_11char_traitsIcEENS_9allocatorIcEEEEEC1B8ue170006ES7_, symObjAddr: 0x1CFD0, symBinAddr: 0x10001DCA0, symSize: 0x30 }
  - { offsetInCU: 0x15333, offset: 0x15333, size: 0x8, addend: 0x0, symName: __ZNSt3__116reverse_iteratorIPNS_12basic_stringIcNS_11char_traitsIcEENS_9allocatorIcEEEEEppB8ue170006Ev, symObjAddr: 0x1D060, symBinAddr: 0x10001DD30, symSize: 0x60 }
  - { offsetInCU: 0x15358, offset: 0x15358, size: 0x8, addend: 0x0, symName: __ZNKSt3__116reverse_iteratorIPNS_12basic_stringIcNS_11char_traitsIcEENS_9allocatorIcEEEEE4baseB8ue170006Ev, symObjAddr: 0x1D0C0, symBinAddr: 0x10001DD90, symSize: 0x50 }
  - { offsetInCU: 0x15382, offset: 0x15382, size: 0x8, addend: 0x0, symName: __ZNSt3__119__to_address_helperINS_16reverse_iteratorIPNS_12basic_stringIcNS_11char_traitsIcEENS_9allocatorIcEEEEEEvE6__callB8ue170006ERKS9_, symObjAddr: 0x1D110, symBinAddr: 0x10001DDE0, symSize: 0x40 }
  - { offsetInCU: 0x153A5, offset: 0x153A5, size: 0x8, addend: 0x0, symName: __ZNKSt3__116reverse_iteratorIPNS_12basic_stringIcNS_11char_traitsIcEENS_9allocatorIcEEEEEptB8ue170006Ev, symObjAddr: 0x1D150, symBinAddr: 0x10001DE20, symSize: 0x20 }
  - { offsetInCU: 0x153CA, offset: 0x153CA, size: 0x8, addend: 0x0, symName: __ZNKSt3__116reverse_iteratorIPNS_12basic_stringIcNS_11char_traitsIcEENS_9allocatorIcEEEEEdeB8ue170006Ev, symObjAddr: 0x1D170, symBinAddr: 0x10001DE40, symSize: 0x60 }
  - { offsetInCU: 0x153FD, offset: 0x153FD, size: 0x8, addend: 0x0, symName: __ZNSt3__116reverse_iteratorIPNS_12basic_stringIcNS_11char_traitsIcEENS_9allocatorIcEEEEEC2B8ue170006ES7_, symObjAddr: 0x1D1D0, symBinAddr: 0x10001DEA0, symSize: 0xA0 }
  - { offsetInCU: 0x15434, offset: 0x15434, size: 0x8, addend: 0x0, symName: __ZNSt3__118__unwrap_iter_implIPNS_12basic_stringIcNS_11char_traitsIcEENS_9allocatorIcEEEELb1EE8__unwrapB8ue170006ES7_, symObjAddr: 0x1D270, symBinAddr: 0x10001DF40, symSize: 0x20 }
  - { offsetInCU: 0x15457, offset: 0x15457, size: 0x8, addend: 0x0, symName: __ZNSt3__118__unwrap_iter_implIPNS_12basic_stringIcNS_11char_traitsIcEENS_9allocatorIcEEEELb1EE8__rewrapB8ue170006ES7_S7_, symObjAddr: 0x1D290, symBinAddr: 0x10001DF60, symSize: 0x60 }
  - { offsetInCU: 0x15488, offset: 0x15488, size: 0x8, addend: 0x0, symName: __ZNSt3__16vectorINS_12basic_stringIcNS_11char_traitsIcEENS_9allocatorIcEEEENS4_IS6_EEE21_ConstructTransactionD2B8ue170006Ev, symObjAddr: 0x1D2F0, symBinAddr: 0x10001DFC0, symSize: 0x230 }
  - { offsetInCU: 0x154B1, offset: 0x154B1, size: 0x8, addend: 0x0, symName: __ZNKSt3__16vectorINS_12basic_stringIcNS_11char_traitsIcEENS_9allocatorIcEEEENS4_IS6_EEE17__annotate_shrinkB8ue170006Em, symObjAddr: 0x1D520, symBinAddr: 0x10001E1F0, symSize: 0xC0 }
  - { offsetInCU: 0x15508, offset: 0x15508, size: 0x8, addend: 0x0, symName: __ZNKSt3__111__copy_loopINS_17_ClassicAlgPolicyEEclB8ue170006IPKNS_12basic_stringIcNS_11char_traitsIcEENS_9allocatorIcEEEESB_PS9_EENS_4pairIT_T1_EESE_T0_SF_, symObjAddr: 0x1DE40, symBinAddr: 0x10001EB10, symSize: 0x3F0 }
  - { offsetInCU: 0x15581, offset: 0x15581, size: 0x8, addend: 0x0, symName: __ZNSt3__14pairIPKNS_12basic_stringIcNS_11char_traitsIcEENS_9allocatorIcEEEEPS6_EC1B8ue170006IS8_S9_LPv0EEEOT_OT0_, symObjAddr: 0x1E3F0, symBinAddr: 0x10001F0C0, symSize: 0x30 }
  - { offsetInCU: 0x155DE, offset: 0x155DE, size: 0x8, addend: 0x0, symName: __ZNSt3__14pairIPKNS_12basic_stringIcNS_11char_traitsIcEENS_9allocatorIcEEEEPS6_EC2B8ue170006IS8_S9_LPv0EEEOT_OT0_, symObjAddr: 0x1E420, symBinAddr: 0x10001F0F0, symSize: 0x110 }
  - { offsetInCU: 0x1563B, offset: 0x1563B, size: 0x8, addend: 0x0, symName: __ZNSt3__118__unwrap_iter_implIPKNS_12basic_stringIcNS_11char_traitsIcEENS_9allocatorIcEEEELb1EE8__rewrapB8ue170006ES8_S8_, symObjAddr: 0x1E580, symBinAddr: 0x10001F250, symSize: 0x60 }
  - { offsetInCU: 0x1566C, offset: 0x1566C, size: 0x8, addend: 0x0, symName: __ZNSt3__16vectorINS_12basic_stringIcNS_11char_traitsIcEENS_9allocatorIcEEEENS4_IS6_EEE5clearB8ue170006Ev, symObjAddr: 0x1E5E0, symBinAddr: 0x10001F2B0, symSize: 0x40 }
  - { offsetInCU: 0x156A0, offset: 0x156A0, size: 0x8, addend: 0x0, symName: __ZNSt3__16vectorINS_12basic_stringIcNS_11char_traitsIcEENS_9allocatorIcEEEENS4_IS6_EEE9__end_capB8ue170006Ev, symObjAddr: 0x1E620, symBinAddr: 0x10001F2F0, symSize: 0x20 }
  - { offsetInCU: 0x156C5, offset: 0x156C5, size: 0x8, addend: 0x0, symName: __ZNSt3__117__compressed_pairIPNS_12basic_stringIcNS_11char_traitsIcEENS_9allocatorIcEEEENS4_IS6_EEE5firstB8ue170006Ev, symObjAddr: 0x1E640, symBinAddr: 0x10001F310, symSize: 0x20 }
  - { offsetInCU: 0x156EA, offset: 0x156EA, size: 0x8, addend: 0x0, symName: __ZNSt3__122__compressed_pair_elemIPNS_12basic_stringIcNS_11char_traitsIcEENS_9allocatorIcEEEELi0ELb0EE5__getB8ue170006Ev, symObjAddr: 0x1E660, symBinAddr: 0x10001F330, symSize: 0x10 }
  - { offsetInCU: 0x1570E, offset: 0x1570E, size: 0x8, addend: 0x0, symName: __ZNKSt3__16vectorINS_12basic_stringIcNS_11char_traitsIcEENS_9allocatorIcEEEENS4_IS6_EEE8max_sizeEv, symObjAddr: 0x1E670, symBinAddr: 0x10001F340, symSize: 0x260 }
  - { offsetInCU: 0x15736, offset: 0x15736, size: 0x8, addend: 0x0, symName: __ZNKSt3__16vectorINS_12basic_stringIcNS_11char_traitsIcEENS_9allocatorIcEEEENS4_IS6_EEE20__throw_length_errorB8ue170006Ev, symObjAddr: 0x1E8D0, symBinAddr: 0x10001F5A0, symSize: 0x20 }
  - { offsetInCU: 0x1575B, offset: 0x1575B, size: 0x8, addend: 0x0, symName: __ZNKSt3__16vectorINS_12basic_stringIcNS_11char_traitsIcEENS_9allocatorIcEEEENS4_IS6_EEE14__annotate_newB8ue170006Em, symObjAddr: 0x1EB00, symBinAddr: 0x10001F7D0, symSize: 0xC0 }
  - { offsetInCU: 0x15799, offset: 0x15799, size: 0x8, addend: 0x0, symName: __ZNSt3__116allocator_traitsINS_9allocatorINS_12basic_stringIcNS_11char_traitsIcEENS1_IcEEEEEEE8max_sizeB8ue170006IS7_vEEmRKS7_, symObjAddr: 0x1EBC0, symBinAddr: 0x10001F890, symSize: 0x20 }
  - { offsetInCU: 0x157C7, offset: 0x157C7, size: 0x8, addend: 0x0, symName: __ZNKSt3__16vectorINS_12basic_stringIcNS_11char_traitsIcEENS_9allocatorIcEEEENS4_IS6_EEE7__allocB8ue170006Ev, symObjAddr: 0x1EBE0, symBinAddr: 0x10001F8B0, symSize: 0x20 }
  - { offsetInCU: 0x157EC, offset: 0x157EC, size: 0x8, addend: 0x0, symName: __ZNKSt3__19allocatorINS_12basic_stringIcNS_11char_traitsIcEENS0_IcEEEEE8max_sizeB8ue170006Ev, symObjAddr: 0x1EC00, symBinAddr: 0x10001F8D0, symSize: 0x20 }
  - { offsetInCU: 0x15811, offset: 0x15811, size: 0x8, addend: 0x0, symName: __ZNKSt3__117__compressed_pairIPNS_12basic_stringIcNS_11char_traitsIcEENS_9allocatorIcEEEENS4_IS6_EEE6secondB8ue170006Ev, symObjAddr: 0x1EC20, symBinAddr: 0x10001F8F0, symSize: 0x20 }
  - { offsetInCU: 0x15836, offset: 0x15836, size: 0x8, addend: 0x0, symName: __ZNKSt3__122__compressed_pair_elemINS_9allocatorINS_12basic_stringIcNS_11char_traitsIcEENS1_IcEEEEEELi1ELb1EE5__getB8ue170006Ev, symObjAddr: 0x1EC40, symBinAddr: 0x10001F910, symSize: 0x10 }
  - { offsetInCU: 0x1585B, offset: 0x1585B, size: 0x8, addend: 0x0, symName: __ZNSt3__19allocatorINS_12basic_stringIcNS_11char_traitsIcEENS0_IcEEEEE8allocateB8ue170006Em, symObjAddr: 0x1EC50, symBinAddr: 0x10001F920, symSize: 0x50 }
  - { offsetInCU: 0x1588D, offset: 0x1588D, size: 0x8, addend: 0x0, symName: __ZNSt3__16vectorIiNS_9allocatorIiEEE13__move_assignERS3_NS_17integral_constantIbLb1EEE, symObjAddr: 0x1ECD0, symBinAddr: 0x10001F9A0, symSize: 0x250 }
  - { offsetInCU: 0x158CD, offset: 0x158CD, size: 0x8, addend: 0x0, symName: __ZNSt3__16vectorIiNS_9allocatorIiEEE13__vdeallocateEv, symObjAddr: 0x1EF20, symBinAddr: 0x10001FBF0, symSize: 0x170 }
  - { offsetInCU: 0x158F4, offset: 0x158F4, size: 0x8, addend: 0x0, symName: __ZNSt3__16vectorIiNS_9allocatorIiEEE19__move_assign_allocB8ue170006ERS3_, symObjAddr: 0x1F090, symBinAddr: 0x10001FD60, symSize: 0x30 }
  - { offsetInCU: 0x15928, offset: 0x15928, size: 0x8, addend: 0x0, symName: __ZNSt3__16vectorIiNS_9allocatorIiEEE5clearB8ue170006Ev, symObjAddr: 0x1F0C0, symBinAddr: 0x10001FD90, symSize: 0x40 }
  - { offsetInCU: 0x1595C, offset: 0x1595C, size: 0x8, addend: 0x0, symName: __ZNSt3__16vectorIiNS_9allocatorIiEEE19__move_assign_allocB8ue170006ERS3_NS_17integral_constantIbLb1EEE, symObjAddr: 0x1F100, symBinAddr: 0x10001FDD0, symSize: 0x30 }
  - { offsetInCU: 0x1599B, offset: 0x1599B, size: 0x8, addend: 0x0, symName: __ZNSt16initializer_listINSt3__112basic_stringIcNS0_11char_traitsIcEENS0_9allocatorIcEEEEEC2B8ue170006Ev, symObjAddr: 0x1F130, symBinAddr: 0x10001FE00, symSize: 0x90 }
  - { offsetInCU: 0x3B, offset: 0x15BCF, size: 0x8, addend: 0x0, symName: _.str, symObjAddr: 0x19180, symBinAddr: 0x100022A20, symSize: 0x0 }
  - { offsetInCU: 0x6B, offset: 0x15BFF, size: 0x8, addend: 0x0, symName: _.str.1, symObjAddr: 0x191A0, symBinAddr: 0x100022A40, symSize: 0x0 }
  - { offsetInCU: 0x88, offset: 0x15C1C, size: 0x8, addend: 0x0, symName: _.str.2, symObjAddr: 0x191C0, symBinAddr: 0x100022A60, symSize: 0x0 }
  - { offsetInCU: 0xA5, offset: 0x15C39, size: 0x8, addend: 0x0, symName: _.str.3, symObjAddr: 0x191E0, symBinAddr: 0x100022A80, symSize: 0x0 }
  - { offsetInCU: 0xC2, offset: 0x15C56, size: 0x8, addend: 0x0, symName: _.str.4, symObjAddr: 0x19200, symBinAddr: 0x100022AA0, symSize: 0x0 }
  - { offsetInCU: 0xD4, offset: 0x15C68, size: 0x8, addend: 0x0, symName: _.str.5, symObjAddr: 0x19220, symBinAddr: 0x100022AC0, symSize: 0x0 }
  - { offsetInCU: 0x6059, offset: 0x1BBED, size: 0x8, addend: 0x0, symName: __ZNSt3__1eqB8ue170006IcNS_11char_traitsIcEENS_9allocatorIcEEEEbRKNS_12basic_stringIT_T0_T1_EEPKS6_, symObjAddr: 0x960, symBinAddr: 0x1000207D0, symSize: 0xB0 }
  - { offsetInCU: 0x62CC, offset: 0x1BE60, size: 0x8, addend: 0x0, symName: __ZNSt3__1neB8ue170006IcNS_11char_traitsIcEENS_9allocatorIcEEEEbRKNS_12basic_stringIT_T0_T1_EEPKS6_, symObjAddr: 0xB50, symBinAddr: 0x1000209C0, symSize: 0x30 }
  - { offsetInCU: 0x6324, offset: 0x1BEB8, size: 0x8, addend: 0x0, symName: __ZNSt3__14endlB8ue170006IcNS_11char_traitsIcEEEERNS_13basic_ostreamIT_T0_EES7_, symObjAddr: 0x1270, symBinAddr: 0x1000210A0, symSize: 0xB0 }
  - { offsetInCU: 0x85CF, offset: 0x1E163, size: 0x8, addend: 0x0, symName: __Z15buildBinaryTreeRNSt3__16vectorINS_12basic_stringIcNS_11char_traitsIcEENS_9allocatorIcEEEENS4_IS6_EEEE, symObjAddr: 0x0, symBinAddr: 0x10001FF10, symSize: 0x8C0 }
  - { offsetInCU: 0x8644, offset: 0x1E1D8, size: 0x8, addend: 0x0, symName: __ZNSt3__16vectorINS_12basic_stringIcNS_11char_traitsIcEENS_9allocatorIcEEEENS4_IS6_EEEixB8ue170006Em, symObjAddr: 0xA10, symBinAddr: 0x100020880, symSize: 0x60 }
  - { offsetInCU: 0x86B6, offset: 0x1E24A, size: 0x8, addend: 0x0, symName: __ZNSt3__15queueIP8TreeNodeNS_5dequeIS2_NS_9allocatorIS2_EEEEEC1B8ue170006Ev, symObjAddr: 0xA70, symBinAddr: 0x1000208E0, symSize: 0x20 }
  - { offsetInCU: 0x86DF, offset: 0x1E273, size: 0x8, addend: 0x0, symName: __ZN8TreeNodeC1Ei, symObjAddr: 0xA90, symBinAddr: 0x100020900, symSize: 0x30 }
  - { offsetInCU: 0x8716, offset: 0x1E2AA, size: 0x8, addend: 0x0, symName: __ZNSt3__15queueIP8TreeNodeNS_5dequeIS2_NS_9allocatorIS2_EEEEE4pushB8ue170006ERKS2_, symObjAddr: 0xAC0, symBinAddr: 0x100020930, symSize: 0x30 }
  - { offsetInCU: 0x874A, offset: 0x1E2DE, size: 0x8, addend: 0x0, symName: __ZNKSt3__15queueIP8TreeNodeNS_5dequeIS2_NS_9allocatorIS2_EEEEE5emptyB8ue170006Ev, symObjAddr: 0xAF0, symBinAddr: 0x100020960, symSize: 0x20 }
  - { offsetInCU: 0x876F, offset: 0x1E303, size: 0x8, addend: 0x0, symName: __ZNSt3__15queueIP8TreeNodeNS_5dequeIS2_NS_9allocatorIS2_EEEEE5frontB8ue170006Ev, symObjAddr: 0xB10, symBinAddr: 0x100020980, symSize: 0x20 }
  - { offsetInCU: 0x8794, offset: 0x1E328, size: 0x8, addend: 0x0, symName: __ZNSt3__15queueIP8TreeNodeNS_5dequeIS2_NS_9allocatorIS2_EEEEE3popB8ue170006Ev, symObjAddr: 0xB30, symBinAddr: 0x1000209A0, symSize: 0x20 }
  - { offsetInCU: 0x87B9, offset: 0x1E34D, size: 0x8, addend: 0x0, symName: __ZNSt3__15queueIP8TreeNodeNS_5dequeIS2_NS_9allocatorIS2_EEEEED1Ev, symObjAddr: 0xB80, symBinAddr: 0x1000209F0, symSize: 0x20 }
  - { offsetInCU: 0x87E5, offset: 0x1E379, size: 0x8, addend: 0x0, symName: __Z3bfsP8TreeNode, symObjAddr: 0xBA0, symBinAddr: 0x100020A10, symSize: 0x650 }
  - { offsetInCU: 0x8880, offset: 0x1E414, size: 0x8, addend: 0x0, symName: __ZNKSt3__15queueIP8TreeNodeNS_5dequeIS2_NS_9allocatorIS2_EEEEE4sizeB8ue170006Ev, symObjAddr: 0x11F0, symBinAddr: 0x100021060, symSize: 0x20 }
  - { offsetInCU: 0x88A5, offset: 0x1E439, size: 0x8, addend: 0x0, symName: __ZNSt3__113basic_ostreamIcNS_11char_traitsIcEEElsB8ue170006EPFRS3_S4_E, symObjAddr: 0x1250, symBinAddr: 0x100021080, symSize: 0x20 }
  - { offsetInCU: 0x88D8, offset: 0x1E46C, size: 0x8, addend: 0x0, symName: __Z3dfsP8TreeNodeiPS0_, symObjAddr: 0x1320, symBinAddr: 0x100021150, symSize: 0x150 }
  - { offsetInCU: 0x891C, offset: 0x1E4B0, size: 0x8, addend: 0x0, symName: __Z3dfsP8TreeNodeRNSt3__16vectorIiNS1_9allocatorIiEEEE, symObjAddr: 0x1470, symBinAddr: 0x1000212A0, symSize: 0xB0 }
  - { offsetInCU: 0x8952, offset: 0x1E4E6, size: 0x8, addend: 0x0, symName: __Z18printDFSBinaryTreeP8TreeNode, symObjAddr: 0x15E0, symBinAddr: 0x100021350, symSize: 0x460 }
  - { offsetInCU: 0x89D9, offset: 0x1E56D, size: 0x8, addend: 0x0, symName: __ZN8TreeNodeC2Ei, symObjAddr: 0x1F20, symBinAddr: 0x1000217B0, symSize: 0xE0 }
  - { offsetInCU: 0x8A10, offset: 0x1E5A4, size: 0x8, addend: 0x0, symName: __ZNSt3__15queueIP8TreeNodeNS_5dequeIS2_NS_9allocatorIS2_EEEEED2Ev, symObjAddr: 0x2000, symBinAddr: 0x100021890, symSize: 0x20 }
  - { offsetInCU: 0x8A3C, offset: 0x1E5D0, size: 0x8, addend: 0x0, symName: __ZNKSt3__112basic_stringIcNS_11char_traitsIcEENS_9allocatorIcEEE4sizeB8ue170006Ev, symObjAddr: 0x45B0, symBinAddr: 0x1000218B0, symSize: 0x50 }
  - { offsetInCU: 0x8A61, offset: 0x1E5F5, size: 0x8, addend: 0x0, symName: __ZNKSt3__112basic_stringIcNS_11char_traitsIcEENS_9allocatorIcEEE15__get_long_sizeB8ue170006Ev, symObjAddr: 0x4690, symBinAddr: 0x100021900, symSize: 0x50 }
  - { offsetInCU: 0x8A86, offset: 0x1E61A, size: 0x8, addend: 0x0, symName: __ZNKSt3__112basic_stringIcNS_11char_traitsIcEENS_9allocatorIcEEE16__get_short_sizeB8ue170006Ev, symObjAddr: 0x46E0, symBinAddr: 0x100021950, symSize: 0x70 }
  - { offsetInCU: 0x8AAB, offset: 0x1E63F, size: 0x8, addend: 0x0, symName: __ZNSt3__15queueIP8TreeNodeNS_5dequeIS2_NS_9allocatorIS2_EEEEEC2B8ue170006Ev, symObjAddr: 0x4780, symBinAddr: 0x1000219C0, symSize: 0x20 }
...
