---
triple:          'x86_64-apple-darwin'
binary-path:     '/Users/fan/Workspace/myLeetcode/Valid_Number/test'
relocations:
  - { offsetInCU: 0x3B, offset: 0x3B, size: 0x8, addend: 0x0, symName: _.str, symObjAddr: 0x16480, symBinAddr: 0x100017020, symSize: 0x0 }
  - { offsetInCU: 0x6B, offset: 0x6B, size: 0x8, addend: 0x0, symName: _.str.1, symObjAddr: 0x164A0, symBinAddr: 0x100017040, symSize: 0x0 }
  - { offsetInCU: 0x88, offset: 0x88, size: 0x8, addend: 0x0, symName: _.str.2, symObjAddr: 0x164C0, symBinAddr: 0x100017060, symSize: 0x0 }
  - { offsetInCU: 0xA5, offset: 0xA5, size: 0x8, addend: 0x0, symName: _.str.3, symObjAddr: 0x164E0, symBinAddr: 0x100017080, symSize: 0x0 }
  - { offsetInCU: 0xD0, offset: 0xD0, size: 0x8, addend: 0x0, symName: __ZNSt3__1L19piecewise_constructE, symObjAddr: 0x16500, symBinAddr: 0x100016FC0, symSize: 0x0 }
  - { offsetInCU: 0xADA9, offset: 0xADA9, size: 0x8, addend: 0x0, symName: __ZNSt3__14endlB7v160006IcNS_11char_traitsIcEEEERNS_13basic_ostreamIT_T0_EES7_, symObjAddr: 0x4330, symBinAddr: 0x100004C70, symSize: 0xB0 }
  - { offsetInCU: 0xB7D3, offset: 0xB7D3, size: 0x8, addend: 0x0, symName: __ZNSt3__1eqB7v160006ERKNS_19__hash_map_iteratorINS_15__hash_iteratorIPNS_11__hash_nodeINS_17__hash_value_typeIN8Solution8CharTypeENS4_5StateEEEPvEEEEEESE_, symObjAddr: 0x49E0, symBinAddr: 0x100005320, symSize: 0x30 }
  - { offsetInCU: 0xB810, offset: 0xB810, size: 0x8, addend: 0x0, symName: __ZNSt3__119__debug_db_insert_cB7v160006INS_13unordered_mapIN8Solution8CharTypeENS2_5StateENS_4hashIS3_EENS_8equal_toIS3_EENS_9allocatorINS_4pairIKS3_S4_EEEEEEEEvPT_, symObjAddr: 0x5810, symBinAddr: 0x100006150, symSize: 0x10 }
  - { offsetInCU: 0xB841, offset: 0xB841, size: 0x8, addend: 0x0, symName: __ZNSt3__116__constrain_hashB7v160006Emm, symObjAddr: 0x79F0, symBinAddr: 0x100008330, symSize: 0x80 }
  - { offsetInCU: 0xB87B, offset: 0xB87B, size: 0x8, addend: 0x0, symName: __ZNSt3__13maxB7v160006ImEERKT_S3_S3_, symObjAddr: 0x7FC0, symBinAddr: 0x100008900, symSize: 0x30 }
  - { offsetInCU: 0xB8BE, offset: 0xB8BE, size: 0x8, addend: 0x0, symName: __ZNSt3__116__is_hash_power2B7v160006Em, symObjAddr: 0x7FF0, symBinAddr: 0x100008930, symSize: 0x40 }
  - { offsetInCU: 0xB993, offset: 0xB993, size: 0x8, addend: 0x0, symName: __ZNSt3__117__libcpp_allocateB7v160006Emm, symObjAddr: 0x8810, symBinAddr: 0x100009150, symSize: 0x20 }
  - { offsetInCU: 0xB9D0, offset: 0xB9D0, size: 0x8, addend: 0x0, symName: __ZNSt3__121__libcpp_operator_newB7v160006IJmEEEPvDpT_, symObjAddr: 0x8850, symBinAddr: 0x100009190, symSize: 0x20 }
  - { offsetInCU: 0xBA09, offset: 0xBA09, size: 0x8, addend: 0x0, symName: __ZNSt3__116__next_hash_pow2B7v160006Em, symObjAddr: 0x9A30, symBinAddr: 0x10000A370, symSize: 0x60 }
  - { offsetInCU: 0xBA35, offset: 0xBA35, size: 0x8, addend: 0x0, symName: __ZNSt3__125__debug_db_invalidate_allB7v160006INS_12__hash_tableINS_17__hash_value_typeIN8Solution8CharTypeENS3_5StateEEENS_22__unordered_map_hasherIS4_S6_NS_4hashIS4_EENS_8equal_toIS4_EELb1EEENS_21__unordered_map_equalIS4_S6_SB_S9_Lb1EEENS_9allocatorIS6_EEEEEEvPT_, symObjAddr: 0x9A90, symBinAddr: 0x10000A3D0, symSize: 0x10 }
  - { offsetInCU: 0xBA82, offset: 0xBA82, size: 0x8, addend: 0x0, symName: __ZNSt3__119__libcpp_deallocateB7v160006EPvmm, symObjAddr: 0x9D80, symBinAddr: 0x10000A6C0, symSize: 0x30 }
  - { offsetInCU: 0xBACA, offset: 0xBACA, size: 0x8, addend: 0x0, symName: __ZNSt3__127__do_deallocate_handle_sizeB7v160006IJEEEvPvmDpT_, symObjAddr: 0x9DB0, symBinAddr: 0x10000A6F0, symSize: 0x20 }
  - { offsetInCU: 0xBB08, offset: 0xBB08, size: 0x8, addend: 0x0, symName: __ZNSt3__124__libcpp_operator_deleteB7v160006IJPvEEEvDpT_, symObjAddr: 0x9DD0, symBinAddr: 0x10000A710, symSize: 0x20 }
  - { offsetInCU: 0xBB3D, offset: 0xBB3D, size: 0x8, addend: 0x0, symName: __ZNSt3__112__libcpp_clzB7v160006Em, symObjAddr: 0x9EB0, symBinAddr: 0x10000A7F0, symSize: 0x20 }
  - { offsetInCU: 0xBB69, offset: 0xBB69, size: 0x8, addend: 0x0, symName: __ZNSt3__13maxB7v160006ImNS_6__lessImmEEEERKT_S5_S5_T0_, symObjAddr: 0x9ED0, symBinAddr: 0x10000A810, symSize: 0x170 }
  - { offsetInCU: 0xBC04, offset: 0xBC04, size: 0x8, addend: 0x0, symName: __ZNSt3__118__debug_db_erase_cB7v160006INS_12__hash_tableINS_17__hash_value_typeIN8Solution8CharTypeENS3_5StateEEENS_22__unordered_map_hasherIS4_S6_NS_4hashIS4_EENS_8equal_toIS4_EELb1EEENS_21__unordered_map_equalIS4_S6_SB_S9_Lb1EEENS_9allocatorIS6_EEEEEEvPT_, symObjAddr: 0xA690, symBinAddr: 0x10000AFD0, symSize: 0x10 }
  - { offsetInCU: 0xBC53, offset: 0xBC53, size: 0x8, addend: 0x0, symName: __ZNSt3__1neB7v160006ERKNS_25__hash_map_const_iteratorINS_21__hash_const_iteratorIPNS_11__hash_nodeINS_17__hash_value_typeIN8Solution8CharTypeENS4_5StateEEEPvEEEEEESE_, symObjAddr: 0xBF60, symBinAddr: 0x10000C8A0, symSize: 0x30 }
  - { offsetInCU: 0xBC90, offset: 0xBC90, size: 0x8, addend: 0x0, symName: __ZNSt3__1neB7v160006ERKNS_21__hash_const_iteratorIPNS_11__hash_nodeINS_17__hash_value_typeIN8Solution8CharTypeENS3_5StateEEEPvEEEESC_, symObjAddr: 0xBFF0, symBinAddr: 0x10000C930, symSize: 0x30 }
  - { offsetInCU: 0xBCCD, offset: 0xBCCD, size: 0x8, addend: 0x0, symName: __ZNSt3__1eqB7v160006ERKNS_21__hash_const_iteratorIPNS_11__hash_nodeINS_17__hash_value_typeIN8Solution8CharTypeENS3_5StateEEEPvEEEESC_, symObjAddr: 0xC020, symBinAddr: 0x10000C960, symSize: 0x90 }
  - { offsetInCU: 0xBD3D, offset: 0xBD3D, size: 0x8, addend: 0x0, symName: __ZNSt3__119__debug_db_insert_cB7v160006INS_13unordered_mapIN8Solution5StateENS1_INS2_8CharTypeES3_NS_4hashIS4_EENS_8equal_toIS4_EENS_9allocatorINS_4pairIKS4_S3_EEEEEENS5_IS3_EENS7_IS3_EENS9_INSA_IKS3_SE_EEEEEEEEvPT_, symObjAddr: 0xCBA0, symBinAddr: 0x10000D4E0, symSize: 0x10 }
  - { offsetInCU: 0xBDBF, offset: 0xBDBF, size: 0x8, addend: 0x0, symName: __ZNSt3__125__debug_db_invalidate_allB7v160006INS_12__hash_tableINS_17__hash_value_typeIN8Solution5StateENS_13unordered_mapINS3_8CharTypeES4_NS_4hashIS6_EENS_8equal_toIS6_EENS_9allocatorINS_4pairIKS6_S4_EEEEEEEENS_22__unordered_map_hasherIS4_SH_NS7_IS4_EENS9_IS4_EELb1EEENS_21__unordered_map_equalIS4_SH_SK_SJ_Lb1EEENSB_ISH_EEEEEEvPT_, symObjAddr: 0x10B20, symBinAddr: 0x100011460, symSize: 0x10 }
  - { offsetInCU: 0xBDF0, offset: 0xBDF0, size: 0x8, addend: 0x0, symName: __ZNSt3__118__debug_db_erase_cB7v160006INS_12__hash_tableINS_17__hash_value_typeIN8Solution5StateENS_13unordered_mapINS3_8CharTypeES4_NS_4hashIS6_EENS_8equal_toIS6_EENS_9allocatorINS_4pairIKS6_S4_EEEEEEEENS_22__unordered_map_hasherIS4_SH_NS7_IS4_EENS9_IS4_EELb1EEENS_21__unordered_map_equalIS4_SH_SK_SJ_Lb1EEENSB_ISH_EEEEEEvPT_, symObjAddr: 0x11490, symBinAddr: 0x100011DD0, symSize: 0x10 }
  - { offsetInCU: 0xBE54, offset: 0xBE54, size: 0x8, addend: 0x0, symName: __ZNSt3__1eqB7v160006ERKNS_15__hash_iteratorIPNS_11__hash_nodeINS_17__hash_value_typeIN8Solution8CharTypeENS3_5StateEEEPvEEEESC_, symObjAddr: 0x118A0, symBinAddr: 0x1000121E0, symSize: 0x90 }
  - { offsetInCU: 0xBEC8, offset: 0xBEC8, size: 0x8, addend: 0x0, symName: __ZNSt3__116forward_as_tupleB7v160006IJRKN8Solution5StateEEEENS_5tupleIJDpOT_EEES8_, symObjAddr: 0x12870, symBinAddr: 0x1000131B0, symSize: 0x180 }
  - { offsetInCU: 0xBF02, offset: 0xBF02, size: 0x8, addend: 0x0, symName: __ZNSt3__116forward_as_tupleB7v160006IJEEENS_5tupleIJDpOT_EEES4_, symObjAddr: 0x129F0, symBinAddr: 0x100013330, symSize: 0x10 }
  - { offsetInCU: 0xBF31, offset: 0xBF31, size: 0x8, addend: 0x0, symName: __ZNSt3__13getB7v160006ILm0EJRKN8Solution5StateEEEERNS_13tuple_elementIXT_ENS_5tupleIJDpT0_EEEE4typeERS9_, symObjAddr: 0x132B0, symBinAddr: 0x100013BF0, symSize: 0x20 }
  - { offsetInCU: 0xBFCB, offset: 0xBFCB, size: 0x8, addend: 0x0, symName: __ZNSt3__116forward_as_tupleB7v160006IJRKN8Solution8CharTypeEEEENS_5tupleIJDpOT_EEES8_, symObjAddr: 0x14CB0, symBinAddr: 0x1000155F0, symSize: 0x180 }
  - { offsetInCU: 0xC005, offset: 0xC005, size: 0x8, addend: 0x0, symName: __ZNSt3__13getB7v160006ILm0EJRKN8Solution8CharTypeEEEERNS_13tuple_elementIXT_ENS_5tupleIJDpT0_EEEE4typeERS9_, symObjAddr: 0x15730, symBinAddr: 0x100016070, symSize: 0x20 }
  - { offsetInCU: 0xC090, offset: 0xC090, size: 0x8, addend: 0x0, symName: __ZNSt3__119__debug_db_insert_cB7v160006INS_12basic_stringIcNS_11char_traitsIcEENS_9allocatorIcEEEEEEvPT_, symObjAddr: 0x15AF0, symBinAddr: 0x100016430, symSize: 0x10 }
  - { offsetInCU: 0xC0C1, offset: 0xC0C1, size: 0x8, addend: 0x0, symName: __ZNSt3__118__constexpr_strlenB7v160006EPKc, symObjAddr: 0x15B90, symBinAddr: 0x1000164D0, symSize: 0x20 }
  - { offsetInCU: 0xC0ED, offset: 0xC0ED, size: 0x8, addend: 0x0, symName: __ZNSt3__19use_facetB7v160006INS_5ctypeIcEEEERKT_RKNS_6localeE, symObjAddr: 0x15DB0, symBinAddr: 0x1000166F0, symSize: 0x30 }
  - { offsetInCU: 0xC794, offset: 0xC794, size: 0x8, addend: 0x0, symName: __ZSt28__throw_bad_array_new_lengthB7v160006v, symObjAddr: 0x87D0, symBinAddr: 0x100009110, symSize: 0x40 }
  - { offsetInCU: 0xCFF9, offset: 0xCFF9, size: 0x8, addend: 0x0, symName: __ZNKSt3__111__enum_hashIN8Solution8CharTypeELb1EEclB7v160006ES2_, symObjAddr: 0x8280, symBinAddr: 0x100008BC0, symSize: 0x150 }
  - { offsetInCU: 0xD559, offset: 0xD559, size: 0x8, addend: 0x0, symName: __ZNKSt3__111__enum_hashIN8Solution5StateELb1EEclB7v160006ES2_, symObjAddr: 0xF320, symBinAddr: 0x10000FC60, symSize: 0x150 }
  - { offsetInCU: 0xF764, offset: 0xF764, size: 0x8, addend: 0x0, symName: _main, symObjAddr: 0x0, symBinAddr: 0x100000940, symSize: 0x4C0 }
  - { offsetInCU: 0xF78E, offset: 0xF78E, size: 0x8, addend: 0x0, symName: __ZN8Solution8isNumberENSt3__112basic_stringIcNS0_11char_traitsIcEENS0_9allocatorIcEEEE, symObjAddr: 0x4C0, symBinAddr: 0x100000E00, symSize: 0x3E20 }
  - { offsetInCU: 0xF832, offset: 0xF832, size: 0x8, addend: 0x0, symName: __ZNSt3__112basic_stringIcNS_11char_traitsIcEENS_9allocatorIcEEEC1B7v160006IDnEEPKc, symObjAddr: 0x42E0, symBinAddr: 0x100004C20, symSize: 0x30 }
  - { offsetInCU: 0xF91B, offset: 0xF91B, size: 0x8, addend: 0x0, symName: __ZNSt3__113basic_ostreamIcNS_11char_traitsIcEEElsB7v160006EPFRS3_S4_E, symObjAddr: 0x4310, symBinAddr: 0x100004C50, symSize: 0x20 }
  - { offsetInCU: 0xF958, offset: 0xF958, size: 0x8, addend: 0x0, symName: __ZNSt3__14pairIKN8Solution8CharTypeENS1_5StateEEC1B7v160006IS2_S4_LPv0EEEOT_OT0_, symObjAddr: 0x43E0, symBinAddr: 0x100004D20, symSize: 0x30 }
  - { offsetInCU: 0xF9B5, offset: 0xF9B5, size: 0x8, addend: 0x0, symName: __ZNSt3__113unordered_mapIN8Solution8CharTypeENS1_5StateENS_4hashIS2_EENS_8equal_toIS2_EENS_9allocatorINS_4pairIKS2_S3_EEEEEC1ESt16initializer_listISB_E, symObjAddr: 0x4410, symBinAddr: 0x100004D50, symSize: 0x230 }
  - { offsetInCU: 0xF9F4, offset: 0xF9F4, size: 0x8, addend: 0x0, symName: __ZNSt3__14pairIKN8Solution5StateENS_13unordered_mapINS1_8CharTypeES2_NS_4hashIS5_EENS_8equal_toIS5_EENS_9allocatorINS0_IKS5_S2_EEEEEEEC1B7v160006ILb1ELPv0EEERS3_RKSE_, symObjAddr: 0x4640, symBinAddr: 0x100004F80, symSize: 0x30 }
  - { offsetInCU: 0xFAFD, offset: 0xFAFD, size: 0x8, addend: 0x0, symName: __ZNSt3__113unordered_mapIN8Solution5StateENS0_INS1_8CharTypeES2_NS_4hashIS3_EENS_8equal_toIS3_EENS_9allocatorINS_4pairIKS3_S2_EEEEEENS4_IS2_EENS6_IS2_EENS8_INS9_IKS2_SD_EEEEEC1ESt16initializer_listISH_E, symObjAddr: 0x4670, symBinAddr: 0x100004FB0, symSize: 0x230 }
  - { offsetInCU: 0xFB3C, offset: 0xFB3C, size: 0x8, addend: 0x0, symName: __ZNSt3__14pairIKN8Solution5StateENS_13unordered_mapINS1_8CharTypeES2_NS_4hashIS5_EENS_8equal_toIS5_EENS_9allocatorINS0_IKS5_S2_EEEEEEED1Ev, symObjAddr: 0x48A0, symBinAddr: 0x1000051E0, symSize: 0x20 }
  - { offsetInCU: 0xFB67, offset: 0xFB67, size: 0x8, addend: 0x0, symName: __ZNSt3__113unordered_mapIN8Solution8CharTypeENS1_5StateENS_4hashIS2_EENS_8equal_toIS2_EENS_9allocatorINS_4pairIKS2_S3_EEEEED1B7v160006Ev, symObjAddr: 0x48C0, symBinAddr: 0x100005200, symSize: 0x20 }
  - { offsetInCU: 0xFB8F, offset: 0xFB8F, size: 0x8, addend: 0x0, symName: __ZNKSt3__112basic_stringIcNS_11char_traitsIcEENS_9allocatorIcEEE6lengthB7v160006Ev, symObjAddr: 0x48E0, symBinAddr: 0x100005220, symSize: 0x20 }
  - { offsetInCU: 0xFBB3, offset: 0xFBB3, size: 0x8, addend: 0x0, symName: __ZN8Solution10toCharTypeEc, symObjAddr: 0x4900, symBinAddr: 0x100005240, symSize: 0xB0 }
  - { offsetInCU: 0xFBE5, offset: 0xFBE5, size: 0x8, addend: 0x0, symName: __ZNSt3__112basic_stringIcNS_11char_traitsIcEENS_9allocatorIcEEEixB7v160006Em, symObjAddr: 0x49B0, symBinAddr: 0x1000052F0, symSize: 0x30 }
  - { offsetInCU: 0xFC19, offset: 0xFC19, size: 0x8, addend: 0x0, symName: __ZNSt3__113unordered_mapIN8Solution5StateENS0_INS1_8CharTypeES2_NS_4hashIS3_EENS_8equal_toIS3_EENS_9allocatorINS_4pairIKS3_S2_EEEEEENS4_IS2_EENS6_IS2_EENS8_INS9_IKS2_SD_EEEEEixERSG_, symObjAddr: 0x4A10, symBinAddr: 0x100005350, symSize: 0x2D0 }
  - { offsetInCU: 0xFC50, offset: 0xFC50, size: 0x8, addend: 0x0, symName: __ZNSt3__113unordered_mapIN8Solution8CharTypeENS1_5StateENS_4hashIS2_EENS_8equal_toIS2_EENS_9allocatorINS_4pairIKS2_S3_EEEEE4findB7v160006ERSA_, symObjAddr: 0x4CE0, symBinAddr: 0x100005620, symSize: 0x220 }
  - { offsetInCU: 0xFC85, offset: 0xFC85, size: 0x8, addend: 0x0, symName: __ZNSt3__113unordered_mapIN8Solution8CharTypeENS1_5StateENS_4hashIS2_EENS_8equal_toIS2_EENS_9allocatorINS_4pairIKS2_S3_EEEEE3endB7v160006Ev, symObjAddr: 0x4F00, symBinAddr: 0x100005840, symSize: 0x210 }
  - { offsetInCU: 0xFCAB, offset: 0xFCAB, size: 0x8, addend: 0x0, symName: __ZNSt3__113unordered_mapIN8Solution8CharTypeENS1_5StateENS_4hashIS2_EENS_8equal_toIS2_EENS_9allocatorINS_4pairIKS2_S3_EEEEEixERSA_, symObjAddr: 0x5110, symBinAddr: 0x100005A50, symSize: 0x2D0 }
  - { offsetInCU: 0xFCE3, offset: 0xFCE3, size: 0x8, addend: 0x0, symName: __ZNSt3__113unordered_mapIN8Solution5StateENS0_INS1_8CharTypeES2_NS_4hashIS3_EENS_8equal_toIS3_EENS_9allocatorINS_4pairIKS3_S2_EEEEEENS4_IS2_EENS6_IS2_EENS8_INS9_IKS2_SD_EEEEED1B7v160006Ev, symObjAddr: 0x53E0, symBinAddr: 0x100005D20, symSize: 0x20 }
  - { offsetInCU: 0xFD0C, offset: 0xFD0C, size: 0x8, addend: 0x0, symName: __ZNSt3__14pairIKN8Solution8CharTypeENS1_5StateEEC2B7v160006IS2_S4_LPv0EEEOT_OT0_, symObjAddr: 0x5400, symBinAddr: 0x100005D40, symSize: 0x170 }
  - { offsetInCU: 0xFD69, offset: 0xFD69, size: 0x8, addend: 0x0, symName: __ZNSt3__113unordered_mapIN8Solution8CharTypeENS1_5StateENS_4hashIS2_EENS_8equal_toIS2_EENS_9allocatorINS_4pairIKS2_S3_EEEEEC2ESt16initializer_listISB_E, symObjAddr: 0x5570, symBinAddr: 0x100005EB0, symSize: 0x280 }
  - { offsetInCU: 0xFDA8, offset: 0xFDA8, size: 0x8, addend: 0x0, symName: __ZNSt3__112__hash_tableINS_17__hash_value_typeIN8Solution8CharTypeENS2_5StateEEENS_22__unordered_map_hasherIS3_S5_NS_4hashIS3_EENS_8equal_toIS3_EELb1EEENS_21__unordered_map_equalIS3_S5_SA_S8_Lb1EEENS_9allocatorIS5_EEEC1Ev, symObjAddr: 0x57F0, symBinAddr: 0x100006130, symSize: 0x20 }
  - { offsetInCU: 0xFDD3, offset: 0xFDD3, size: 0x8, addend: 0x0, symName: __ZNSt3__113unordered_mapIN8Solution8CharTypeENS1_5StateENS_4hashIS2_EENS_8equal_toIS2_EENS_9allocatorINS_4pairIKS2_S3_EEEEE6insertIPKSB_EEvT_SH_, symObjAddr: 0x5820, symBinAddr: 0x100006160, symSize: 0x200 }
  - { offsetInCU: 0xFE23, offset: 0xFE23, size: 0x8, addend: 0x0, symName: __ZNKSt16initializer_listINSt3__14pairIKN8Solution8CharTypeENS2_5StateEEEE5beginB7v160006Ev, symObjAddr: 0x5A20, symBinAddr: 0x100006360, symSize: 0x50 }
  - { offsetInCU: 0xFE47, offset: 0xFE47, size: 0x8, addend: 0x0, symName: __ZNKSt16initializer_listINSt3__14pairIKN8Solution8CharTypeENS2_5StateEEEE3endB7v160006Ev, symObjAddr: 0x5A70, symBinAddr: 0x1000063B0, symSize: 0x90 }
  - { offsetInCU: 0xFE6C, offset: 0xFE6C, size: 0x8, addend: 0x0, symName: __ZNSt3__112__hash_tableINS_17__hash_value_typeIN8Solution8CharTypeENS2_5StateEEENS_22__unordered_map_hasherIS3_S5_NS_4hashIS3_EENS_8equal_toIS3_EELb1EEENS_21__unordered_map_equalIS3_S5_SA_S8_Lb1EEENS_9allocatorIS5_EEED1Ev, symObjAddr: 0x5B00, symBinAddr: 0x100006440, symSize: 0x20 }
  - { offsetInCU: 0xFE97, offset: 0xFE97, size: 0x8, addend: 0x0, symName: __ZNSt3__112__hash_tableINS_17__hash_value_typeIN8Solution8CharTypeENS2_5StateEEENS_22__unordered_map_hasherIS3_S5_NS_4hashIS3_EENS_8equal_toIS3_EELb1EEENS_21__unordered_map_equalIS3_S5_SA_S8_Lb1EEENS_9allocatorIS5_EEEC2Ev, symObjAddr: 0x5B20, symBinAddr: 0x100006460, symSize: 0x2E0 }
  - { offsetInCU: 0xFEC3, offset: 0xFEC3, size: 0x8, addend: 0x0, symName: __ZNSt3__110unique_ptrIA_PNS_16__hash_node_baseIPNS_11__hash_nodeINS_17__hash_value_typeIN8Solution8CharTypeENS4_5StateEEEPvEEEENS_25__bucket_list_deallocatorINS_9allocatorISC_EEEEEC1B7v160006ILb1EvEEv, symObjAddr: 0x5E00, symBinAddr: 0x100006740, symSize: 0x20 }
  - { offsetInCU: 0xFEF7, offset: 0xFEF7, size: 0x8, addend: 0x0, symName: __ZNSt3__117__compressed_pairINS_16__hash_node_baseIPNS_11__hash_nodeINS_17__hash_value_typeIN8Solution8CharTypeENS4_5StateEEEPvEEEENS_9allocatorIS9_EEEC1B7v160006ILb1EvEEv, symObjAddr: 0x5E20, symBinAddr: 0x100006760, symSize: 0x20 }
  - { offsetInCU: 0xFF35, offset: 0xFF35, size: 0x8, addend: 0x0, symName: __ZNSt3__117__compressed_pairImNS_22__unordered_map_hasherIN8Solution8CharTypeENS_17__hash_value_typeIS3_NS2_5StateEEENS_4hashIS3_EENS_8equal_toIS3_EELb1EEEEC1B7v160006IiNS_18__default_init_tagEEEOT_OT0_, symObjAddr: 0x5E50, symBinAddr: 0x100006790, symSize: 0x30 }
  - { offsetInCU: 0xFF91, offset: 0xFF91, size: 0x8, addend: 0x0, symName: __ZNSt3__117__compressed_pairIfNS_21__unordered_map_equalIN8Solution8CharTypeENS_17__hash_value_typeIS3_NS2_5StateEEENS_8equal_toIS3_EENS_4hashIS3_EELb1EEEEC1B7v160006IfNS_18__default_init_tagEEEOT_OT0_, symObjAddr: 0x5E80, symBinAddr: 0x1000067C0, symSize: 0x30 }
  - { offsetInCU: 0xFFE8, offset: 0xFFE8, size: 0x8, addend: 0x0, symName: __ZNSt3__110unique_ptrIA_PNS_16__hash_node_baseIPNS_11__hash_nodeINS_17__hash_value_typeIN8Solution8CharTypeENS4_5StateEEEPvEEEENS_25__bucket_list_deallocatorINS_9allocatorISC_EEEEEC2B7v160006ILb1EvEEv, symObjAddr: 0x5EB0, symBinAddr: 0x1000067F0, symSize: 0x170 }
  - { offsetInCU: 0x10022, offset: 0x10022, size: 0x8, addend: 0x0, symName: __ZNSt3__117__compressed_pairIPPNS_16__hash_node_baseIPNS_11__hash_nodeINS_17__hash_value_typeIN8Solution8CharTypeENS4_5StateEEEPvEEEENS_25__bucket_list_deallocatorINS_9allocatorISC_EEEEEC1B7v160006INS_16__value_init_tagESK_EEOT_OT0_, symObjAddr: 0x6020, symBinAddr: 0x100006960, symSize: 0x30 }
  - { offsetInCU: 0x10079, offset: 0x10079, size: 0x8, addend: 0x0, symName: __ZNSt3__117__compressed_pairIPPNS_16__hash_node_baseIPNS_11__hash_nodeINS_17__hash_value_typeIN8Solution8CharTypeENS4_5StateEEEPvEEEENS_25__bucket_list_deallocatorINS_9allocatorISC_EEEEEC2B7v160006INS_16__value_init_tagESK_EEOT_OT0_, symObjAddr: 0x6050, symBinAddr: 0x100006990, symSize: 0x40 }
  - { offsetInCU: 0x100D0, offset: 0x100D0, size: 0x8, addend: 0x0, symName: __ZNSt3__122__compressed_pair_elemIPPNS_16__hash_node_baseIPNS_11__hash_nodeINS_17__hash_value_typeIN8Solution8CharTypeENS4_5StateEEEPvEEEELi0ELb0EEC2B7v160006ENS_16__value_init_tagE, symObjAddr: 0x6090, symBinAddr: 0x1000069D0, symSize: 0x50 }
  - { offsetInCU: 0x10104, offset: 0x10104, size: 0x8, addend: 0x0, symName: __ZNSt3__122__compressed_pair_elemINS_25__bucket_list_deallocatorINS_9allocatorIPNS_16__hash_node_baseIPNS_11__hash_nodeINS_17__hash_value_typeIN8Solution8CharTypeENS6_5StateEEEPvEEEEEEEELi1ELb0EEC2B7v160006ENS_16__value_init_tagE, symObjAddr: 0x60E0, symBinAddr: 0x100006A20, symSize: 0x20 }
  - { offsetInCU: 0x10138, offset: 0x10138, size: 0x8, addend: 0x0, symName: __ZNSt3__125__bucket_list_deallocatorINS_9allocatorIPNS_16__hash_node_baseIPNS_11__hash_nodeINS_17__hash_value_typeIN8Solution8CharTypeENS5_5StateEEEPvEEEEEEEC1B7v160006Ev, symObjAddr: 0x6100, symBinAddr: 0x100006A40, symSize: 0x20 }
  - { offsetInCU: 0x10161, offset: 0x10161, size: 0x8, addend: 0x0, symName: __ZNSt3__125__bucket_list_deallocatorINS_9allocatorIPNS_16__hash_node_baseIPNS_11__hash_nodeINS_17__hash_value_typeIN8Solution8CharTypeENS5_5StateEEEPvEEEEEEEC2B7v160006Ev, symObjAddr: 0x6120, symBinAddr: 0x100006A60, symSize: 0x1D0 }
  - { offsetInCU: 0x1018B, offset: 0x1018B, size: 0x8, addend: 0x0, symName: __ZNSt3__117__compressed_pairImNS_9allocatorIPNS_16__hash_node_baseIPNS_11__hash_nodeINS_17__hash_value_typeIN8Solution8CharTypeENS5_5StateEEEPvEEEEEEEC1B7v160006IiNS_18__default_init_tagEEEOT_OT0_, symObjAddr: 0x62F0, symBinAddr: 0x100006C30, symSize: 0x30 }
  - { offsetInCU: 0x101E2, offset: 0x101E2, size: 0x8, addend: 0x0, symName: __ZNSt3__117__compressed_pairImNS_9allocatorIPNS_16__hash_node_baseIPNS_11__hash_nodeINS_17__hash_value_typeIN8Solution8CharTypeENS5_5StateEEEPvEEEEEEEC2B7v160006IiNS_18__default_init_tagEEEOT_OT0_, symObjAddr: 0x6320, symBinAddr: 0x100006C60, symSize: 0x40 }
  - { offsetInCU: 0x10239, offset: 0x10239, size: 0x8, addend: 0x0, symName: __ZNSt3__122__compressed_pair_elemImLi0ELb0EEC2B7v160006IivEEOT_, symObjAddr: 0x6360, symBinAddr: 0x100006CA0, symSize: 0xB0 }
  - { offsetInCU: 0x1027A, offset: 0x1027A, size: 0x8, addend: 0x0, symName: __ZNSt3__122__compressed_pair_elemINS_9allocatorIPNS_16__hash_node_baseIPNS_11__hash_nodeINS_17__hash_value_typeIN8Solution8CharTypeENS5_5StateEEEPvEEEEEELi1ELb1EEC2B7v160006ENS_18__default_init_tagE, symObjAddr: 0x6410, symBinAddr: 0x100006D50, symSize: 0x20 }
  - { offsetInCU: 0x102AE, offset: 0x102AE, size: 0x8, addend: 0x0, symName: __ZNSt3__19allocatorIPNS_16__hash_node_baseIPNS_11__hash_nodeINS_17__hash_value_typeIN8Solution8CharTypeENS4_5StateEEEPvEEEEEC2B7v160006Ev, symObjAddr: 0x6430, symBinAddr: 0x100006D70, symSize: 0x20 }
  - { offsetInCU: 0x102D7, offset: 0x102D7, size: 0x8, addend: 0x0, symName: __ZNSt3__116__non_trivial_ifILb1ENS_9allocatorIPNS_16__hash_node_baseIPNS_11__hash_nodeINS_17__hash_value_typeIN8Solution8CharTypeENS5_5StateEEEPvEEEEEEEC2B7v160006Ev, symObjAddr: 0x6450, symBinAddr: 0x100006D90, symSize: 0x10 }
  - { offsetInCU: 0x10300, offset: 0x10300, size: 0x8, addend: 0x0, symName: __ZNSt3__117__compressed_pairINS_16__hash_node_baseIPNS_11__hash_nodeINS_17__hash_value_typeIN8Solution8CharTypeENS4_5StateEEEPvEEEENS_9allocatorIS9_EEEC2B7v160006ILb1EvEEv, symObjAddr: 0x6460, symBinAddr: 0x100006DA0, symSize: 0x30 }
  - { offsetInCU: 0x10334, offset: 0x10334, size: 0x8, addend: 0x0, symName: __ZNSt3__122__compressed_pair_elemINS_16__hash_node_baseIPNS_11__hash_nodeINS_17__hash_value_typeIN8Solution8CharTypeENS4_5StateEEEPvEEEELi0ELb0EEC2B7v160006ENS_16__value_init_tagE, symObjAddr: 0x6490, symBinAddr: 0x100006DD0, symSize: 0x20 }
  - { offsetInCU: 0x10368, offset: 0x10368, size: 0x8, addend: 0x0, symName: __ZNSt3__122__compressed_pair_elemINS_9allocatorINS_11__hash_nodeINS_17__hash_value_typeIN8Solution8CharTypeENS4_5StateEEEPvEEEELi1ELb1EEC2B7v160006ENS_16__value_init_tagE, symObjAddr: 0x64B0, symBinAddr: 0x100006DF0, symSize: 0x20 }
  - { offsetInCU: 0x1039C, offset: 0x1039C, size: 0x8, addend: 0x0, symName: __ZNSt3__116__hash_node_baseIPNS_11__hash_nodeINS_17__hash_value_typeIN8Solution8CharTypeENS3_5StateEEEPvEEEC1B7v160006Ev, symObjAddr: 0x64D0, symBinAddr: 0x100006E10, symSize: 0x20 }
  - { offsetInCU: 0x103C5, offset: 0x103C5, size: 0x8, addend: 0x0, symName: __ZNSt3__116__hash_node_baseIPNS_11__hash_nodeINS_17__hash_value_typeIN8Solution8CharTypeENS3_5StateEEEPvEEEC2B7v160006Ev, symObjAddr: 0x64F0, symBinAddr: 0x100006E30, symSize: 0x50 }
  - { offsetInCU: 0x103EE, offset: 0x103EE, size: 0x8, addend: 0x0, symName: __ZNSt3__19allocatorINS_11__hash_nodeINS_17__hash_value_typeIN8Solution8CharTypeENS3_5StateEEEPvEEEC2B7v160006Ev, symObjAddr: 0x6540, symBinAddr: 0x100006E80, symSize: 0x20 }
  - { offsetInCU: 0x10417, offset: 0x10417, size: 0x8, addend: 0x0, symName: __ZNSt3__116__non_trivial_ifILb1ENS_9allocatorINS_11__hash_nodeINS_17__hash_value_typeIN8Solution8CharTypeENS4_5StateEEEPvEEEEEC2B7v160006Ev, symObjAddr: 0x6560, symBinAddr: 0x100006EA0, symSize: 0x10 }
  - { offsetInCU: 0x10440, offset: 0x10440, size: 0x8, addend: 0x0, symName: __ZNSt3__117__compressed_pairImNS_22__unordered_map_hasherIN8Solution8CharTypeENS_17__hash_value_typeIS3_NS2_5StateEEENS_4hashIS3_EENS_8equal_toIS3_EELb1EEEEC2B7v160006IiNS_18__default_init_tagEEEOT_OT0_, symObjAddr: 0x6570, symBinAddr: 0x100006EB0, symSize: 0x40 }
  - { offsetInCU: 0x10497, offset: 0x10497, size: 0x8, addend: 0x0, symName: __ZNSt3__122__compressed_pair_elemINS_22__unordered_map_hasherIN8Solution8CharTypeENS_17__hash_value_typeIS3_NS2_5StateEEENS_4hashIS3_EENS_8equal_toIS3_EELb1EEELi1ELb1EEC2B7v160006ENS_18__default_init_tagE, symObjAddr: 0x65B0, symBinAddr: 0x100006EF0, symSize: 0x20 }
  - { offsetInCU: 0x104CB, offset: 0x104CB, size: 0x8, addend: 0x0, symName: __ZNSt3__122__unordered_map_hasherIN8Solution8CharTypeENS_17__hash_value_typeIS2_NS1_5StateEEENS_4hashIS2_EENS_8equal_toIS2_EELb1EEC2B7v160006Ev, symObjAddr: 0x65D0, symBinAddr: 0x100006F10, symSize: 0x10 }
  - { offsetInCU: 0x104F4, offset: 0x104F4, size: 0x8, addend: 0x0, symName: __ZNSt3__117__compressed_pairIfNS_21__unordered_map_equalIN8Solution8CharTypeENS_17__hash_value_typeIS3_NS2_5StateEEENS_8equal_toIS3_EENS_4hashIS3_EELb1EEEEC2B7v160006IfNS_18__default_init_tagEEEOT_OT0_, symObjAddr: 0x65E0, symBinAddr: 0x100006F20, symSize: 0x40 }
  - { offsetInCU: 0x1054B, offset: 0x1054B, size: 0x8, addend: 0x0, symName: __ZNSt3__122__compressed_pair_elemIfLi0ELb0EEC2B7v160006IfvEEOT_, symObjAddr: 0x6620, symBinAddr: 0x100006F60, symSize: 0xD0 }
  - { offsetInCU: 0x1058C, offset: 0x1058C, size: 0x8, addend: 0x0, symName: __ZNSt3__122__compressed_pair_elemINS_21__unordered_map_equalIN8Solution8CharTypeENS_17__hash_value_typeIS3_NS2_5StateEEENS_8equal_toIS3_EENS_4hashIS3_EELb1EEELi1ELb1EEC2B7v160006ENS_18__default_init_tagE, symObjAddr: 0x66F0, symBinAddr: 0x100007030, symSize: 0x20 }
  - { offsetInCU: 0x105C0, offset: 0x105C0, size: 0x8, addend: 0x0, symName: __ZNSt3__121__unordered_map_equalIN8Solution8CharTypeENS_17__hash_value_typeIS2_NS1_5StateEEENS_8equal_toIS2_EENS_4hashIS2_EELb1EEC2B7v160006Ev, symObjAddr: 0x6710, symBinAddr: 0x100007050, symSize: 0x10 }
  - { offsetInCU: 0x105E8, offset: 0x105E8, size: 0x8, addend: 0x0, symName: __ZNSt3__112__hash_tableINS_17__hash_value_typeIN8Solution8CharTypeENS2_5StateEEENS_22__unordered_map_hasherIS3_S5_NS_4hashIS3_EENS_8equal_toIS3_EELb1EEENS_21__unordered_map_equalIS3_S5_SA_S8_Lb1EEENS_9allocatorIS5_EEE15__insert_uniqueB7v160006ERKNS_4pairIKS3_S4_EE, symObjAddr: 0x6720, symBinAddr: 0x100007060, symSize: 0x230 }
  - { offsetInCU: 0x1061E, offset: 0x1061E, size: 0x8, addend: 0x0, symName: __ZNSt3__112__hash_tableINS_17__hash_value_typeIN8Solution8CharTypeENS2_5StateEEENS_22__unordered_map_hasherIS3_S5_NS_4hashIS3_EENS_8equal_toIS3_EELb1EEENS_21__unordered_map_equalIS3_S5_SA_S8_Lb1EEENS_9allocatorIS5_EEE25__emplace_unique_key_argsIS3_JRKNS_4pairIKS3_S4_EEEEENSI_INS_15__hash_iteratorIPNS_11__hash_nodeIS5_PvEEEEbEERKT_DpOT0_, symObjAddr: 0x6950, symBinAddr: 0x100007290, symSize: 0xFC0 }
  - { offsetInCU: 0x1070F, offset: 0x1070F, size: 0x8, addend: 0x0, symName: __ZNSt3__122__hash_key_value_typesINS_17__hash_value_typeIN8Solution8CharTypeENS2_5StateEEEE9__get_keyB7v160006ERKNS_4pairIKS3_S4_EE, symObjAddr: 0x7910, symBinAddr: 0x100008250, symSize: 0x10 }
  - { offsetInCU: 0x10731, offset: 0x10731, size: 0x8, addend: 0x0, symName: __ZNSt3__112__hash_tableINS_17__hash_value_typeIN8Solution8CharTypeENS2_5StateEEENS_22__unordered_map_hasherIS3_S5_NS_4hashIS3_EENS_8equal_toIS3_EELb1EEENS_21__unordered_map_equalIS3_S5_SA_S8_Lb1EEENS_9allocatorIS5_EEE13hash_functionB7v160006Ev, symObjAddr: 0x7920, symBinAddr: 0x100008260, symSize: 0x20 }
  - { offsetInCU: 0x10755, offset: 0x10755, size: 0x8, addend: 0x0, symName: __ZNKSt3__122__unordered_map_hasherIN8Solution8CharTypeENS_17__hash_value_typeIS2_NS1_5StateEEENS_4hashIS2_EENS_8equal_toIS2_EELb1EEclB7v160006ERKS2_, symObjAddr: 0x7940, symBinAddr: 0x100008280, symSize: 0x80 }
  - { offsetInCU: 0x10788, offset: 0x10788, size: 0x8, addend: 0x0, symName: __ZNKSt3__112__hash_tableINS_17__hash_value_typeIN8Solution8CharTypeENS2_5StateEEENS_22__unordered_map_hasherIS3_S5_NS_4hashIS3_EENS_8equal_toIS3_EELb1EEENS_21__unordered_map_equalIS3_S5_SA_S8_Lb1EEENS_9allocatorIS5_EEE12bucket_countB7v160006Ev, symObjAddr: 0x79C0, symBinAddr: 0x100008300, symSize: 0x30 }
  - { offsetInCU: 0x107AC, offset: 0x107AC, size: 0x8, addend: 0x0, symName: __ZNKSt3__110unique_ptrIA_PNS_16__hash_node_baseIPNS_11__hash_nodeINS_17__hash_value_typeIN8Solution8CharTypeENS4_5StateEEEPvEEEENS_25__bucket_list_deallocatorINS_9allocatorISC_EEEEEixB7v160006Em, symObjAddr: 0x7A70, symBinAddr: 0x1000083B0, symSize: 0x60 }
  - { offsetInCU: 0x107DF, offset: 0x107DF, size: 0x8, addend: 0x0, symName: __ZNKSt3__116__hash_node_baseIPNS_11__hash_nodeINS_17__hash_value_typeIN8Solution8CharTypeENS3_5StateEEEPvEEE6__hashB7v160006Ev, symObjAddr: 0x7AD0, symBinAddr: 0x100008410, symSize: 0x50 }
  - { offsetInCU: 0x10803, offset: 0x10803, size: 0x8, addend: 0x0, symName: __ZNSt3__112__hash_tableINS_17__hash_value_typeIN8Solution8CharTypeENS2_5StateEEENS_22__unordered_map_hasherIS3_S5_NS_4hashIS3_EENS_8equal_toIS3_EELb1EEENS_21__unordered_map_equalIS3_S5_SA_S8_Lb1EEENS_9allocatorIS5_EEE6key_eqB7v160006Ev, symObjAddr: 0x7B20, symBinAddr: 0x100008460, symSize: 0x20 }
  - { offsetInCU: 0x10827, offset: 0x10827, size: 0x8, addend: 0x0, symName: __ZNKSt3__121__unordered_map_equalIN8Solution8CharTypeENS_17__hash_value_typeIS2_NS1_5StateEEENS_8equal_toIS2_EENS_4hashIS2_EELb1EEclB7v160006ERKS5_RKS2_, symObjAddr: 0x7B40, symBinAddr: 0x100008480, symSize: 0x40 }
  - { offsetInCU: 0x10869, offset: 0x10869, size: 0x8, addend: 0x0, symName: __ZNSt3__116__hash_node_baseIPNS_11__hash_nodeINS_17__hash_value_typeIN8Solution8CharTypeENS3_5StateEEEPvEEE8__upcastB7v160006Ev, symObjAddr: 0x7B80, symBinAddr: 0x1000084C0, symSize: 0x20 }
  - { offsetInCU: 0x1088E, offset: 0x1088E, size: 0x8, addend: 0x0, symName: __ZNSt3__112__hash_tableINS_17__hash_value_typeIN8Solution8CharTypeENS2_5StateEEENS_22__unordered_map_hasherIS3_S5_NS_4hashIS3_EENS_8equal_toIS3_EELb1EEENS_21__unordered_map_equalIS3_S5_SA_S8_Lb1EEENS_9allocatorIS5_EEE21__construct_node_hashIRKNS_4pairIKS3_S4_EEJEEENS_10unique_ptrINS_11__hash_nodeIS5_PvEENS_22__hash_node_destructorINSE_ISQ_EEEEEEmOT_DpOT0_, symObjAddr: 0x7BA0, symBinAddr: 0x1000084E0, symSize: 0x3B0 }
  - { offsetInCU: 0x10906, offset: 0x10906, size: 0x8, addend: 0x0, symName: __ZNSt3__112__hash_tableINS_17__hash_value_typeIN8Solution8CharTypeENS2_5StateEEENS_22__unordered_map_hasherIS3_S5_NS_4hashIS3_EENS_8equal_toIS3_EELb1EEENS_21__unordered_map_equalIS3_S5_SA_S8_Lb1EEENS_9allocatorIS5_EEE4sizeB7v160006Ev, symObjAddr: 0x7F50, symBinAddr: 0x100008890, symSize: 0x20 }
  - { offsetInCU: 0x1092A, offset: 0x1092A, size: 0x8, addend: 0x0, symName: __ZNSt3__112__hash_tableINS_17__hash_value_typeIN8Solution8CharTypeENS2_5StateEEENS_22__unordered_map_hasherIS3_S5_NS_4hashIS3_EENS_8equal_toIS3_EELb1EEENS_21__unordered_map_equalIS3_S5_SA_S8_Lb1EEENS_9allocatorIS5_EEE15max_load_factorB7v160006Ev, symObjAddr: 0x7F70, symBinAddr: 0x1000088B0, symSize: 0x20 }
  - { offsetInCU: 0x1094E, offset: 0x1094E, size: 0x8, addend: 0x0, symName: __ZNSt3__112__hash_tableINS_17__hash_value_typeIN8Solution8CharTypeENS2_5StateEEENS_22__unordered_map_hasherIS3_S5_NS_4hashIS3_EENS_8equal_toIS3_EELb1EEENS_21__unordered_map_equalIS3_S5_SA_S8_Lb1EEENS_9allocatorIS5_EEE15__rehash_uniqueB7v160006Em, symObjAddr: 0x7F90, symBinAddr: 0x1000088D0, symSize: 0x30 }
  - { offsetInCU: 0x10981, offset: 0x10981, size: 0x8, addend: 0x0, symName: __Z4ceilB7v160006f, symObjAddr: 0x8030, symBinAddr: 0x100008970, symSize: 0x20 }
  - { offsetInCU: 0x109AF, offset: 0x109AF, size: 0x8, addend: 0x0, symName: __ZNSt3__117__compressed_pairINS_16__hash_node_baseIPNS_11__hash_nodeINS_17__hash_value_typeIN8Solution8CharTypeENS4_5StateEEEPvEEEENS_9allocatorIS9_EEE5firstB7v160006Ev, symObjAddr: 0x8050, symBinAddr: 0x100008990, symSize: 0x20 }
  - { offsetInCU: 0x109D3, offset: 0x109D3, size: 0x8, addend: 0x0, symName: __ZNSt3__116__hash_node_baseIPNS_11__hash_nodeINS_17__hash_value_typeIN8Solution8CharTypeENS3_5StateEEEPvEEE5__ptrB7v160006Ev, symObjAddr: 0x8070, symBinAddr: 0x1000089B0, symSize: 0x20 }
  - { offsetInCU: 0x109F7, offset: 0x109F7, size: 0x8, addend: 0x0, symName: __ZNKSt3__110unique_ptrINS_11__hash_nodeINS_17__hash_value_typeIN8Solution8CharTypeENS3_5StateEEEPvEENS_22__hash_node_destructorINS_9allocatorIS8_EEEEEptB7v160006Ev, symObjAddr: 0x8090, symBinAddr: 0x1000089D0, symSize: 0x50 }
  - { offsetInCU: 0x10A1B, offset: 0x10A1B, size: 0x8, addend: 0x0, symName: __ZNKSt3__110unique_ptrINS_11__hash_nodeINS_17__hash_value_typeIN8Solution8CharTypeENS3_5StateEEEPvEENS_22__hash_node_destructorINS_9allocatorIS8_EEEEE3getB7v160006Ev, symObjAddr: 0x80E0, symBinAddr: 0x100008A20, symSize: 0x50 }
  - { offsetInCU: 0x10A3F, offset: 0x10A3F, size: 0x8, addend: 0x0, symName: __ZNSt3__110unique_ptrINS_11__hash_nodeINS_17__hash_value_typeIN8Solution8CharTypeENS3_5StateEEEPvEENS_22__hash_node_destructorINS_9allocatorIS8_EEEEE7releaseB7v160006Ev, symObjAddr: 0x8130, symBinAddr: 0x100008A70, symSize: 0xA0 }
  - { offsetInCU: 0x10A74, offset: 0x10A74, size: 0x8, addend: 0x0, symName: __ZNSt3__110unique_ptrINS_11__hash_nodeINS_17__hash_value_typeIN8Solution8CharTypeENS3_5StateEEEPvEENS_22__hash_node_destructorINS_9allocatorIS8_EEEEED1B7v160006Ev, symObjAddr: 0x81D0, symBinAddr: 0x100008B10, symSize: 0x20 }
  - { offsetInCU: 0x10A9D, offset: 0x10A9D, size: 0x8, addend: 0x0, symName: __ZNSt3__115__hash_iteratorIPNS_11__hash_nodeINS_17__hash_value_typeIN8Solution8CharTypeENS3_5StateEEEPvEEEC1B7v160006EPNS_16__hash_node_baseIS9_EEPKv, symObjAddr: 0x81F0, symBinAddr: 0x100008B30, symSize: 0x30 }
  - { offsetInCU: 0x10AEE, offset: 0x10AEE, size: 0x8, addend: 0x0, symName: __ZNSt3__14pairINS_15__hash_iteratorIPNS_11__hash_nodeINS_17__hash_value_typeIN8Solution8CharTypeENS4_5StateEEEPvEEEEbEC1B7v160006ISB_RbLS8_0EEEOT_OT0_, symObjAddr: 0x8220, symBinAddr: 0x100008B60, symSize: 0x30 }
  - { offsetInCU: 0x10B4A, offset: 0x10B4A, size: 0x8, addend: 0x0, symName: __ZNSt3__117__compressed_pairImNS_22__unordered_map_hasherIN8Solution8CharTypeENS_17__hash_value_typeIS3_NS2_5StateEEENS_4hashIS3_EENS_8equal_toIS3_EELb1EEEE6secondB7v160006Ev, symObjAddr: 0x8250, symBinAddr: 0x100008B90, symSize: 0x20 }
  - { offsetInCU: 0x10B6E, offset: 0x10B6E, size: 0x8, addend: 0x0, symName: __ZNSt3__122__compressed_pair_elemINS_22__unordered_map_hasherIN8Solution8CharTypeENS_17__hash_value_typeIS3_NS2_5StateEEENS_4hashIS3_EENS_8equal_toIS3_EELb1EEELi1ELb1EE5__getB7v160006Ev, symObjAddr: 0x8270, symBinAddr: 0x100008BB0, symSize: 0x10 }
  - { offsetInCU: 0x10B9C, offset: 0x10B9C, size: 0x8, addend: 0x0, symName: __ZNKSt3__14hashIjEclB7v160006Ej, symObjAddr: 0x83D0, symBinAddr: 0x100008D10, symSize: 0x10 }
  - { offsetInCU: 0x10BCF, offset: 0x10BCF, size: 0x8, addend: 0x0, symName: __ZNKSt3__110unique_ptrIA_PNS_16__hash_node_baseIPNS_11__hash_nodeINS_17__hash_value_typeIN8Solution8CharTypeENS4_5StateEEEPvEEEENS_25__bucket_list_deallocatorINS_9allocatorISC_EEEEE11get_deleterB7v160006Ev, symObjAddr: 0x83E0, symBinAddr: 0x100008D20, symSize: 0x20 }
  - { offsetInCU: 0x10BF3, offset: 0x10BF3, size: 0x8, addend: 0x0, symName: __ZNKSt3__125__bucket_list_deallocatorINS_9allocatorIPNS_16__hash_node_baseIPNS_11__hash_nodeINS_17__hash_value_typeIN8Solution8CharTypeENS5_5StateEEEPvEEEEEEE4sizeB7v160006Ev, symObjAddr: 0x8400, symBinAddr: 0x100008D40, symSize: 0x50 }
  - { offsetInCU: 0x10C17, offset: 0x10C17, size: 0x8, addend: 0x0, symName: __ZNKSt3__117__compressed_pairIPPNS_16__hash_node_baseIPNS_11__hash_nodeINS_17__hash_value_typeIN8Solution8CharTypeENS4_5StateEEEPvEEEENS_25__bucket_list_deallocatorINS_9allocatorISC_EEEEE6secondB7v160006Ev, symObjAddr: 0x8450, symBinAddr: 0x100008D90, symSize: 0x20 }
  - { offsetInCU: 0x10C3B, offset: 0x10C3B, size: 0x8, addend: 0x0, symName: __ZNKSt3__122__compressed_pair_elemINS_25__bucket_list_deallocatorINS_9allocatorIPNS_16__hash_node_baseIPNS_11__hash_nodeINS_17__hash_value_typeIN8Solution8CharTypeENS6_5StateEEEPvEEEEEEEELi1ELb0EE5__getB7v160006Ev, symObjAddr: 0x8470, symBinAddr: 0x100008DB0, symSize: 0x10 }
  - { offsetInCU: 0x10C5F, offset: 0x10C5F, size: 0x8, addend: 0x0, symName: __ZNKSt3__117__compressed_pairImNS_9allocatorIPNS_16__hash_node_baseIPNS_11__hash_nodeINS_17__hash_value_typeIN8Solution8CharTypeENS5_5StateEEEPvEEEEEEE5firstB7v160006Ev, symObjAddr: 0x8480, symBinAddr: 0x100008DC0, symSize: 0x20 }
  - { offsetInCU: 0x10C83, offset: 0x10C83, size: 0x8, addend: 0x0, symName: __ZNKSt3__122__compressed_pair_elemImLi0ELb0EE5__getB7v160006Ev, symObjAddr: 0x84A0, symBinAddr: 0x100008DE0, symSize: 0x10 }
  - { offsetInCU: 0x10CA7, offset: 0x10CA7, size: 0x8, addend: 0x0, symName: __ZNKSt3__117__compressed_pairIPPNS_16__hash_node_baseIPNS_11__hash_nodeINS_17__hash_value_typeIN8Solution8CharTypeENS4_5StateEEEPvEEEENS_25__bucket_list_deallocatorINS_9allocatorISC_EEEEE5firstB7v160006Ev, symObjAddr: 0x84B0, symBinAddr: 0x100008DF0, symSize: 0x20 }
  - { offsetInCU: 0x10CCB, offset: 0x10CCB, size: 0x8, addend: 0x0, symName: __ZNKSt3__122__compressed_pair_elemIPPNS_16__hash_node_baseIPNS_11__hash_nodeINS_17__hash_value_typeIN8Solution8CharTypeENS4_5StateEEEPvEEEELi0ELb0EE5__getB7v160006Ev, symObjAddr: 0x84D0, symBinAddr: 0x100008E10, symSize: 0x10 }
  - { offsetInCU: 0x10CEF, offset: 0x10CEF, size: 0x8, addend: 0x0, symName: __ZNSt3__117__compressed_pairIfNS_21__unordered_map_equalIN8Solution8CharTypeENS_17__hash_value_typeIS3_NS2_5StateEEENS_8equal_toIS3_EENS_4hashIS3_EELb1EEEE6secondB7v160006Ev, symObjAddr: 0x84E0, symBinAddr: 0x100008E20, symSize: 0x20 }
  - { offsetInCU: 0x10D13, offset: 0x10D13, size: 0x8, addend: 0x0, symName: __ZNSt3__122__compressed_pair_elemINS_21__unordered_map_equalIN8Solution8CharTypeENS_17__hash_value_typeIS3_NS2_5StateEEENS_8equal_toIS3_EENS_4hashIS3_EELb1EEELi1ELb1EE5__getB7v160006Ev, symObjAddr: 0x8500, symBinAddr: 0x100008E40, symSize: 0x10 }
  - { offsetInCU: 0x10D37, offset: 0x10D37, size: 0x8, addend: 0x0, symName: __ZNKSt3__18equal_toIN8Solution8CharTypeEEclB7v160006ERKS2_S5_, symObjAddr: 0x8510, symBinAddr: 0x100008E50, symSize: 0xD0 }
  - { offsetInCU: 0x10D79, offset: 0x10D79, size: 0x8, addend: 0x0, symName: __ZNKSt3__117__hash_value_typeIN8Solution8CharTypeENS1_5StateEE11__get_valueB7v160006Ev, symObjAddr: 0x85E0, symBinAddr: 0x100008F20, symSize: 0x10 }
  - { offsetInCU: 0x10D9E, offset: 0x10D9E, size: 0x8, addend: 0x0, symName: __ZNSt3__114pointer_traitsIPNS_16__hash_node_baseIPNS_11__hash_nodeINS_17__hash_value_typeIN8Solution8CharTypeENS4_5StateEEEPvEEEEE10pointer_toB7v160006ERSB_, symObjAddr: 0x85F0, symBinAddr: 0x100008F30, symSize: 0x10 }
  - { offsetInCU: 0x10DC0, offset: 0x10DC0, size: 0x8, addend: 0x0, symName: __ZNSt3__112__hash_tableINS_17__hash_value_typeIN8Solution8CharTypeENS2_5StateEEENS_22__unordered_map_hasherIS3_S5_NS_4hashIS3_EENS_8equal_toIS3_EELb1EEENS_21__unordered_map_equalIS3_S5_SA_S8_Lb1EEENS_9allocatorIS5_EEE12__node_allocB7v160006Ev, symObjAddr: 0x8600, symBinAddr: 0x100008F40, symSize: 0x20 }
  - { offsetInCU: 0x10DE5, offset: 0x10DE5, size: 0x8, addend: 0x0, symName: __ZNSt3__116allocator_traitsINS_9allocatorINS_11__hash_nodeINS_17__hash_value_typeIN8Solution8CharTypeENS4_5StateEEEPvEEEEE8allocateB7v160006ERSA_m, symObjAddr: 0x8620, symBinAddr: 0x100008F60, symSize: 0x30 }
  - { offsetInCU: 0x10E18, offset: 0x10E18, size: 0x8, addend: 0x0, symName: __ZNSt3__122__hash_node_destructorINS_9allocatorINS_11__hash_nodeINS_17__hash_value_typeIN8Solution8CharTypeENS4_5StateEEEPvEEEEEC1B7v160006ERSA_b, symObjAddr: 0x8650, symBinAddr: 0x100008F90, symSize: 0x40 }
  - { offsetInCU: 0x10E64, offset: 0x10E64, size: 0x8, addend: 0x0, symName: __ZNSt3__110unique_ptrINS_11__hash_nodeINS_17__hash_value_typeIN8Solution8CharTypeENS3_5StateEEEPvEENS_22__hash_node_destructorINS_9allocatorIS8_EEEEEC1B7v160006ILb1EvEEPS8_NS_16__dependent_typeINS_27__unique_ptr_deleter_sfinaeISC_EEXT_EE20__good_rval_ref_typeE, symObjAddr: 0x8690, symBinAddr: 0x100008FD0, symSize: 0x30 }
  - { offsetInCU: 0x10EB4, offset: 0x10EB4, size: 0x8, addend: 0x0, symName: __ZNSt3__116allocator_traitsINS_9allocatorINS_11__hash_nodeINS_17__hash_value_typeIN8Solution8CharTypeENS4_5StateEEEPvEEEEE9constructB7v160006INS_4pairIKS5_S6_EEJRKSF_EvEEvRSA_PT_DpOT0_, symObjAddr: 0x86C0, symBinAddr: 0x100009000, symSize: 0x30 }
  - { offsetInCU: 0x10F0B, offset: 0x10F0B, size: 0x8, addend: 0x0, symName: __ZNSt3__122__hash_key_value_typesINS_17__hash_value_typeIN8Solution8CharTypeENS2_5StateEEEE9__get_ptrB7v160006ERS5_, symObjAddr: 0x86F0, symBinAddr: 0x100009030, symSize: 0x20 }
  - { offsetInCU: 0x10F2D, offset: 0x10F2D, size: 0x8, addend: 0x0, symName: __ZNSt3__110unique_ptrINS_11__hash_nodeINS_17__hash_value_typeIN8Solution8CharTypeENS3_5StateEEEPvEENS_22__hash_node_destructorINS_9allocatorIS8_EEEEE11get_deleterB7v160006Ev, symObjAddr: 0x8710, symBinAddr: 0x100009050, symSize: 0x20 }
  - { offsetInCU: 0x10F51, offset: 0x10F51, size: 0x8, addend: 0x0, symName: __ZNSt3__117__compressed_pairINS_16__hash_node_baseIPNS_11__hash_nodeINS_17__hash_value_typeIN8Solution8CharTypeENS4_5StateEEEPvEEEENS_9allocatorIS9_EEE6secondB7v160006Ev, symObjAddr: 0x8730, symBinAddr: 0x100009070, symSize: 0x20 }
  - { offsetInCU: 0x10F75, offset: 0x10F75, size: 0x8, addend: 0x0, symName: __ZNSt3__122__compressed_pair_elemINS_9allocatorINS_11__hash_nodeINS_17__hash_value_typeIN8Solution8CharTypeENS4_5StateEEEPvEEEELi1ELb1EE5__getB7v160006Ev, symObjAddr: 0x8750, symBinAddr: 0x100009090, symSize: 0x10 }
  - { offsetInCU: 0x10F99, offset: 0x10F99, size: 0x8, addend: 0x0, symName: __ZNSt3__19allocatorINS_11__hash_nodeINS_17__hash_value_typeIN8Solution8CharTypeENS3_5StateEEEPvEEE8allocateB7v160006Em, symObjAddr: 0x8760, symBinAddr: 0x1000090A0, symSize: 0x50 }
  - { offsetInCU: 0x10FD6, offset: 0x10FD6, size: 0x8, addend: 0x0, symName: __ZNSt3__116allocator_traitsINS_9allocatorINS_11__hash_nodeINS_17__hash_value_typeIN8Solution8CharTypeENS4_5StateEEEPvEEEEE8max_sizeB7v160006ISA_vEEmRKSA_, symObjAddr: 0x87B0, symBinAddr: 0x1000090F0, symSize: 0x20 }
  - { offsetInCU: 0x11003, offset: 0x11003, size: 0x8, addend: 0x0, symName: __ZNKSt3__19allocatorINS_11__hash_nodeINS_17__hash_value_typeIN8Solution8CharTypeENS3_5StateEEEPvEEE8max_sizeB7v160006Ev, symObjAddr: 0x8830, symBinAddr: 0x100009170, symSize: 0x20 }
  - { offsetInCU: 0x11028, offset: 0x11028, size: 0x8, addend: 0x0, symName: __ZNSt3__122__hash_node_destructorINS_9allocatorINS_11__hash_nodeINS_17__hash_value_typeIN8Solution8CharTypeENS4_5StateEEEPvEEEEEC2B7v160006ERSA_b, symObjAddr: 0x8870, symBinAddr: 0x1000091B0, symSize: 0xC0 }
  - { offsetInCU: 0x1106F, offset: 0x1106F, size: 0x8, addend: 0x0, symName: __ZNSt3__110unique_ptrINS_11__hash_nodeINS_17__hash_value_typeIN8Solution8CharTypeENS3_5StateEEEPvEENS_22__hash_node_destructorINS_9allocatorIS8_EEEEEC2B7v160006ILb1EvEEPS8_NS_16__dependent_typeINS_27__unique_ptr_deleter_sfinaeISC_EEXT_EE20__good_rval_ref_typeE, symObjAddr: 0x8930, symBinAddr: 0x100009270, symSize: 0x1A0 }
  - { offsetInCU: 0x110C5, offset: 0x110C5, size: 0x8, addend: 0x0, symName: __ZNSt3__117__compressed_pairIPNS_11__hash_nodeINS_17__hash_value_typeIN8Solution8CharTypeENS3_5StateEEEPvEENS_22__hash_node_destructorINS_9allocatorIS8_EEEEEC1B7v160006IRS9_SD_EEOT_OT0_, symObjAddr: 0x8AD0, symBinAddr: 0x100009410, symSize: 0x30 }
  - { offsetInCU: 0x1111C, offset: 0x1111C, size: 0x8, addend: 0x0, symName: __ZNSt3__117__compressed_pairIPNS_11__hash_nodeINS_17__hash_value_typeIN8Solution8CharTypeENS3_5StateEEEPvEENS_22__hash_node_destructorINS_9allocatorIS8_EEEEEC2B7v160006IRS9_SD_EEOT_OT0_, symObjAddr: 0x8B00, symBinAddr: 0x100009440, symSize: 0x40 }
  - { offsetInCU: 0x11173, offset: 0x11173, size: 0x8, addend: 0x0, symName: __ZNSt3__122__compressed_pair_elemIPNS_11__hash_nodeINS_17__hash_value_typeIN8Solution8CharTypeENS3_5StateEEEPvEELi0ELb0EEC2B7v160006IRS9_vEEOT_, symObjAddr: 0x8B40, symBinAddr: 0x100009480, symSize: 0x90 }
  - { offsetInCU: 0x111B4, offset: 0x111B4, size: 0x8, addend: 0x0, symName: __ZNSt3__122__compressed_pair_elemINS_22__hash_node_destructorINS_9allocatorINS_11__hash_nodeINS_17__hash_value_typeIN8Solution8CharTypeENS5_5StateEEEPvEEEEEELi1ELb0EEC2B7v160006ISC_vEEOT_, symObjAddr: 0x8BD0, symBinAddr: 0x100009510, symSize: 0x30 }
  - { offsetInCU: 0x111F4, offset: 0x111F4, size: 0x8, addend: 0x0, symName: __ZNSt3__19allocatorINS_11__hash_nodeINS_17__hash_value_typeIN8Solution8CharTypeENS3_5StateEEEPvEEE9constructB7v160006INS_4pairIKS4_S5_EEJRKSD_EEEvPT_DpOT0_, symObjAddr: 0x8C00, symBinAddr: 0x100009540, symSize: 0x30 }
  - { offsetInCU: 0x11248, offset: 0x11248, size: 0x8, addend: 0x0, symName: __ZNSt3__117__hash_value_typeIN8Solution8CharTypeENS1_5StateEE11__get_valueB7v160006Ev, symObjAddr: 0x8C30, symBinAddr: 0x100009570, symSize: 0x10 }
  - { offsetInCU: 0x1126C, offset: 0x1126C, size: 0x8, addend: 0x0, symName: __ZNSt3__117__compressed_pairIPNS_11__hash_nodeINS_17__hash_value_typeIN8Solution8CharTypeENS3_5StateEEEPvEENS_22__hash_node_destructorINS_9allocatorIS8_EEEEE6secondB7v160006Ev, symObjAddr: 0x8C40, symBinAddr: 0x100009580, symSize: 0x20 }
  - { offsetInCU: 0x11290, offset: 0x11290, size: 0x8, addend: 0x0, symName: __ZNSt3__122__compressed_pair_elemINS_22__hash_node_destructorINS_9allocatorINS_11__hash_nodeINS_17__hash_value_typeIN8Solution8CharTypeENS5_5StateEEEPvEEEEEELi1ELb0EE5__getB7v160006Ev, symObjAddr: 0x8C60, symBinAddr: 0x1000095A0, symSize: 0x10 }
  - { offsetInCU: 0x112B4, offset: 0x112B4, size: 0x8, addend: 0x0, symName: __ZNSt3__117__compressed_pairImNS_22__unordered_map_hasherIN8Solution8CharTypeENS_17__hash_value_typeIS3_NS2_5StateEEENS_4hashIS3_EENS_8equal_toIS3_EELb1EEEE5firstB7v160006Ev, symObjAddr: 0x8C70, symBinAddr: 0x1000095B0, symSize: 0x20 }
  - { offsetInCU: 0x112D8, offset: 0x112D8, size: 0x8, addend: 0x0, symName: __ZNSt3__122__compressed_pair_elemImLi0ELb0EE5__getB7v160006Ev, symObjAddr: 0x8C90, symBinAddr: 0x1000095D0, symSize: 0x10 }
  - { offsetInCU: 0x112FC, offset: 0x112FC, size: 0x8, addend: 0x0, symName: __ZNSt3__117__compressed_pairIfNS_21__unordered_map_equalIN8Solution8CharTypeENS_17__hash_value_typeIS3_NS2_5StateEEENS_8equal_toIS3_EENS_4hashIS3_EELb1EEEE5firstB7v160006Ev, symObjAddr: 0x8CA0, symBinAddr: 0x1000095E0, symSize: 0x20 }
  - { offsetInCU: 0x11320, offset: 0x11320, size: 0x8, addend: 0x0, symName: __ZNSt3__122__compressed_pair_elemIfLi0ELb0EE5__getB7v160006Ev, symObjAddr: 0x8CC0, symBinAddr: 0x100009600, symSize: 0x10 }
  - { offsetInCU: 0x11345, offset: 0x11345, size: 0x8, addend: 0x0, symName: __ZNSt3__112__hash_tableINS_17__hash_value_typeIN8Solution8CharTypeENS2_5StateEEENS_22__unordered_map_hasherIS3_S5_NS_4hashIS3_EENS_8equal_toIS3_EELb1EEENS_21__unordered_map_equalIS3_S5_SA_S8_Lb1EEENS_9allocatorIS5_EEE8__rehashILb1EEEvm, symObjAddr: 0x8CD0, symBinAddr: 0x100009610, symSize: 0x7D0 }
  - { offsetInCU: 0x1139B, offset: 0x1139B, size: 0x8, addend: 0x0, symName: __ZNSt3__112__hash_tableINS_17__hash_value_typeIN8Solution8CharTypeENS2_5StateEEENS_22__unordered_map_hasherIS3_S5_NS_4hashIS3_EENS_8equal_toIS3_EELb1EEENS_21__unordered_map_equalIS3_S5_SA_S8_Lb1EEENS_9allocatorIS5_EEE11__do_rehashILb1EEEvm, symObjAddr: 0x94A0, symBinAddr: 0x100009DE0, symSize: 0x590 }
  - { offsetInCU: 0x11487, offset: 0x11487, size: 0x8, addend: 0x0, symName: __ZNSt3__110unique_ptrIA_PNS_16__hash_node_baseIPNS_11__hash_nodeINS_17__hash_value_typeIN8Solution8CharTypeENS4_5StateEEEPvEEEENS_25__bucket_list_deallocatorINS_9allocatorISC_EEEEE11get_deleterB7v160006Ev, symObjAddr: 0x9AA0, symBinAddr: 0x10000A3E0, symSize: 0x20 }
  - { offsetInCU: 0x114AB, offset: 0x114AB, size: 0x8, addend: 0x0, symName: __ZNSt3__125__bucket_list_deallocatorINS_9allocatorIPNS_16__hash_node_baseIPNS_11__hash_nodeINS_17__hash_value_typeIN8Solution8CharTypeENS5_5StateEEEPvEEEEEEE7__allocB7v160006Ev, symObjAddr: 0x9AC0, symBinAddr: 0x10000A400, symSize: 0x20 }
  - { offsetInCU: 0x114CF, offset: 0x114CF, size: 0x8, addend: 0x0, symName: __ZNSt3__110unique_ptrIA_PNS_16__hash_node_baseIPNS_11__hash_nodeINS_17__hash_value_typeIN8Solution8CharTypeENS4_5StateEEEPvEEEENS_25__bucket_list_deallocatorINS_9allocatorISC_EEEEE5resetB7v160006IPSC_EENS_9enable_ifIXsr28_CheckArrayPointerConversionIT_EE5valueEvE4typeESM_, symObjAddr: 0x9AE0, symBinAddr: 0x10000A420, symSize: 0xC0 }
  - { offsetInCU: 0x1151C, offset: 0x1151C, size: 0x8, addend: 0x0, symName: __ZNSt3__116allocator_traitsINS_9allocatorIPNS_16__hash_node_baseIPNS_11__hash_nodeINS_17__hash_value_typeIN8Solution8CharTypeENS5_5StateEEEPvEEEEEEE8allocateB7v160006ERSE_m, symObjAddr: 0x9BA0, symBinAddr: 0x10000A4E0, symSize: 0x30 }
  - { offsetInCU: 0x1154E, offset: 0x1154E, size: 0x8, addend: 0x0, symName: __ZNSt3__125__bucket_list_deallocatorINS_9allocatorIPNS_16__hash_node_baseIPNS_11__hash_nodeINS_17__hash_value_typeIN8Solution8CharTypeENS5_5StateEEEPvEEEEEEE4sizeB7v160006Ev, symObjAddr: 0x9BD0, symBinAddr: 0x10000A510, symSize: 0x20 }
  - { offsetInCU: 0x11572, offset: 0x11572, size: 0x8, addend: 0x0, symName: __ZNSt3__117__compressed_pairIPPNS_16__hash_node_baseIPNS_11__hash_nodeINS_17__hash_value_typeIN8Solution8CharTypeENS4_5StateEEEPvEEEENS_25__bucket_list_deallocatorINS_9allocatorISC_EEEEE6secondB7v160006Ev, symObjAddr: 0x9BF0, symBinAddr: 0x10000A530, symSize: 0x20 }
  - { offsetInCU: 0x11596, offset: 0x11596, size: 0x8, addend: 0x0, symName: __ZNSt3__122__compressed_pair_elemINS_25__bucket_list_deallocatorINS_9allocatorIPNS_16__hash_node_baseIPNS_11__hash_nodeINS_17__hash_value_typeIN8Solution8CharTypeENS6_5StateEEEPvEEEEEEEELi1ELb0EE5__getB7v160006Ev, symObjAddr: 0x9C10, symBinAddr: 0x10000A550, symSize: 0x10 }
  - { offsetInCU: 0x115BA, offset: 0x115BA, size: 0x8, addend: 0x0, symName: __ZNSt3__117__compressed_pairImNS_9allocatorIPNS_16__hash_node_baseIPNS_11__hash_nodeINS_17__hash_value_typeIN8Solution8CharTypeENS5_5StateEEEPvEEEEEEE6secondB7v160006Ev, symObjAddr: 0x9C20, symBinAddr: 0x10000A560, symSize: 0x20 }
  - { offsetInCU: 0x115DE, offset: 0x115DE, size: 0x8, addend: 0x0, symName: __ZNSt3__122__compressed_pair_elemINS_9allocatorIPNS_16__hash_node_baseIPNS_11__hash_nodeINS_17__hash_value_typeIN8Solution8CharTypeENS5_5StateEEEPvEEEEEELi1ELb1EE5__getB7v160006Ev, symObjAddr: 0x9C40, symBinAddr: 0x10000A580, symSize: 0x10 }
  - { offsetInCU: 0x11602, offset: 0x11602, size: 0x8, addend: 0x0, symName: __ZNSt3__117__compressed_pairIPPNS_16__hash_node_baseIPNS_11__hash_nodeINS_17__hash_value_typeIN8Solution8CharTypeENS4_5StateEEEPvEEEENS_25__bucket_list_deallocatorINS_9allocatorISC_EEEEE5firstB7v160006Ev, symObjAddr: 0x9C50, symBinAddr: 0x10000A590, symSize: 0x20 }
  - { offsetInCU: 0x11626, offset: 0x11626, size: 0x8, addend: 0x0, symName: __ZNSt3__125__bucket_list_deallocatorINS_9allocatorIPNS_16__hash_node_baseIPNS_11__hash_nodeINS_17__hash_value_typeIN8Solution8CharTypeENS5_5StateEEEPvEEEEEEEclB7v160006EPSD_, symObjAddr: 0x9C70, symBinAddr: 0x10000A5B0, symSize: 0x80 }
  - { offsetInCU: 0x11659, offset: 0x11659, size: 0x8, addend: 0x0, symName: __ZNSt3__122__compressed_pair_elemIPPNS_16__hash_node_baseIPNS_11__hash_nodeINS_17__hash_value_typeIN8Solution8CharTypeENS4_5StateEEEPvEEEELi0ELb0EE5__getB7v160006Ev, symObjAddr: 0x9CF0, symBinAddr: 0x10000A630, symSize: 0x10 }
  - { offsetInCU: 0x1167E, offset: 0x1167E, size: 0x8, addend: 0x0, symName: __ZNSt3__116allocator_traitsINS_9allocatorIPNS_16__hash_node_baseIPNS_11__hash_nodeINS_17__hash_value_typeIN8Solution8CharTypeENS5_5StateEEEPvEEEEEEE10deallocateB7v160006ERSE_PSD_m, symObjAddr: 0x9D00, symBinAddr: 0x10000A640, symSize: 0x30 }
  - { offsetInCU: 0x116BF, offset: 0x116BF, size: 0x8, addend: 0x0, symName: __ZNSt3__19allocatorIPNS_16__hash_node_baseIPNS_11__hash_nodeINS_17__hash_value_typeIN8Solution8CharTypeENS4_5StateEEEPvEEEEE10deallocateB7v160006EPSC_m, symObjAddr: 0x9D30, symBinAddr: 0x10000A670, symSize: 0x50 }
  - { offsetInCU: 0x116FF, offset: 0x116FF, size: 0x8, addend: 0x0, symName: __ZNSt3__19allocatorIPNS_16__hash_node_baseIPNS_11__hash_nodeINS_17__hash_value_typeIN8Solution8CharTypeENS4_5StateEEEPvEEEEE8allocateB7v160006Em, symObjAddr: 0x9DF0, symBinAddr: 0x10000A730, symSize: 0x60 }
  - { offsetInCU: 0x1173C, offset: 0x1173C, size: 0x8, addend: 0x0, symName: __ZNSt3__116allocator_traitsINS_9allocatorIPNS_16__hash_node_baseIPNS_11__hash_nodeINS_17__hash_value_typeIN8Solution8CharTypeENS5_5StateEEEPvEEEEEEE8max_sizeB7v160006ISE_vEEmRKSE_, symObjAddr: 0x9E50, symBinAddr: 0x10000A790, symSize: 0x20 }
  - { offsetInCU: 0x11769, offset: 0x11769, size: 0x8, addend: 0x0, symName: __ZNKSt3__19allocatorIPNS_16__hash_node_baseIPNS_11__hash_nodeINS_17__hash_value_typeIN8Solution8CharTypeENS4_5StateEEEPvEEEEE8max_sizeB7v160006Ev, symObjAddr: 0x9E70, symBinAddr: 0x10000A7B0, symSize: 0x20 }
  - { offsetInCU: 0x1178D, offset: 0x1178D, size: 0x8, addend: 0x0, symName: __ZNSt3__117__compressed_pairImNS_9allocatorIPNS_16__hash_node_baseIPNS_11__hash_nodeINS_17__hash_value_typeIN8Solution8CharTypeENS5_5StateEEEPvEEEEEEE5firstB7v160006Ev, symObjAddr: 0x9E90, symBinAddr: 0x10000A7D0, symSize: 0x20 }
  - { offsetInCU: 0x117BB, offset: 0x117BB, size: 0x8, addend: 0x0, symName: __ZNKSt3__16__lessImmEclB7v160006ERKmS3_, symObjAddr: 0xA040, symBinAddr: 0x10000A980, symSize: 0xA0 }
  - { offsetInCU: 0x117FB, offset: 0x117FB, size: 0x8, addend: 0x0, symName: __ZNSt3__122__compressed_pair_elemINS_16__hash_node_baseIPNS_11__hash_nodeINS_17__hash_value_typeIN8Solution8CharTypeENS4_5StateEEEPvEEEELi0ELb0EE5__getB7v160006Ev, symObjAddr: 0xA0E0, symBinAddr: 0x10000AA20, symSize: 0x10 }
  - { offsetInCU: 0x1181F, offset: 0x1181F, size: 0x8, addend: 0x0, symName: __ZNKSt3__117__compressed_pairIPNS_11__hash_nodeINS_17__hash_value_typeIN8Solution8CharTypeENS3_5StateEEEPvEENS_22__hash_node_destructorINS_9allocatorIS8_EEEEE5firstB7v160006Ev, symObjAddr: 0xA0F0, symBinAddr: 0x10000AA30, symSize: 0x20 }
  - { offsetInCU: 0x11843, offset: 0x11843, size: 0x8, addend: 0x0, symName: __ZNKSt3__122__compressed_pair_elemIPNS_11__hash_nodeINS_17__hash_value_typeIN8Solution8CharTypeENS3_5StateEEEPvEELi0ELb0EE5__getB7v160006Ev, symObjAddr: 0xA110, symBinAddr: 0x10000AA50, symSize: 0x10 }
  - { offsetInCU: 0x11867, offset: 0x11867, size: 0x8, addend: 0x0, symName: __ZNSt3__117__compressed_pairIPNS_11__hash_nodeINS_17__hash_value_typeIN8Solution8CharTypeENS3_5StateEEEPvEENS_22__hash_node_destructorINS_9allocatorIS8_EEEEE5firstB7v160006Ev, symObjAddr: 0xA120, symBinAddr: 0x10000AA60, symSize: 0x20 }
  - { offsetInCU: 0x1188B, offset: 0x1188B, size: 0x8, addend: 0x0, symName: __ZNSt3__122__compressed_pair_elemIPNS_11__hash_nodeINS_17__hash_value_typeIN8Solution8CharTypeENS3_5StateEEEPvEELi0ELb0EE5__getB7v160006Ev, symObjAddr: 0xA140, symBinAddr: 0x10000AA80, symSize: 0x10 }
  - { offsetInCU: 0x118B0, offset: 0x118B0, size: 0x8, addend: 0x0, symName: __ZNSt3__110unique_ptrINS_11__hash_nodeINS_17__hash_value_typeIN8Solution8CharTypeENS3_5StateEEEPvEENS_22__hash_node_destructorINS_9allocatorIS8_EEEEED2B7v160006Ev, symObjAddr: 0xA150, symBinAddr: 0x10000AA90, symSize: 0x20 }
  - { offsetInCU: 0x118D8, offset: 0x118D8, size: 0x8, addend: 0x0, symName: __ZNSt3__110unique_ptrINS_11__hash_nodeINS_17__hash_value_typeIN8Solution8CharTypeENS3_5StateEEEPvEENS_22__hash_node_destructorINS_9allocatorIS8_EEEEE5resetB7v160006EPS8_, symObjAddr: 0xA170, symBinAddr: 0x10000AAB0, symSize: 0xC0 }
  - { offsetInCU: 0x1191B, offset: 0x1191B, size: 0x8, addend: 0x0, symName: __ZNSt3__122__hash_node_destructorINS_9allocatorINS_11__hash_nodeINS_17__hash_value_typeIN8Solution8CharTypeENS4_5StateEEEPvEEEEEclB7v160006EPS9_, symObjAddr: 0xA230, symBinAddr: 0x10000AB70, symSize: 0x130 }
  - { offsetInCU: 0x1194F, offset: 0x1194F, size: 0x8, addend: 0x0, symName: __ZNSt3__116allocator_traitsINS_9allocatorINS_11__hash_nodeINS_17__hash_value_typeIN8Solution8CharTypeENS4_5StateEEEPvEEEEE7destroyB7v160006INS_4pairIKS5_S6_EEvvEEvRSA_PT_, symObjAddr: 0xA360, symBinAddr: 0x10000ACA0, symSize: 0x10 }
  - { offsetInCU: 0x1198A, offset: 0x1198A, size: 0x8, addend: 0x0, symName: __ZNSt3__116allocator_traitsINS_9allocatorINS_11__hash_nodeINS_17__hash_value_typeIN8Solution8CharTypeENS4_5StateEEEPvEEEEE10deallocateB7v160006ERSA_PS9_m, symObjAddr: 0xA370, symBinAddr: 0x10000ACB0, symSize: 0x30 }
  - { offsetInCU: 0x119CB, offset: 0x119CB, size: 0x8, addend: 0x0, symName: __ZNSt3__19allocatorINS_11__hash_nodeINS_17__hash_value_typeIN8Solution8CharTypeENS3_5StateEEEPvEEE10deallocateB7v160006EPS8_m, symObjAddr: 0xA3A0, symBinAddr: 0x10000ACE0, symSize: 0x50 }
  - { offsetInCU: 0x11A0C, offset: 0x11A0C, size: 0x8, addend: 0x0, symName: __ZNSt3__115__hash_iteratorIPNS_11__hash_nodeINS_17__hash_value_typeIN8Solution8CharTypeENS3_5StateEEEPvEEEC2B7v160006EPNS_16__hash_node_baseIS9_EEPKv, symObjAddr: 0xA3F0, symBinAddr: 0x10000AD30, symSize: 0x60 }
  - { offsetInCU: 0x11A53, offset: 0x11A53, size: 0x8, addend: 0x0, symName: __ZNSt3__14pairINS_15__hash_iteratorIPNS_11__hash_nodeINS_17__hash_value_typeIN8Solution8CharTypeENS4_5StateEEEPvEEEEbEC2B7v160006ISB_RbLS8_0EEEOT_OT0_, symObjAddr: 0xA450, symBinAddr: 0x10000AD90, symSize: 0xE0 }
  - { offsetInCU: 0x11AB0, offset: 0x11AB0, size: 0x8, addend: 0x0, symName: __ZNSt3__112__hash_tableINS_17__hash_value_typeIN8Solution8CharTypeENS2_5StateEEENS_22__unordered_map_hasherIS3_S5_NS_4hashIS3_EENS_8equal_toIS3_EELb1EEENS_21__unordered_map_equalIS3_S5_SA_S8_Lb1EEENS_9allocatorIS5_EEED2Ev, symObjAddr: 0xA530, symBinAddr: 0x10000AE70, symSize: 0x90 }
  - { offsetInCU: 0x11ADB, offset: 0x11ADB, size: 0x8, addend: 0x0, symName: __ZNSt3__112__hash_tableINS_17__hash_value_typeIN8Solution8CharTypeENS2_5StateEEENS_22__unordered_map_hasherIS3_S5_NS_4hashIS3_EENS_8equal_toIS3_EELb1EEENS_21__unordered_map_equalIS3_S5_SA_S8_Lb1EEENS_9allocatorIS5_EEE17__deallocate_nodeEPNS_16__hash_node_baseIPNS_11__hash_nodeIS5_PvEEEE, symObjAddr: 0xA5C0, symBinAddr: 0x10000AF00, symSize: 0xD0 }
  - { offsetInCU: 0x11B48, offset: 0x11B48, size: 0x8, addend: 0x0, symName: __ZNSt3__110unique_ptrIA_PNS_16__hash_node_baseIPNS_11__hash_nodeINS_17__hash_value_typeIN8Solution8CharTypeENS4_5StateEEEPvEEEENS_25__bucket_list_deallocatorINS_9allocatorISC_EEEEED1B7v160006Ev, symObjAddr: 0xA6A0, symBinAddr: 0x10000AFE0, symSize: 0x20 }
  - { offsetInCU: 0x11B71, offset: 0x11B71, size: 0x8, addend: 0x0, symName: __ZNSt3__110unique_ptrIA_PNS_16__hash_node_baseIPNS_11__hash_nodeINS_17__hash_value_typeIN8Solution8CharTypeENS4_5StateEEEPvEEEENS_25__bucket_list_deallocatorINS_9allocatorISC_EEEEED2B7v160006Ev, symObjAddr: 0xA6C0, symBinAddr: 0x10000B000, symSize: 0x20 }
  - { offsetInCU: 0x11B99, offset: 0x11B99, size: 0x8, addend: 0x0, symName: __ZNSt3__110unique_ptrIA_PNS_16__hash_node_baseIPNS_11__hash_nodeINS_17__hash_value_typeIN8Solution8CharTypeENS4_5StateEEEPvEEEENS_25__bucket_list_deallocatorINS_9allocatorISC_EEEEE5resetB7v160006EDn, symObjAddr: 0xA6E0, symBinAddr: 0x10000B020, symSize: 0xC0 }
  - { offsetInCU: 0x11BDA, offset: 0x11BDA, size: 0x8, addend: 0x0, symName: __ZNSt3__14pairIKN8Solution5StateENS_13unordered_mapINS1_8CharTypeES2_NS_4hashIS5_EENS_8equal_toIS5_EENS_9allocatorINS0_IKS5_S2_EEEEEEEC2B7v160006ILb1ELPv0EEERS3_RKSE_, symObjAddr: 0xA7A0, symBinAddr: 0x10000B0E0, symSize: 0xD0 }
  - { offsetInCU: 0x11C2F, offset: 0x11C2F, size: 0x8, addend: 0x0, symName: __ZNSt3__113unordered_mapIN8Solution8CharTypeENS1_5StateENS_4hashIS2_EENS_8equal_toIS2_EENS_9allocatorINS_4pairIKS2_S3_EEEEEC1ERKSD_, symObjAddr: 0xA870, symBinAddr: 0x10000B1B0, symSize: 0x30 }
  - { offsetInCU: 0x11C69, offset: 0x11C69, size: 0x8, addend: 0x0, symName: __ZNSt3__113unordered_mapIN8Solution8CharTypeENS1_5StateENS_4hashIS2_EENS_8equal_toIS2_EENS_9allocatorINS_4pairIKS2_S3_EEEEEC2ERKSD_, symObjAddr: 0xA8A0, symBinAddr: 0x10000B1E0, symSize: 0x350 }
  - { offsetInCU: 0x11CA5, offset: 0x11CA5, size: 0x8, addend: 0x0, symName: __ZNSt3__112__hash_tableINS_17__hash_value_typeIN8Solution8CharTypeENS2_5StateEEENS_22__unordered_map_hasherIS3_S5_NS_4hashIS3_EENS_8equal_toIS3_EELb1EEENS_21__unordered_map_equalIS3_S5_SA_S8_Lb1EEENS_9allocatorIS5_EEEC1ERKSG_, symObjAddr: 0xABF0, symBinAddr: 0x10000B530, symSize: 0x30 }
  - { offsetInCU: 0x11CDE, offset: 0x11CDE, size: 0x8, addend: 0x0, symName: __ZNKSt3__113unordered_mapIN8Solution8CharTypeENS1_5StateENS_4hashIS2_EENS_8equal_toIS2_EENS_9allocatorINS_4pairIKS2_S3_EEEEE12bucket_countB7v160006Ev, symObjAddr: 0xAC20, symBinAddr: 0x10000B560, symSize: 0x20 }
  - { offsetInCU: 0x11D03, offset: 0x11D03, size: 0x8, addend: 0x0, symName: __ZNSt3__113unordered_mapIN8Solution8CharTypeENS1_5StateENS_4hashIS2_EENS_8equal_toIS2_EENS_9allocatorINS_4pairIKS2_S3_EEEEE6insertINS_25__hash_map_const_iteratorINS_21__hash_const_iteratorIPNS_11__hash_nodeINS_17__hash_value_typeIS2_S3_EEPvEEEEEEEEvT_SP_, symObjAddr: 0xAC40, symBinAddr: 0x10000B580, symSize: 0x2E0 }
  - { offsetInCU: 0x11D59, offset: 0x11D59, size: 0x8, addend: 0x0, symName: __ZNKSt3__113unordered_mapIN8Solution8CharTypeENS1_5StateENS_4hashIS2_EENS_8equal_toIS2_EENS_9allocatorINS_4pairIKS2_S3_EEEEE5beginB7v160006Ev, symObjAddr: 0xAF20, symBinAddr: 0x10000B860, symSize: 0x210 }
  - { offsetInCU: 0x11D7E, offset: 0x11D7E, size: 0x8, addend: 0x0, symName: __ZNKSt3__113unordered_mapIN8Solution8CharTypeENS1_5StateENS_4hashIS2_EENS_8equal_toIS2_EENS_9allocatorINS_4pairIKS2_S3_EEEEE3endB7v160006Ev, symObjAddr: 0xB130, symBinAddr: 0x10000BA70, symSize: 0x210 }
  - { offsetInCU: 0x11DA4, offset: 0x11DA4, size: 0x8, addend: 0x0, symName: __ZNSt3__112__hash_tableINS_17__hash_value_typeIN8Solution8CharTypeENS2_5StateEEENS_22__unordered_map_hasherIS3_S5_NS_4hashIS3_EENS_8equal_toIS3_EELb1EEENS_21__unordered_map_equalIS3_S5_SA_S8_Lb1EEENS_9allocatorIS5_EEEC2ERKSG_, symObjAddr: 0xB340, symBinAddr: 0x10000BC80, symSize: 0x3C0 }
  - { offsetInCU: 0x11DE0, offset: 0x11DE0, size: 0x8, addend: 0x0, symName: __ZNSt3__116allocator_traitsINS_9allocatorIPNS_16__hash_node_baseIPNS_11__hash_nodeINS_17__hash_value_typeIN8Solution8CharTypeENS5_5StateEEEPvEEEEEEE37select_on_container_copy_constructionB7v160006ISE_vvEESE_RKSE_, symObjAddr: 0xB700, symBinAddr: 0x10000C040, symSize: 0x10 }
  - { offsetInCU: 0x11E0E, offset: 0x11E0E, size: 0x8, addend: 0x0, symName: __ZNKSt3__125__bucket_list_deallocatorINS_9allocatorIPNS_16__hash_node_baseIPNS_11__hash_nodeINS_17__hash_value_typeIN8Solution8CharTypeENS5_5StateEEEPvEEEEEEE7__allocB7v160006Ev, symObjAddr: 0xB710, symBinAddr: 0x10000C050, symSize: 0x20 }
  - { offsetInCU: 0x11E33, offset: 0x11E33, size: 0x8, addend: 0x0, symName: __ZNSt3__125__bucket_list_deallocatorINS_9allocatorIPNS_16__hash_node_baseIPNS_11__hash_nodeINS_17__hash_value_typeIN8Solution8CharTypeENS5_5StateEEEPvEEEEEEEC1B7v160006ERKSE_m, symObjAddr: 0xB730, symBinAddr: 0x10000C070, symSize: 0x30 }
  - { offsetInCU: 0x11E7A, offset: 0x11E7A, size: 0x8, addend: 0x0, symName: __ZNSt3__110unique_ptrIA_PNS_16__hash_node_baseIPNS_11__hash_nodeINS_17__hash_value_typeIN8Solution8CharTypeENS4_5StateEEEPvEEEENS_25__bucket_list_deallocatorINS_9allocatorISC_EEEEEC1B7v160006ILb1EvEEDnNS_16__dependent_typeINS_27__unique_ptr_deleter_sfinaeISH_EEXT_EE20__good_rval_ref_typeE, symObjAddr: 0xB760, symBinAddr: 0x10000C0A0, symSize: 0x30 }
  - { offsetInCU: 0x11EC9, offset: 0x11EC9, size: 0x8, addend: 0x0, symName: __ZNSt3__116allocator_traitsINS_9allocatorINS_11__hash_nodeINS_17__hash_value_typeIN8Solution8CharTypeENS4_5StateEEEPvEEEEE37select_on_container_copy_constructionB7v160006ISA_vvEESA_RKSA_, symObjAddr: 0xB790, symBinAddr: 0x10000C0D0, symSize: 0x10 }
  - { offsetInCU: 0x11EF7, offset: 0x11EF7, size: 0x8, addend: 0x0, symName: __ZNKSt3__112__hash_tableINS_17__hash_value_typeIN8Solution8CharTypeENS2_5StateEEENS_22__unordered_map_hasherIS3_S5_NS_4hashIS3_EENS_8equal_toIS3_EELb1EEENS_21__unordered_map_equalIS3_S5_SA_S8_Lb1EEENS_9allocatorIS5_EEE12__node_allocB7v160006Ev, symObjAddr: 0xB7A0, symBinAddr: 0x10000C0E0, symSize: 0x20 }
  - { offsetInCU: 0x11F21, offset: 0x11F21, size: 0x8, addend: 0x0, symName: __ZNSt3__117__compressed_pairINS_16__hash_node_baseIPNS_11__hash_nodeINS_17__hash_value_typeIN8Solution8CharTypeENS4_5StateEEEPvEEEENS_9allocatorIS9_EEEC1B7v160006INS_18__default_init_tagESD_EEOT_OT0_, symObjAddr: 0xB7C0, symBinAddr: 0x10000C100, symSize: 0x30 }
  - { offsetInCU: 0x11F77, offset: 0x11F77, size: 0x8, addend: 0x0, symName: __ZNKSt3__112__hash_tableINS_17__hash_value_typeIN8Solution8CharTypeENS2_5StateEEENS_22__unordered_map_hasherIS3_S5_NS_4hashIS3_EENS_8equal_toIS3_EELb1EEENS_21__unordered_map_equalIS3_S5_SA_S8_Lb1EEENS_9allocatorIS5_EEE13hash_functionB7v160006Ev, symObjAddr: 0xB7F0, symBinAddr: 0x10000C130, symSize: 0x20 }
  - { offsetInCU: 0x11F9C, offset: 0x11F9C, size: 0x8, addend: 0x0, symName: __ZNSt3__117__compressed_pairImNS_22__unordered_map_hasherIN8Solution8CharTypeENS_17__hash_value_typeIS3_NS2_5StateEEENS_4hashIS3_EENS_8equal_toIS3_EELb1EEEEC1B7v160006IiRKSB_EEOT_OT0_, symObjAddr: 0xB810, symBinAddr: 0x10000C150, symSize: 0x30 }
  - { offsetInCU: 0x11FF2, offset: 0x11FF2, size: 0x8, addend: 0x0, symName: __ZNKSt3__117__compressed_pairImNS_9allocatorIPNS_16__hash_node_baseIPNS_11__hash_nodeINS_17__hash_value_typeIN8Solution8CharTypeENS5_5StateEEEPvEEEEEEE6secondB7v160006Ev, symObjAddr: 0xB840, symBinAddr: 0x10000C180, symSize: 0x20 }
  - { offsetInCU: 0x12016, offset: 0x12016, size: 0x8, addend: 0x0, symName: __ZNKSt3__122__compressed_pair_elemINS_9allocatorIPNS_16__hash_node_baseIPNS_11__hash_nodeINS_17__hash_value_typeIN8Solution8CharTypeENS5_5StateEEEPvEEEEEELi1ELb1EE5__getB7v160006Ev, symObjAddr: 0xB860, symBinAddr: 0x10000C1A0, symSize: 0x10 }
  - { offsetInCU: 0x1203B, offset: 0x1203B, size: 0x8, addend: 0x0, symName: __ZNSt3__125__bucket_list_deallocatorINS_9allocatorIPNS_16__hash_node_baseIPNS_11__hash_nodeINS_17__hash_value_typeIN8Solution8CharTypeENS5_5StateEEEPvEEEEEEEC2B7v160006ERKSE_m, symObjAddr: 0xB870, symBinAddr: 0x10000C1B0, symSize: 0x190 }
  - { offsetInCU: 0x12088, offset: 0x12088, size: 0x8, addend: 0x0, symName: __ZNSt3__117__compressed_pairImNS_9allocatorIPNS_16__hash_node_baseIPNS_11__hash_nodeINS_17__hash_value_typeIN8Solution8CharTypeENS5_5StateEEEPvEEEEEEEC1B7v160006IRmRKSE_EEOT_OT0_, symObjAddr: 0xBA00, symBinAddr: 0x10000C340, symSize: 0x30 }
  - { offsetInCU: 0x120DF, offset: 0x120DF, size: 0x8, addend: 0x0, symName: __ZNSt3__117__compressed_pairImNS_9allocatorIPNS_16__hash_node_baseIPNS_11__hash_nodeINS_17__hash_value_typeIN8Solution8CharTypeENS5_5StateEEEPvEEEEEEEC2B7v160006IRmRKSE_EEOT_OT0_, symObjAddr: 0xBA30, symBinAddr: 0x10000C370, symSize: 0x40 }
  - { offsetInCU: 0x12136, offset: 0x12136, size: 0x8, addend: 0x0, symName: __ZNSt3__122__compressed_pair_elemImLi0ELb0EEC2B7v160006IRmvEEOT_, symObjAddr: 0xBA70, symBinAddr: 0x10000C3B0, symSize: 0x90 }
  - { offsetInCU: 0x12177, offset: 0x12177, size: 0x8, addend: 0x0, symName: __ZNSt3__122__compressed_pair_elemINS_9allocatorIPNS_16__hash_node_baseIPNS_11__hash_nodeINS_17__hash_value_typeIN8Solution8CharTypeENS5_5StateEEEPvEEEEEELi1ELb1EEC2B7v160006IRKSE_vEEOT_, symObjAddr: 0xBB00, symBinAddr: 0x10000C440, symSize: 0x10 }
  - { offsetInCU: 0x121B8, offset: 0x121B8, size: 0x8, addend: 0x0, symName: __ZNSt3__110unique_ptrIA_PNS_16__hash_node_baseIPNS_11__hash_nodeINS_17__hash_value_typeIN8Solution8CharTypeENS4_5StateEEEPvEEEENS_25__bucket_list_deallocatorINS_9allocatorISC_EEEEEC2B7v160006ILb1EvEEDnNS_16__dependent_typeINS_27__unique_ptr_deleter_sfinaeISH_EEXT_EE20__good_rval_ref_typeE, symObjAddr: 0xBB10, symBinAddr: 0x10000C450, symSize: 0x1A0 }
  - { offsetInCU: 0x1220F, offset: 0x1220F, size: 0x8, addend: 0x0, symName: __ZNSt3__117__compressed_pairIPPNS_16__hash_node_baseIPNS_11__hash_nodeINS_17__hash_value_typeIN8Solution8CharTypeENS4_5StateEEEPvEEEENS_25__bucket_list_deallocatorINS_9allocatorISC_EEEEEC1B7v160006IDnSH_EEOT_OT0_, symObjAddr: 0xBCB0, symBinAddr: 0x10000C5F0, symSize: 0x30 }
  - { offsetInCU: 0x12266, offset: 0x12266, size: 0x8, addend: 0x0, symName: __ZNSt3__117__compressed_pairIPPNS_16__hash_node_baseIPNS_11__hash_nodeINS_17__hash_value_typeIN8Solution8CharTypeENS4_5StateEEEPvEEEENS_25__bucket_list_deallocatorINS_9allocatorISC_EEEEEC2B7v160006IDnSH_EEOT_OT0_, symObjAddr: 0xBCE0, symBinAddr: 0x10000C620, symSize: 0x40 }
  - { offsetInCU: 0x122BD, offset: 0x122BD, size: 0x8, addend: 0x0, symName: __ZNSt3__122__compressed_pair_elemIPPNS_16__hash_node_baseIPNS_11__hash_nodeINS_17__hash_value_typeIN8Solution8CharTypeENS4_5StateEEEPvEEEELi0ELb0EEC2B7v160006IDnvEEOT_, symObjAddr: 0xBD20, symBinAddr: 0x10000C660, symSize: 0x50 }
  - { offsetInCU: 0x122FE, offset: 0x122FE, size: 0x8, addend: 0x0, symName: __ZNSt3__122__compressed_pair_elemINS_25__bucket_list_deallocatorINS_9allocatorIPNS_16__hash_node_baseIPNS_11__hash_nodeINS_17__hash_value_typeIN8Solution8CharTypeENS6_5StateEEEPvEEEEEEEELi1ELb0EEC2B7v160006ISG_vEEOT_, symObjAddr: 0xBD70, symBinAddr: 0x10000C6B0, symSize: 0x30 }
  - { offsetInCU: 0x1233F, offset: 0x1233F, size: 0x8, addend: 0x0, symName: __ZNSt3__125__bucket_list_deallocatorINS_9allocatorIPNS_16__hash_node_baseIPNS_11__hash_nodeINS_17__hash_value_typeIN8Solution8CharTypeENS5_5StateEEEPvEEEEEEEC1B7v160006EOSF_, symObjAddr: 0xBDA0, symBinAddr: 0x10000C6E0, symSize: 0x30 }
  - { offsetInCU: 0x12377, offset: 0x12377, size: 0x8, addend: 0x0, symName: __ZNSt3__125__bucket_list_deallocatorINS_9allocatorIPNS_16__hash_node_baseIPNS_11__hash_nodeINS_17__hash_value_typeIN8Solution8CharTypeENS5_5StateEEEPvEEEEEEEC2B7v160006EOSF_, symObjAddr: 0xBDD0, symBinAddr: 0x10000C710, symSize: 0x70 }
  - { offsetInCU: 0x123AE, offset: 0x123AE, size: 0x8, addend: 0x0, symName: __ZNKSt3__117__compressed_pairINS_16__hash_node_baseIPNS_11__hash_nodeINS_17__hash_value_typeIN8Solution8CharTypeENS4_5StateEEEPvEEEENS_9allocatorIS9_EEE6secondB7v160006Ev, symObjAddr: 0xBE40, symBinAddr: 0x10000C780, symSize: 0x20 }
  - { offsetInCU: 0x123D2, offset: 0x123D2, size: 0x8, addend: 0x0, symName: __ZNKSt3__122__compressed_pair_elemINS_9allocatorINS_11__hash_nodeINS_17__hash_value_typeIN8Solution8CharTypeENS4_5StateEEEPvEEEELi1ELb1EE5__getB7v160006Ev, symObjAddr: 0xBE60, symBinAddr: 0x10000C7A0, symSize: 0x10 }
  - { offsetInCU: 0x123F7, offset: 0x123F7, size: 0x8, addend: 0x0, symName: __ZNSt3__117__compressed_pairINS_16__hash_node_baseIPNS_11__hash_nodeINS_17__hash_value_typeIN8Solution8CharTypeENS4_5StateEEEPvEEEENS_9allocatorIS9_EEEC2B7v160006INS_18__default_init_tagESD_EEOT_OT0_, symObjAddr: 0xBE70, symBinAddr: 0x10000C7B0, symSize: 0x40 }
  - { offsetInCU: 0x1244E, offset: 0x1244E, size: 0x8, addend: 0x0, symName: __ZNSt3__122__compressed_pair_elemINS_16__hash_node_baseIPNS_11__hash_nodeINS_17__hash_value_typeIN8Solution8CharTypeENS4_5StateEEEPvEEEELi0ELb0EEC2B7v160006ENS_18__default_init_tagE, symObjAddr: 0xBEB0, symBinAddr: 0x10000C7F0, symSize: 0x20 }
  - { offsetInCU: 0x12482, offset: 0x12482, size: 0x8, addend: 0x0, symName: __ZNSt3__122__compressed_pair_elemINS_9allocatorINS_11__hash_nodeINS_17__hash_value_typeIN8Solution8CharTypeENS4_5StateEEEPvEEEELi1ELb1EEC2B7v160006ISA_vEEOT_, symObjAddr: 0xBED0, symBinAddr: 0x10000C810, symSize: 0x10 }
  - { offsetInCU: 0x124C2, offset: 0x124C2, size: 0x8, addend: 0x0, symName: __ZNKSt3__117__compressed_pairImNS_22__unordered_map_hasherIN8Solution8CharTypeENS_17__hash_value_typeIS3_NS2_5StateEEENS_4hashIS3_EENS_8equal_toIS3_EELb1EEEE6secondB7v160006Ev, symObjAddr: 0xBEE0, symBinAddr: 0x10000C820, symSize: 0x20 }
  - { offsetInCU: 0x124E6, offset: 0x124E6, size: 0x8, addend: 0x0, symName: __ZNKSt3__122__compressed_pair_elemINS_22__unordered_map_hasherIN8Solution8CharTypeENS_17__hash_value_typeIS3_NS2_5StateEEENS_4hashIS3_EENS_8equal_toIS3_EELb1EEELi1ELb1EE5__getB7v160006Ev, symObjAddr: 0xBF00, symBinAddr: 0x10000C840, symSize: 0x10 }
  - { offsetInCU: 0x1250B, offset: 0x1250B, size: 0x8, addend: 0x0, symName: __ZNSt3__117__compressed_pairImNS_22__unordered_map_hasherIN8Solution8CharTypeENS_17__hash_value_typeIS3_NS2_5StateEEENS_4hashIS3_EENS_8equal_toIS3_EELb1EEEEC2B7v160006IiRKSB_EEOT_OT0_, symObjAddr: 0xBF10, symBinAddr: 0x10000C850, symSize: 0x40 }
  - { offsetInCU: 0x12562, offset: 0x12562, size: 0x8, addend: 0x0, symName: __ZNSt3__122__compressed_pair_elemINS_22__unordered_map_hasherIN8Solution8CharTypeENS_17__hash_value_typeIS3_NS2_5StateEEENS_4hashIS3_EENS_8equal_toIS3_EELb1EEELi1ELb1EEC2B7v160006IRKSB_vEEOT_, symObjAddr: 0xBF50, symBinAddr: 0x10000C890, symSize: 0x10 }
  - { offsetInCU: 0x125A2, offset: 0x125A2, size: 0x8, addend: 0x0, symName: __ZNKSt3__125__hash_map_const_iteratorINS_21__hash_const_iteratorIPNS_11__hash_nodeINS_17__hash_value_typeIN8Solution8CharTypeENS4_5StateEEEPvEEEEEdeB7v160006Ev, symObjAddr: 0xBF90, symBinAddr: 0x10000C8D0, symSize: 0x30 }
  - { offsetInCU: 0x125C6, offset: 0x125C6, size: 0x8, addend: 0x0, symName: __ZNSt3__125__hash_map_const_iteratorINS_21__hash_const_iteratorIPNS_11__hash_nodeINS_17__hash_value_typeIN8Solution8CharTypeENS4_5StateEEEPvEEEEEppB7v160006Ev, symObjAddr: 0xBFC0, symBinAddr: 0x10000C900, symSize: 0x30 }
  - { offsetInCU: 0x125EA, offset: 0x125EA, size: 0x8, addend: 0x0, symName: __ZNKSt3__121__hash_const_iteratorIPNS_11__hash_nodeINS_17__hash_value_typeIN8Solution8CharTypeENS3_5StateEEEPvEEEptB7v160006Ev, symObjAddr: 0xC0B0, symBinAddr: 0x10000C9F0, symSize: 0x60 }
  - { offsetInCU: 0x1260F, offset: 0x1260F, size: 0x8, addend: 0x0, symName: __ZNSt3__114pointer_traitsIPKNS_17__hash_value_typeIN8Solution8CharTypeENS2_5StateEEEE10pointer_toB7v160006ERS6_, symObjAddr: 0xC110, symBinAddr: 0x10000CA50, symSize: 0x10 }
  - { offsetInCU: 0x12631, offset: 0x12631, size: 0x8, addend: 0x0, symName: __ZNSt3__121__hash_const_iteratorIPNS_11__hash_nodeINS_17__hash_value_typeIN8Solution8CharTypeENS3_5StateEEEPvEEEppB7v160006Ev, symObjAddr: 0xC120, symBinAddr: 0x10000CA60, symSize: 0xB0 }
  - { offsetInCU: 0x12656, offset: 0x12656, size: 0x8, addend: 0x0, symName: __ZNKSt3__112__hash_tableINS_17__hash_value_typeIN8Solution8CharTypeENS2_5StateEEENS_22__unordered_map_hasherIS3_S5_NS_4hashIS3_EENS_8equal_toIS3_EELb1EEENS_21__unordered_map_equalIS3_S5_SA_S8_Lb1EEENS_9allocatorIS5_EEE5beginEv, symObjAddr: 0xC1D0, symBinAddr: 0x10000CB10, symSize: 0x1C0 }
  - { offsetInCU: 0x1267E, offset: 0x1267E, size: 0x8, addend: 0x0, symName: __ZNSt3__125__hash_map_const_iteratorINS_21__hash_const_iteratorIPNS_11__hash_nodeINS_17__hash_value_typeIN8Solution8CharTypeENS4_5StateEEEPvEEEEEC1B7v160006ESB_, symObjAddr: 0xC390, symBinAddr: 0x10000CCD0, symSize: 0x1B0 }
  - { offsetInCU: 0x126BA, offset: 0x126BA, size: 0x8, addend: 0x0, symName: __ZNKSt3__117__compressed_pairINS_16__hash_node_baseIPNS_11__hash_nodeINS_17__hash_value_typeIN8Solution8CharTypeENS4_5StateEEEPvEEEENS_9allocatorIS9_EEE5firstB7v160006Ev, symObjAddr: 0xC540, symBinAddr: 0x10000CE80, symSize: 0x20 }
  - { offsetInCU: 0x126DF, offset: 0x126DF, size: 0x8, addend: 0x0, symName: __ZNSt3__121__hash_const_iteratorIPNS_11__hash_nodeINS_17__hash_value_typeIN8Solution8CharTypeENS3_5StateEEEPvEEEC1B7v160006EPNS_16__hash_node_baseIS9_EEPKv, symObjAddr: 0xC560, symBinAddr: 0x10000CEA0, symSize: 0x30 }
  - { offsetInCU: 0x12725, offset: 0x12725, size: 0x8, addend: 0x0, symName: __ZNKSt3__122__compressed_pair_elemINS_16__hash_node_baseIPNS_11__hash_nodeINS_17__hash_value_typeIN8Solution8CharTypeENS4_5StateEEEPvEEEELi0ELb0EE5__getB7v160006Ev, symObjAddr: 0xC590, symBinAddr: 0x10000CED0, symSize: 0x10 }
  - { offsetInCU: 0x1274A, offset: 0x1274A, size: 0x8, addend: 0x0, symName: __ZNSt3__121__hash_const_iteratorIPNS_11__hash_nodeINS_17__hash_value_typeIN8Solution8CharTypeENS3_5StateEEEPvEEEC2B7v160006EPNS_16__hash_node_baseIS9_EEPKv, symObjAddr: 0xC5A0, symBinAddr: 0x10000CEE0, symSize: 0x60 }
  - { offsetInCU: 0x12791, offset: 0x12791, size: 0x8, addend: 0x0, symName: __ZNSt3__125__hash_map_const_iteratorINS_21__hash_const_iteratorIPNS_11__hash_nodeINS_17__hash_value_typeIN8Solution8CharTypeENS4_5StateEEEPvEEEEEC2B7v160006ESB_, symObjAddr: 0xC600, symBinAddr: 0x10000CF40, symSize: 0x180 }
  - { offsetInCU: 0x127CE, offset: 0x127CE, size: 0x8, addend: 0x0, symName: __ZNKSt3__112__hash_tableINS_17__hash_value_typeIN8Solution8CharTypeENS2_5StateEEENS_22__unordered_map_hasherIS3_S5_NS_4hashIS3_EENS_8equal_toIS3_EELb1EEENS_21__unordered_map_equalIS3_S5_SA_S8_Lb1EEENS_9allocatorIS5_EEE3endEv, symObjAddr: 0xC780, symBinAddr: 0x10000D0C0, symSize: 0x180 }
  - { offsetInCU: 0x127F6, offset: 0x127F6, size: 0x8, addend: 0x0, symName: __ZNSt3__113unordered_mapIN8Solution5StateENS0_INS1_8CharTypeES2_NS_4hashIS3_EENS_8equal_toIS3_EENS_9allocatorINS_4pairIKS3_S2_EEEEEENS4_IS2_EENS6_IS2_EENS8_INS9_IKS2_SD_EEEEEC2ESt16initializer_listISH_E, symObjAddr: 0xC900, symBinAddr: 0x10000D240, symSize: 0x280 }
  - { offsetInCU: 0x12835, offset: 0x12835, size: 0x8, addend: 0x0, symName: __ZNSt3__112__hash_tableINS_17__hash_value_typeIN8Solution5StateENS_13unordered_mapINS2_8CharTypeES3_NS_4hashIS5_EENS_8equal_toIS5_EENS_9allocatorINS_4pairIKS5_S3_EEEEEEEENS_22__unordered_map_hasherIS3_SG_NS6_IS3_EENS8_IS3_EELb1EEENS_21__unordered_map_equalIS3_SG_SJ_SI_Lb1EEENSA_ISG_EEEC1Ev, symObjAddr: 0xCB80, symBinAddr: 0x10000D4C0, symSize: 0x20 }
  - { offsetInCU: 0x12860, offset: 0x12860, size: 0x8, addend: 0x0, symName: __ZNSt3__113unordered_mapIN8Solution5StateENS0_INS1_8CharTypeES2_NS_4hashIS3_EENS_8equal_toIS3_EENS_9allocatorINS_4pairIKS3_S2_EEEEEENS4_IS2_EENS6_IS2_EENS8_INS9_IKS2_SD_EEEEE6insertIPKSH_EEvT_SN_, symObjAddr: 0xCBB0, symBinAddr: 0x10000D4F0, symSize: 0x200 }
  - { offsetInCU: 0x128B0, offset: 0x128B0, size: 0x8, addend: 0x0, symName: __ZNKSt16initializer_listINSt3__14pairIKN8Solution5StateENS0_13unordered_mapINS2_8CharTypeES3_NS0_4hashIS6_EENS0_8equal_toIS6_EENS0_9allocatorINS1_IKS6_S3_EEEEEEEEE5beginB7v160006Ev, symObjAddr: 0xCDB0, symBinAddr: 0x10000D6F0, symSize: 0x50 }
  - { offsetInCU: 0x128D4, offset: 0x128D4, size: 0x8, addend: 0x0, symName: __ZNKSt16initializer_listINSt3__14pairIKN8Solution5StateENS0_13unordered_mapINS2_8CharTypeES3_NS0_4hashIS6_EENS0_8equal_toIS6_EENS0_9allocatorINS1_IKS6_S3_EEEEEEEEE3endB7v160006Ev, symObjAddr: 0xCE00, symBinAddr: 0x10000D740, symSize: 0x90 }
  - { offsetInCU: 0x128F9, offset: 0x128F9, size: 0x8, addend: 0x0, symName: __ZNSt3__112__hash_tableINS_17__hash_value_typeIN8Solution5StateENS_13unordered_mapINS2_8CharTypeES3_NS_4hashIS5_EENS_8equal_toIS5_EENS_9allocatorINS_4pairIKS5_S3_EEEEEEEENS_22__unordered_map_hasherIS3_SG_NS6_IS3_EENS8_IS3_EELb1EEENS_21__unordered_map_equalIS3_SG_SJ_SI_Lb1EEENSA_ISG_EEED1Ev, symObjAddr: 0xCE90, symBinAddr: 0x10000D7D0, symSize: 0x20 }
  - { offsetInCU: 0x12924, offset: 0x12924, size: 0x8, addend: 0x0, symName: __ZNSt3__112__hash_tableINS_17__hash_value_typeIN8Solution5StateENS_13unordered_mapINS2_8CharTypeES3_NS_4hashIS5_EENS_8equal_toIS5_EENS_9allocatorINS_4pairIKS5_S3_EEEEEEEENS_22__unordered_map_hasherIS3_SG_NS6_IS3_EENS8_IS3_EELb1EEENS_21__unordered_map_equalIS3_SG_SJ_SI_Lb1EEENSA_ISG_EEEC2Ev, symObjAddr: 0xCEB0, symBinAddr: 0x10000D7F0, symSize: 0x2E0 }
  - { offsetInCU: 0x12950, offset: 0x12950, size: 0x8, addend: 0x0, symName: __ZNSt3__110unique_ptrIA_PNS_16__hash_node_baseIPNS_11__hash_nodeINS_17__hash_value_typeIN8Solution5StateENS_13unordered_mapINS4_8CharTypeES5_NS_4hashIS7_EENS_8equal_toIS7_EENS_9allocatorINS_4pairIKS7_S5_EEEEEEEEPvEEEENS_25__bucket_list_deallocatorINSC_ISN_EEEEEC1B7v160006ILb1EvEEv, symObjAddr: 0xD190, symBinAddr: 0x10000DAD0, symSize: 0x20 }
  - { offsetInCU: 0x12984, offset: 0x12984, size: 0x8, addend: 0x0, symName: __ZNSt3__117__compressed_pairINS_16__hash_node_baseIPNS_11__hash_nodeINS_17__hash_value_typeIN8Solution5StateENS_13unordered_mapINS4_8CharTypeES5_NS_4hashIS7_EENS_8equal_toIS7_EENS_9allocatorINS_4pairIKS7_S5_EEEEEEEEPvEEEENSC_ISK_EEEC1B7v160006ILb1EvEEv, symObjAddr: 0xD1B0, symBinAddr: 0x10000DAF0, symSize: 0x20 }
  - { offsetInCU: 0x129B8, offset: 0x129B8, size: 0x8, addend: 0x0, symName: __ZNSt3__117__compressed_pairImNS_22__unordered_map_hasherIN8Solution5StateENS_17__hash_value_typeIS3_NS_13unordered_mapINS2_8CharTypeES3_NS_4hashIS6_EENS_8equal_toIS6_EENS_9allocatorINS_4pairIKS6_S3_EEEEEEEENS7_IS3_EENS9_IS3_EELb1EEEEC1B7v160006IiNS_18__default_init_tagEEEOT_OT0_, symObjAddr: 0xD1D0, symBinAddr: 0x10000DB10, symSize: 0x30 }
  - { offsetInCU: 0x12A0F, offset: 0x12A0F, size: 0x8, addend: 0x0, symName: __ZNSt3__117__compressed_pairIfNS_21__unordered_map_equalIN8Solution5StateENS_17__hash_value_typeIS3_NS_13unordered_mapINS2_8CharTypeES3_NS_4hashIS6_EENS_8equal_toIS6_EENS_9allocatorINS_4pairIKS6_S3_EEEEEEEENS9_IS3_EENS7_IS3_EELb1EEEEC1B7v160006IfNS_18__default_init_tagEEEOT_OT0_, symObjAddr: 0xD200, symBinAddr: 0x10000DB40, symSize: 0x30 }
  - { offsetInCU: 0x12A66, offset: 0x12A66, size: 0x8, addend: 0x0, symName: __ZNSt3__110unique_ptrIA_PNS_16__hash_node_baseIPNS_11__hash_nodeINS_17__hash_value_typeIN8Solution5StateENS_13unordered_mapINS4_8CharTypeES5_NS_4hashIS7_EENS_8equal_toIS7_EENS_9allocatorINS_4pairIKS7_S5_EEEEEEEEPvEEEENS_25__bucket_list_deallocatorINSC_ISN_EEEEEC2B7v160006ILb1EvEEv, symObjAddr: 0xD230, symBinAddr: 0x10000DB70, symSize: 0x170 }
  - { offsetInCU: 0x12A9B, offset: 0x12A9B, size: 0x8, addend: 0x0, symName: __ZNSt3__117__compressed_pairIPPNS_16__hash_node_baseIPNS_11__hash_nodeINS_17__hash_value_typeIN8Solution5StateENS_13unordered_mapINS4_8CharTypeES5_NS_4hashIS7_EENS_8equal_toIS7_EENS_9allocatorINS_4pairIKS7_S5_EEEEEEEEPvEEEENS_25__bucket_list_deallocatorINSC_ISN_EEEEEC1B7v160006INS_16__value_init_tagESU_EEOT_OT0_, symObjAddr: 0xD3A0, symBinAddr: 0x10000DCE0, symSize: 0x30 }
  - { offsetInCU: 0x12AF2, offset: 0x12AF2, size: 0x8, addend: 0x0, symName: __ZNSt3__117__compressed_pairIPPNS_16__hash_node_baseIPNS_11__hash_nodeINS_17__hash_value_typeIN8Solution5StateENS_13unordered_mapINS4_8CharTypeES5_NS_4hashIS7_EENS_8equal_toIS7_EENS_9allocatorINS_4pairIKS7_S5_EEEEEEEEPvEEEENS_25__bucket_list_deallocatorINSC_ISN_EEEEEC2B7v160006INS_16__value_init_tagESU_EEOT_OT0_, symObjAddr: 0xD3D0, symBinAddr: 0x10000DD10, symSize: 0x40 }
  - { offsetInCU: 0x12B49, offset: 0x12B49, size: 0x8, addend: 0x0, symName: __ZNSt3__122__compressed_pair_elemIPPNS_16__hash_node_baseIPNS_11__hash_nodeINS_17__hash_value_typeIN8Solution5StateENS_13unordered_mapINS4_8CharTypeES5_NS_4hashIS7_EENS_8equal_toIS7_EENS_9allocatorINS_4pairIKS7_S5_EEEEEEEEPvEEEELi0ELb0EEC2B7v160006ENS_16__value_init_tagE, symObjAddr: 0xD410, symBinAddr: 0x10000DD50, symSize: 0x50 }
  - { offsetInCU: 0x12B7D, offset: 0x12B7D, size: 0x8, addend: 0x0, symName: __ZNSt3__122__compressed_pair_elemINS_25__bucket_list_deallocatorINS_9allocatorIPNS_16__hash_node_baseIPNS_11__hash_nodeINS_17__hash_value_typeIN8Solution5StateENS_13unordered_mapINS6_8CharTypeES7_NS_4hashIS9_EENS_8equal_toIS9_EENS2_INS_4pairIKS9_S7_EEEEEEEEPvEEEEEEEELi1ELb0EEC2B7v160006ENS_16__value_init_tagE, symObjAddr: 0xD460, symBinAddr: 0x10000DDA0, symSize: 0x20 }
  - { offsetInCU: 0x12BB1, offset: 0x12BB1, size: 0x8, addend: 0x0, symName: __ZNSt3__125__bucket_list_deallocatorINS_9allocatorIPNS_16__hash_node_baseIPNS_11__hash_nodeINS_17__hash_value_typeIN8Solution5StateENS_13unordered_mapINS5_8CharTypeES6_NS_4hashIS8_EENS_8equal_toIS8_EENS1_INS_4pairIKS8_S6_EEEEEEEEPvEEEEEEEC1B7v160006Ev, symObjAddr: 0xD480, symBinAddr: 0x10000DDC0, symSize: 0x20 }
  - { offsetInCU: 0x12BDA, offset: 0x12BDA, size: 0x8, addend: 0x0, symName: __ZNSt3__125__bucket_list_deallocatorINS_9allocatorIPNS_16__hash_node_baseIPNS_11__hash_nodeINS_17__hash_value_typeIN8Solution5StateENS_13unordered_mapINS5_8CharTypeES6_NS_4hashIS8_EENS_8equal_toIS8_EENS1_INS_4pairIKS8_S6_EEEEEEEEPvEEEEEEEC2B7v160006Ev, symObjAddr: 0xD4A0, symBinAddr: 0x10000DDE0, symSize: 0x1D0 }
  - { offsetInCU: 0x12C04, offset: 0x12C04, size: 0x8, addend: 0x0, symName: __ZNSt3__117__compressed_pairImNS_9allocatorIPNS_16__hash_node_baseIPNS_11__hash_nodeINS_17__hash_value_typeIN8Solution5StateENS_13unordered_mapINS5_8CharTypeES6_NS_4hashIS8_EENS_8equal_toIS8_EENS1_INS_4pairIKS8_S6_EEEEEEEEPvEEEEEEEC1B7v160006IiNS_18__default_init_tagEEEOT_OT0_, symObjAddr: 0xD670, symBinAddr: 0x10000DFB0, symSize: 0x30 }
  - { offsetInCU: 0x12C5B, offset: 0x12C5B, size: 0x8, addend: 0x0, symName: __ZNSt3__117__compressed_pairImNS_9allocatorIPNS_16__hash_node_baseIPNS_11__hash_nodeINS_17__hash_value_typeIN8Solution5StateENS_13unordered_mapINS5_8CharTypeES6_NS_4hashIS8_EENS_8equal_toIS8_EENS1_INS_4pairIKS8_S6_EEEEEEEEPvEEEEEEEC2B7v160006IiNS_18__default_init_tagEEEOT_OT0_, symObjAddr: 0xD6A0, symBinAddr: 0x10000DFE0, symSize: 0x40 }
  - { offsetInCU: 0x12CB2, offset: 0x12CB2, size: 0x8, addend: 0x0, symName: __ZNSt3__122__compressed_pair_elemINS_9allocatorIPNS_16__hash_node_baseIPNS_11__hash_nodeINS_17__hash_value_typeIN8Solution5StateENS_13unordered_mapINS5_8CharTypeES6_NS_4hashIS8_EENS_8equal_toIS8_EENS1_INS_4pairIKS8_S6_EEEEEEEEPvEEEEEELi1ELb1EEC2B7v160006ENS_18__default_init_tagE, symObjAddr: 0xD6E0, symBinAddr: 0x10000E020, symSize: 0x20 }
  - { offsetInCU: 0x12CE6, offset: 0x12CE6, size: 0x8, addend: 0x0, symName: __ZNSt3__19allocatorIPNS_16__hash_node_baseIPNS_11__hash_nodeINS_17__hash_value_typeIN8Solution5StateENS_13unordered_mapINS4_8CharTypeES5_NS_4hashIS7_EENS_8equal_toIS7_EENS0_INS_4pairIKS7_S5_EEEEEEEEPvEEEEEC2B7v160006Ev, symObjAddr: 0xD700, symBinAddr: 0x10000E040, symSize: 0x20 }
  - { offsetInCU: 0x12D0F, offset: 0x12D0F, size: 0x8, addend: 0x0, symName: __ZNSt3__116__non_trivial_ifILb1ENS_9allocatorIPNS_16__hash_node_baseIPNS_11__hash_nodeINS_17__hash_value_typeIN8Solution5StateENS_13unordered_mapINS5_8CharTypeES6_NS_4hashIS8_EENS_8equal_toIS8_EENS1_INS_4pairIKS8_S6_EEEEEEEEPvEEEEEEEC2B7v160006Ev, symObjAddr: 0xD720, symBinAddr: 0x10000E060, symSize: 0x10 }
  - { offsetInCU: 0x12D38, offset: 0x12D38, size: 0x8, addend: 0x0, symName: __ZNSt3__117__compressed_pairINS_16__hash_node_baseIPNS_11__hash_nodeINS_17__hash_value_typeIN8Solution5StateENS_13unordered_mapINS4_8CharTypeES5_NS_4hashIS7_EENS_8equal_toIS7_EENS_9allocatorINS_4pairIKS7_S5_EEEEEEEEPvEEEENSC_ISK_EEEC2B7v160006ILb1EvEEv, symObjAddr: 0xD730, symBinAddr: 0x10000E070, symSize: 0x30 }
  - { offsetInCU: 0x12D6C, offset: 0x12D6C, size: 0x8, addend: 0x0, symName: __ZNSt3__122__compressed_pair_elemINS_16__hash_node_baseIPNS_11__hash_nodeINS_17__hash_value_typeIN8Solution5StateENS_13unordered_mapINS4_8CharTypeES5_NS_4hashIS7_EENS_8equal_toIS7_EENS_9allocatorINS_4pairIKS7_S5_EEEEEEEEPvEEEELi0ELb0EEC2B7v160006ENS_16__value_init_tagE, symObjAddr: 0xD760, symBinAddr: 0x10000E0A0, symSize: 0x20 }
  - { offsetInCU: 0x12DA0, offset: 0x12DA0, size: 0x8, addend: 0x0, symName: __ZNSt3__122__compressed_pair_elemINS_9allocatorINS_11__hash_nodeINS_17__hash_value_typeIN8Solution5StateENS_13unordered_mapINS4_8CharTypeES5_NS_4hashIS7_EENS_8equal_toIS7_EENS1_INS_4pairIKS7_S5_EEEEEEEEPvEEEELi1ELb1EEC2B7v160006ENS_16__value_init_tagE, symObjAddr: 0xD780, symBinAddr: 0x10000E0C0, symSize: 0x20 }
  - { offsetInCU: 0x12DD4, offset: 0x12DD4, size: 0x8, addend: 0x0, symName: __ZNSt3__116__hash_node_baseIPNS_11__hash_nodeINS_17__hash_value_typeIN8Solution5StateENS_13unordered_mapINS3_8CharTypeES4_NS_4hashIS6_EENS_8equal_toIS6_EENS_9allocatorINS_4pairIKS6_S4_EEEEEEEEPvEEEC1B7v160006Ev, symObjAddr: 0xD7A0, symBinAddr: 0x10000E0E0, symSize: 0x20 }
  - { offsetInCU: 0x12DFD, offset: 0x12DFD, size: 0x8, addend: 0x0, symName: __ZNSt3__116__hash_node_baseIPNS_11__hash_nodeINS_17__hash_value_typeIN8Solution5StateENS_13unordered_mapINS3_8CharTypeES4_NS_4hashIS6_EENS_8equal_toIS6_EENS_9allocatorINS_4pairIKS6_S4_EEEEEEEEPvEEEC2B7v160006Ev, symObjAddr: 0xD7C0, symBinAddr: 0x10000E100, symSize: 0x50 }
  - { offsetInCU: 0x12E26, offset: 0x12E26, size: 0x8, addend: 0x0, symName: __ZNSt3__19allocatorINS_11__hash_nodeINS_17__hash_value_typeIN8Solution5StateENS_13unordered_mapINS3_8CharTypeES4_NS_4hashIS6_EENS_8equal_toIS6_EENS0_INS_4pairIKS6_S4_EEEEEEEEPvEEEC2B7v160006Ev, symObjAddr: 0xD810, symBinAddr: 0x10000E150, symSize: 0x20 }
  - { offsetInCU: 0x12E4F, offset: 0x12E4F, size: 0x8, addend: 0x0, symName: __ZNSt3__116__non_trivial_ifILb1ENS_9allocatorINS_11__hash_nodeINS_17__hash_value_typeIN8Solution5StateENS_13unordered_mapINS4_8CharTypeES5_NS_4hashIS7_EENS_8equal_toIS7_EENS1_INS_4pairIKS7_S5_EEEEEEEEPvEEEEEC2B7v160006Ev, symObjAddr: 0xD830, symBinAddr: 0x10000E170, symSize: 0x10 }
  - { offsetInCU: 0x12E78, offset: 0x12E78, size: 0x8, addend: 0x0, symName: __ZNSt3__117__compressed_pairImNS_22__unordered_map_hasherIN8Solution5StateENS_17__hash_value_typeIS3_NS_13unordered_mapINS2_8CharTypeES3_NS_4hashIS6_EENS_8equal_toIS6_EENS_9allocatorINS_4pairIKS6_S3_EEEEEEEENS7_IS3_EENS9_IS3_EELb1EEEEC2B7v160006IiNS_18__default_init_tagEEEOT_OT0_, symObjAddr: 0xD840, symBinAddr: 0x10000E180, symSize: 0x40 }
  - { offsetInCU: 0x12ECF, offset: 0x12ECF, size: 0x8, addend: 0x0, symName: __ZNSt3__122__compressed_pair_elemINS_22__unordered_map_hasherIN8Solution5StateENS_17__hash_value_typeIS3_NS_13unordered_mapINS2_8CharTypeES3_NS_4hashIS6_EENS_8equal_toIS6_EENS_9allocatorINS_4pairIKS6_S3_EEEEEEEENS7_IS3_EENS9_IS3_EELb1EEELi1ELb1EEC2B7v160006ENS_18__default_init_tagE, symObjAddr: 0xD880, symBinAddr: 0x10000E1C0, symSize: 0x20 }
  - { offsetInCU: 0x12F03, offset: 0x12F03, size: 0x8, addend: 0x0, symName: __ZNSt3__122__unordered_map_hasherIN8Solution5StateENS_17__hash_value_typeIS2_NS_13unordered_mapINS1_8CharTypeES2_NS_4hashIS5_EENS_8equal_toIS5_EENS_9allocatorINS_4pairIKS5_S2_EEEEEEEENS6_IS2_EENS8_IS2_EELb1EEC2B7v160006Ev, symObjAddr: 0xD8A0, symBinAddr: 0x10000E1E0, symSize: 0x10 }
  - { offsetInCU: 0x12F2C, offset: 0x12F2C, size: 0x8, addend: 0x0, symName: __ZNSt3__117__compressed_pairIfNS_21__unordered_map_equalIN8Solution5StateENS_17__hash_value_typeIS3_NS_13unordered_mapINS2_8CharTypeES3_NS_4hashIS6_EENS_8equal_toIS6_EENS_9allocatorINS_4pairIKS6_S3_EEEEEEEENS9_IS3_EENS7_IS3_EELb1EEEEC2B7v160006IfNS_18__default_init_tagEEEOT_OT0_, symObjAddr: 0xD8B0, symBinAddr: 0x10000E1F0, symSize: 0x40 }
  - { offsetInCU: 0x12F83, offset: 0x12F83, size: 0x8, addend: 0x0, symName: __ZNSt3__122__compressed_pair_elemINS_21__unordered_map_equalIN8Solution5StateENS_17__hash_value_typeIS3_NS_13unordered_mapINS2_8CharTypeES3_NS_4hashIS6_EENS_8equal_toIS6_EENS_9allocatorINS_4pairIKS6_S3_EEEEEEEENS9_IS3_EENS7_IS3_EELb1EEELi1ELb1EEC2B7v160006ENS_18__default_init_tagE, symObjAddr: 0xD8F0, symBinAddr: 0x10000E230, symSize: 0x20 }
  - { offsetInCU: 0x12FB7, offset: 0x12FB7, size: 0x8, addend: 0x0, symName: __ZNSt3__121__unordered_map_equalIN8Solution5StateENS_17__hash_value_typeIS2_NS_13unordered_mapINS1_8CharTypeES2_NS_4hashIS5_EENS_8equal_toIS5_EENS_9allocatorINS_4pairIKS5_S2_EEEEEEEENS8_IS2_EENS6_IS2_EELb1EEC2B7v160006Ev, symObjAddr: 0xD910, symBinAddr: 0x10000E250, symSize: 0x10 }
  - { offsetInCU: 0x12FDF, offset: 0x12FDF, size: 0x8, addend: 0x0, symName: __ZNSt3__112__hash_tableINS_17__hash_value_typeIN8Solution5StateENS_13unordered_mapINS2_8CharTypeES3_NS_4hashIS5_EENS_8equal_toIS5_EENS_9allocatorINS_4pairIKS5_S3_EEEEEEEENS_22__unordered_map_hasherIS3_SG_NS6_IS3_EENS8_IS3_EELb1EEENS_21__unordered_map_equalIS3_SG_SJ_SI_Lb1EEENSA_ISG_EEE15__insert_uniqueB7v160006ERKNSB_IKS3_SF_EE, symObjAddr: 0xD920, symBinAddr: 0x10000E260, symSize: 0x230 }
  - { offsetInCU: 0x13015, offset: 0x13015, size: 0x8, addend: 0x0, symName: __ZNSt3__112__hash_tableINS_17__hash_value_typeIN8Solution5StateENS_13unordered_mapINS2_8CharTypeES3_NS_4hashIS5_EENS_8equal_toIS5_EENS_9allocatorINS_4pairIKS5_S3_EEEEEEEENS_22__unordered_map_hasherIS3_SG_NS6_IS3_EENS8_IS3_EELb1EEENS_21__unordered_map_equalIS3_SG_SJ_SI_Lb1EEENSA_ISG_EEE25__emplace_unique_key_argsIS3_JRKNSB_IKS3_SF_EEEEENSB_INS_15__hash_iteratorIPNS_11__hash_nodeISG_PvEEEEbEERKT_DpOT0_, symObjAddr: 0xDB50, symBinAddr: 0x10000E490, symSize: 0xF70 }
  - { offsetInCU: 0x13106, offset: 0x13106, size: 0x8, addend: 0x0, symName: __ZNSt3__122__hash_key_value_typesINS_17__hash_value_typeIN8Solution5StateENS_13unordered_mapINS2_8CharTypeES3_NS_4hashIS5_EENS_8equal_toIS5_EENS_9allocatorINS_4pairIKS5_S3_EEEEEEEEE9__get_keyB7v160006ERKNSB_IKS3_SF_EE, symObjAddr: 0xEAC0, symBinAddr: 0x10000F400, symSize: 0x10 }
  - { offsetInCU: 0x13128, offset: 0x13128, size: 0x8, addend: 0x0, symName: __ZNSt3__112__hash_tableINS_17__hash_value_typeIN8Solution5StateENS_13unordered_mapINS2_8CharTypeES3_NS_4hashIS5_EENS_8equal_toIS5_EENS_9allocatorINS_4pairIKS5_S3_EEEEEEEENS_22__unordered_map_hasherIS3_SG_NS6_IS3_EENS8_IS3_EELb1EEENS_21__unordered_map_equalIS3_SG_SJ_SI_Lb1EEENSA_ISG_EEE13hash_functionB7v160006Ev, symObjAddr: 0xEAD0, symBinAddr: 0x10000F410, symSize: 0x20 }
  - { offsetInCU: 0x1314C, offset: 0x1314C, size: 0x8, addend: 0x0, symName: __ZNKSt3__122__unordered_map_hasherIN8Solution5StateENS_17__hash_value_typeIS2_NS_13unordered_mapINS1_8CharTypeES2_NS_4hashIS5_EENS_8equal_toIS5_EENS_9allocatorINS_4pairIKS5_S2_EEEEEEEENS6_IS2_EENS8_IS2_EELb1EEclB7v160006ERKS2_, symObjAddr: 0xEAF0, symBinAddr: 0x10000F430, symSize: 0x80 }
  - { offsetInCU: 0x1317F, offset: 0x1317F, size: 0x8, addend: 0x0, symName: __ZNKSt3__112__hash_tableINS_17__hash_value_typeIN8Solution5StateENS_13unordered_mapINS2_8CharTypeES3_NS_4hashIS5_EENS_8equal_toIS5_EENS_9allocatorINS_4pairIKS5_S3_EEEEEEEENS_22__unordered_map_hasherIS3_SG_NS6_IS3_EENS8_IS3_EELb1EEENS_21__unordered_map_equalIS3_SG_SJ_SI_Lb1EEENSA_ISG_EEE12bucket_countB7v160006Ev, symObjAddr: 0xEB70, symBinAddr: 0x10000F4B0, symSize: 0x30 }
  - { offsetInCU: 0x131A3, offset: 0x131A3, size: 0x8, addend: 0x0, symName: __ZNKSt3__110unique_ptrIA_PNS_16__hash_node_baseIPNS_11__hash_nodeINS_17__hash_value_typeIN8Solution5StateENS_13unordered_mapINS4_8CharTypeES5_NS_4hashIS7_EENS_8equal_toIS7_EENS_9allocatorINS_4pairIKS7_S5_EEEEEEEEPvEEEENS_25__bucket_list_deallocatorINSC_ISN_EEEEEixB7v160006Em, symObjAddr: 0xEBA0, symBinAddr: 0x10000F4E0, symSize: 0x60 }
  - { offsetInCU: 0x131D6, offset: 0x131D6, size: 0x8, addend: 0x0, symName: __ZNKSt3__116__hash_node_baseIPNS_11__hash_nodeINS_17__hash_value_typeIN8Solution5StateENS_13unordered_mapINS3_8CharTypeES4_NS_4hashIS6_EENS_8equal_toIS6_EENS_9allocatorINS_4pairIKS6_S4_EEEEEEEEPvEEE6__hashB7v160006Ev, symObjAddr: 0xEC00, symBinAddr: 0x10000F540, symSize: 0x50 }
  - { offsetInCU: 0x131FA, offset: 0x131FA, size: 0x8, addend: 0x0, symName: __ZNSt3__112__hash_tableINS_17__hash_value_typeIN8Solution5StateENS_13unordered_mapINS2_8CharTypeES3_NS_4hashIS5_EENS_8equal_toIS5_EENS_9allocatorINS_4pairIKS5_S3_EEEEEEEENS_22__unordered_map_hasherIS3_SG_NS6_IS3_EENS8_IS3_EELb1EEENS_21__unordered_map_equalIS3_SG_SJ_SI_Lb1EEENSA_ISG_EEE6key_eqB7v160006Ev, symObjAddr: 0xEC50, symBinAddr: 0x10000F590, symSize: 0x20 }
  - { offsetInCU: 0x1321E, offset: 0x1321E, size: 0x8, addend: 0x0, symName: __ZNKSt3__121__unordered_map_equalIN8Solution5StateENS_17__hash_value_typeIS2_NS_13unordered_mapINS1_8CharTypeES2_NS_4hashIS5_EENS_8equal_toIS5_EENS_9allocatorINS_4pairIKS5_S2_EEEEEEEENS8_IS2_EENS6_IS2_EELb1EEclB7v160006ERKSG_RKS2_, symObjAddr: 0xEC70, symBinAddr: 0x10000F5B0, symSize: 0x40 }
  - { offsetInCU: 0x13260, offset: 0x13260, size: 0x8, addend: 0x0, symName: __ZNSt3__116__hash_node_baseIPNS_11__hash_nodeINS_17__hash_value_typeIN8Solution5StateENS_13unordered_mapINS3_8CharTypeES4_NS_4hashIS6_EENS_8equal_toIS6_EENS_9allocatorINS_4pairIKS6_S4_EEEEEEEEPvEEE8__upcastB7v160006Ev, symObjAddr: 0xECB0, symBinAddr: 0x10000F5F0, symSize: 0x20 }
  - { offsetInCU: 0x13285, offset: 0x13285, size: 0x8, addend: 0x0, symName: __ZNSt3__112__hash_tableINS_17__hash_value_typeIN8Solution5StateENS_13unordered_mapINS2_8CharTypeES3_NS_4hashIS5_EENS_8equal_toIS5_EENS_9allocatorINS_4pairIKS5_S3_EEEEEEEENS_22__unordered_map_hasherIS3_SG_NS6_IS3_EENS8_IS3_EELb1EEENS_21__unordered_map_equalIS3_SG_SJ_SI_Lb1EEENSA_ISG_EEE21__construct_node_hashIRKNSB_IKS3_SF_EEJEEENS_10unique_ptrINS_11__hash_nodeISG_PvEENS_22__hash_node_destructorINSA_ISX_EEEEEEmOT_DpOT0_, symObjAddr: 0xECD0, symBinAddr: 0x10000F610, symSize: 0x3B0 }
  - { offsetInCU: 0x132FD, offset: 0x132FD, size: 0x8, addend: 0x0, symName: __ZNSt3__112__hash_tableINS_17__hash_value_typeIN8Solution5StateENS_13unordered_mapINS2_8CharTypeES3_NS_4hashIS5_EENS_8equal_toIS5_EENS_9allocatorINS_4pairIKS5_S3_EEEEEEEENS_22__unordered_map_hasherIS3_SG_NS6_IS3_EENS8_IS3_EELb1EEENS_21__unordered_map_equalIS3_SG_SJ_SI_Lb1EEENSA_ISG_EEE4sizeB7v160006Ev, symObjAddr: 0xF080, symBinAddr: 0x10000F9C0, symSize: 0x20 }
  - { offsetInCU: 0x13321, offset: 0x13321, size: 0x8, addend: 0x0, symName: __ZNSt3__112__hash_tableINS_17__hash_value_typeIN8Solution5StateENS_13unordered_mapINS2_8CharTypeES3_NS_4hashIS5_EENS_8equal_toIS5_EENS_9allocatorINS_4pairIKS5_S3_EEEEEEEENS_22__unordered_map_hasherIS3_SG_NS6_IS3_EENS8_IS3_EELb1EEENS_21__unordered_map_equalIS3_SG_SJ_SI_Lb1EEENSA_ISG_EEE15max_load_factorB7v160006Ev, symObjAddr: 0xF0A0, symBinAddr: 0x10000F9E0, symSize: 0x20 }
  - { offsetInCU: 0x13345, offset: 0x13345, size: 0x8, addend: 0x0, symName: __ZNSt3__112__hash_tableINS_17__hash_value_typeIN8Solution5StateENS_13unordered_mapINS2_8CharTypeES3_NS_4hashIS5_EENS_8equal_toIS5_EENS_9allocatorINS_4pairIKS5_S3_EEEEEEEENS_22__unordered_map_hasherIS3_SG_NS6_IS3_EENS8_IS3_EELb1EEENS_21__unordered_map_equalIS3_SG_SJ_SI_Lb1EEENSA_ISG_EEE15__rehash_uniqueB7v160006Em, symObjAddr: 0xF0C0, symBinAddr: 0x10000FA00, symSize: 0x30 }
  - { offsetInCU: 0x13378, offset: 0x13378, size: 0x8, addend: 0x0, symName: __ZNSt3__117__compressed_pairINS_16__hash_node_baseIPNS_11__hash_nodeINS_17__hash_value_typeIN8Solution5StateENS_13unordered_mapINS4_8CharTypeES5_NS_4hashIS7_EENS_8equal_toIS7_EENS_9allocatorINS_4pairIKS7_S5_EEEEEEEEPvEEEENSC_ISK_EEE5firstB7v160006Ev, symObjAddr: 0xF0F0, symBinAddr: 0x10000FA30, symSize: 0x20 }
  - { offsetInCU: 0x1339C, offset: 0x1339C, size: 0x8, addend: 0x0, symName: __ZNSt3__116__hash_node_baseIPNS_11__hash_nodeINS_17__hash_value_typeIN8Solution5StateENS_13unordered_mapINS3_8CharTypeES4_NS_4hashIS6_EENS_8equal_toIS6_EENS_9allocatorINS_4pairIKS6_S4_EEEEEEEEPvEEE5__ptrB7v160006Ev, symObjAddr: 0xF110, symBinAddr: 0x10000FA50, symSize: 0x20 }
  - { offsetInCU: 0x133C0, offset: 0x133C0, size: 0x8, addend: 0x0, symName: __ZNKSt3__110unique_ptrINS_11__hash_nodeINS_17__hash_value_typeIN8Solution5StateENS_13unordered_mapINS3_8CharTypeES4_NS_4hashIS6_EENS_8equal_toIS6_EENS_9allocatorINS_4pairIKS6_S4_EEEEEEEEPvEENS_22__hash_node_destructorINSB_ISJ_EEEEEptB7v160006Ev, symObjAddr: 0xF130, symBinAddr: 0x10000FA70, symSize: 0x50 }
  - { offsetInCU: 0x133E4, offset: 0x133E4, size: 0x8, addend: 0x0, symName: __ZNKSt3__110unique_ptrINS_11__hash_nodeINS_17__hash_value_typeIN8Solution5StateENS_13unordered_mapINS3_8CharTypeES4_NS_4hashIS6_EENS_8equal_toIS6_EENS_9allocatorINS_4pairIKS6_S4_EEEEEEEEPvEENS_22__hash_node_destructorINSB_ISJ_EEEEE3getB7v160006Ev, symObjAddr: 0xF180, symBinAddr: 0x10000FAC0, symSize: 0x50 }
  - { offsetInCU: 0x13408, offset: 0x13408, size: 0x8, addend: 0x0, symName: __ZNSt3__110unique_ptrINS_11__hash_nodeINS_17__hash_value_typeIN8Solution5StateENS_13unordered_mapINS3_8CharTypeES4_NS_4hashIS6_EENS_8equal_toIS6_EENS_9allocatorINS_4pairIKS6_S4_EEEEEEEEPvEENS_22__hash_node_destructorINSB_ISJ_EEEEE7releaseB7v160006Ev, symObjAddr: 0xF1D0, symBinAddr: 0x10000FB10, symSize: 0xA0 }
  - { offsetInCU: 0x1343D, offset: 0x1343D, size: 0x8, addend: 0x0, symName: __ZNSt3__110unique_ptrINS_11__hash_nodeINS_17__hash_value_typeIN8Solution5StateENS_13unordered_mapINS3_8CharTypeES4_NS_4hashIS6_EENS_8equal_toIS6_EENS_9allocatorINS_4pairIKS6_S4_EEEEEEEEPvEENS_22__hash_node_destructorINSB_ISJ_EEEEED1B7v160006Ev, symObjAddr: 0xF270, symBinAddr: 0x10000FBB0, symSize: 0x20 }
  - { offsetInCU: 0x13466, offset: 0x13466, size: 0x8, addend: 0x0, symName: __ZNSt3__115__hash_iteratorIPNS_11__hash_nodeINS_17__hash_value_typeIN8Solution5StateENS_13unordered_mapINS3_8CharTypeES4_NS_4hashIS6_EENS_8equal_toIS6_EENS_9allocatorINS_4pairIKS6_S4_EEEEEEEEPvEEEC1B7v160006EPNS_16__hash_node_baseISK_EEPKv, symObjAddr: 0xF290, symBinAddr: 0x10000FBD0, symSize: 0x30 }
  - { offsetInCU: 0x134B2, offset: 0x134B2, size: 0x8, addend: 0x0, symName: __ZNSt3__14pairINS_15__hash_iteratorIPNS_11__hash_nodeINS_17__hash_value_typeIN8Solution5StateENS_13unordered_mapINS4_8CharTypeES5_NS_4hashIS7_EENS_8equal_toIS7_EENS_9allocatorINS0_IKS7_S5_EEEEEEEEPvEEEEbEC1B7v160006ISL_RbLSI_0EEEOT_OT0_, symObjAddr: 0xF2C0, symBinAddr: 0x10000FC00, symSize: 0x30 }
  - { offsetInCU: 0x1350E, offset: 0x1350E, size: 0x8, addend: 0x0, symName: __ZNSt3__117__compressed_pairImNS_22__unordered_map_hasherIN8Solution5StateENS_17__hash_value_typeIS3_NS_13unordered_mapINS2_8CharTypeES3_NS_4hashIS6_EENS_8equal_toIS6_EENS_9allocatorINS_4pairIKS6_S3_EEEEEEEENS7_IS3_EENS9_IS3_EELb1EEEE6secondB7v160006Ev, symObjAddr: 0xF2F0, symBinAddr: 0x10000FC30, symSize: 0x20 }
  - { offsetInCU: 0x13532, offset: 0x13532, size: 0x8, addend: 0x0, symName: __ZNSt3__122__compressed_pair_elemINS_22__unordered_map_hasherIN8Solution5StateENS_17__hash_value_typeIS3_NS_13unordered_mapINS2_8CharTypeES3_NS_4hashIS6_EENS_8equal_toIS6_EENS_9allocatorINS_4pairIKS6_S3_EEEEEEEENS7_IS3_EENS9_IS3_EELb1EEELi1ELb1EE5__getB7v160006Ev, symObjAddr: 0xF310, symBinAddr: 0x10000FC50, symSize: 0x10 }
  - { offsetInCU: 0x13556, offset: 0x13556, size: 0x8, addend: 0x0, symName: __ZNKSt3__110unique_ptrIA_PNS_16__hash_node_baseIPNS_11__hash_nodeINS_17__hash_value_typeIN8Solution5StateENS_13unordered_mapINS4_8CharTypeES5_NS_4hashIS7_EENS_8equal_toIS7_EENS_9allocatorINS_4pairIKS7_S5_EEEEEEEEPvEEEENS_25__bucket_list_deallocatorINSC_ISN_EEEEE11get_deleterB7v160006Ev, symObjAddr: 0xF470, symBinAddr: 0x10000FDB0, symSize: 0x20 }
  - { offsetInCU: 0x1357A, offset: 0x1357A, size: 0x8, addend: 0x0, symName: __ZNKSt3__125__bucket_list_deallocatorINS_9allocatorIPNS_16__hash_node_baseIPNS_11__hash_nodeINS_17__hash_value_typeIN8Solution5StateENS_13unordered_mapINS5_8CharTypeES6_NS_4hashIS8_EENS_8equal_toIS8_EENS1_INS_4pairIKS8_S6_EEEEEEEEPvEEEEEEE4sizeB7v160006Ev, symObjAddr: 0xF490, symBinAddr: 0x10000FDD0, symSize: 0x50 }
  - { offsetInCU: 0x1359E, offset: 0x1359E, size: 0x8, addend: 0x0, symName: __ZNKSt3__117__compressed_pairIPPNS_16__hash_node_baseIPNS_11__hash_nodeINS_17__hash_value_typeIN8Solution5StateENS_13unordered_mapINS4_8CharTypeES5_NS_4hashIS7_EENS_8equal_toIS7_EENS_9allocatorINS_4pairIKS7_S5_EEEEEEEEPvEEEENS_25__bucket_list_deallocatorINSC_ISN_EEEEE6secondB7v160006Ev, symObjAddr: 0xF4E0, symBinAddr: 0x10000FE20, symSize: 0x20 }
  - { offsetInCU: 0x135C2, offset: 0x135C2, size: 0x8, addend: 0x0, symName: __ZNKSt3__122__compressed_pair_elemINS_25__bucket_list_deallocatorINS_9allocatorIPNS_16__hash_node_baseIPNS_11__hash_nodeINS_17__hash_value_typeIN8Solution5StateENS_13unordered_mapINS6_8CharTypeES7_NS_4hashIS9_EENS_8equal_toIS9_EENS2_INS_4pairIKS9_S7_EEEEEEEEPvEEEEEEEELi1ELb0EE5__getB7v160006Ev, symObjAddr: 0xF500, symBinAddr: 0x10000FE40, symSize: 0x10 }
  - { offsetInCU: 0x135E6, offset: 0x135E6, size: 0x8, addend: 0x0, symName: __ZNKSt3__117__compressed_pairImNS_9allocatorIPNS_16__hash_node_baseIPNS_11__hash_nodeINS_17__hash_value_typeIN8Solution5StateENS_13unordered_mapINS5_8CharTypeES6_NS_4hashIS8_EENS_8equal_toIS8_EENS1_INS_4pairIKS8_S6_EEEEEEEEPvEEEEEEE5firstB7v160006Ev, symObjAddr: 0xF510, symBinAddr: 0x10000FE50, symSize: 0x20 }
  - { offsetInCU: 0x1360A, offset: 0x1360A, size: 0x8, addend: 0x0, symName: __ZNKSt3__117__compressed_pairIPPNS_16__hash_node_baseIPNS_11__hash_nodeINS_17__hash_value_typeIN8Solution5StateENS_13unordered_mapINS4_8CharTypeES5_NS_4hashIS7_EENS_8equal_toIS7_EENS_9allocatorINS_4pairIKS7_S5_EEEEEEEEPvEEEENS_25__bucket_list_deallocatorINSC_ISN_EEEEE5firstB7v160006Ev, symObjAddr: 0xF530, symBinAddr: 0x10000FE70, symSize: 0x20 }
  - { offsetInCU: 0x1362E, offset: 0x1362E, size: 0x8, addend: 0x0, symName: __ZNKSt3__122__compressed_pair_elemIPPNS_16__hash_node_baseIPNS_11__hash_nodeINS_17__hash_value_typeIN8Solution5StateENS_13unordered_mapINS4_8CharTypeES5_NS_4hashIS7_EENS_8equal_toIS7_EENS_9allocatorINS_4pairIKS7_S5_EEEEEEEEPvEEEELi0ELb0EE5__getB7v160006Ev, symObjAddr: 0xF550, symBinAddr: 0x10000FE90, symSize: 0x10 }
  - { offsetInCU: 0x13652, offset: 0x13652, size: 0x8, addend: 0x0, symName: __ZNSt3__117__compressed_pairIfNS_21__unordered_map_equalIN8Solution5StateENS_17__hash_value_typeIS3_NS_13unordered_mapINS2_8CharTypeES3_NS_4hashIS6_EENS_8equal_toIS6_EENS_9allocatorINS_4pairIKS6_S3_EEEEEEEENS9_IS3_EENS7_IS3_EELb1EEEE6secondB7v160006Ev, symObjAddr: 0xF560, symBinAddr: 0x10000FEA0, symSize: 0x20 }
  - { offsetInCU: 0x13676, offset: 0x13676, size: 0x8, addend: 0x0, symName: __ZNSt3__122__compressed_pair_elemINS_21__unordered_map_equalIN8Solution5StateENS_17__hash_value_typeIS3_NS_13unordered_mapINS2_8CharTypeES3_NS_4hashIS6_EENS_8equal_toIS6_EENS_9allocatorINS_4pairIKS6_S3_EEEEEEEENS9_IS3_EENS7_IS3_EELb1EEELi1ELb1EE5__getB7v160006Ev, symObjAddr: 0xF580, symBinAddr: 0x10000FEC0, symSize: 0x10 }
  - { offsetInCU: 0x1369A, offset: 0x1369A, size: 0x8, addend: 0x0, symName: __ZNKSt3__18equal_toIN8Solution5StateEEclB7v160006ERKS2_S5_, symObjAddr: 0xF590, symBinAddr: 0x10000FED0, symSize: 0xD0 }
  - { offsetInCU: 0x136DC, offset: 0x136DC, size: 0x8, addend: 0x0, symName: __ZNKSt3__117__hash_value_typeIN8Solution5StateENS_13unordered_mapINS1_8CharTypeES2_NS_4hashIS4_EENS_8equal_toIS4_EENS_9allocatorINS_4pairIKS4_S2_EEEEEEE11__get_valueB7v160006Ev, symObjAddr: 0xF660, symBinAddr: 0x10000FFA0, symSize: 0x10 }
  - { offsetInCU: 0x13701, offset: 0x13701, size: 0x8, addend: 0x0, symName: __ZNSt3__114pointer_traitsIPNS_16__hash_node_baseIPNS_11__hash_nodeINS_17__hash_value_typeIN8Solution5StateENS_13unordered_mapINS4_8CharTypeES5_NS_4hashIS7_EENS_8equal_toIS7_EENS_9allocatorINS_4pairIKS7_S5_EEEEEEEEPvEEEEE10pointer_toB7v160006ERSM_, symObjAddr: 0xF670, symBinAddr: 0x10000FFB0, symSize: 0x10 }
  - { offsetInCU: 0x13723, offset: 0x13723, size: 0x8, addend: 0x0, symName: __ZNSt3__112__hash_tableINS_17__hash_value_typeIN8Solution5StateENS_13unordered_mapINS2_8CharTypeES3_NS_4hashIS5_EENS_8equal_toIS5_EENS_9allocatorINS_4pairIKS5_S3_EEEEEEEENS_22__unordered_map_hasherIS3_SG_NS6_IS3_EENS8_IS3_EELb1EEENS_21__unordered_map_equalIS3_SG_SJ_SI_Lb1EEENSA_ISG_EEE12__node_allocB7v160006Ev, symObjAddr: 0xF680, symBinAddr: 0x10000FFC0, symSize: 0x20 }
  - { offsetInCU: 0x13748, offset: 0x13748, size: 0x8, addend: 0x0, symName: __ZNSt3__116allocator_traitsINS_9allocatorINS_11__hash_nodeINS_17__hash_value_typeIN8Solution5StateENS_13unordered_mapINS4_8CharTypeES5_NS_4hashIS7_EENS_8equal_toIS7_EENS1_INS_4pairIKS7_S5_EEEEEEEEPvEEEEE8allocateB7v160006ERSK_m, symObjAddr: 0xF6A0, symBinAddr: 0x10000FFE0, symSize: 0x30 }
  - { offsetInCU: 0x1377B, offset: 0x1377B, size: 0x8, addend: 0x0, symName: __ZNSt3__122__hash_node_destructorINS_9allocatorINS_11__hash_nodeINS_17__hash_value_typeIN8Solution5StateENS_13unordered_mapINS4_8CharTypeES5_NS_4hashIS7_EENS_8equal_toIS7_EENS1_INS_4pairIKS7_S5_EEEEEEEEPvEEEEEC1B7v160006ERSK_b, symObjAddr: 0xF6D0, symBinAddr: 0x100010010, symSize: 0x40 }
  - { offsetInCU: 0x137C7, offset: 0x137C7, size: 0x8, addend: 0x0, symName: __ZNSt3__110unique_ptrINS_11__hash_nodeINS_17__hash_value_typeIN8Solution5StateENS_13unordered_mapINS3_8CharTypeES4_NS_4hashIS6_EENS_8equal_toIS6_EENS_9allocatorINS_4pairIKS6_S4_EEEEEEEEPvEENS_22__hash_node_destructorINSB_ISJ_EEEEEC1B7v160006ILb1EvEEPSJ_NS_16__dependent_typeINS_27__unique_ptr_deleter_sfinaeISM_EEXT_EE20__good_rval_ref_typeE, symObjAddr: 0xF710, symBinAddr: 0x100010050, symSize: 0x30 }
  - { offsetInCU: 0x13817, offset: 0x13817, size: 0x8, addend: 0x0, symName: __ZNSt3__116allocator_traitsINS_9allocatorINS_11__hash_nodeINS_17__hash_value_typeIN8Solution5StateENS_13unordered_mapINS4_8CharTypeES5_NS_4hashIS7_EENS_8equal_toIS7_EENS1_INS_4pairIKS7_S5_EEEEEEEEPvEEEEE9constructB7v160006INSC_IKS5_SG_EEJRKSO_EvEEvRSK_PT_DpOT0_, symObjAddr: 0xF740, symBinAddr: 0x100010080, symSize: 0x30 }
  - { offsetInCU: 0x1386E, offset: 0x1386E, size: 0x8, addend: 0x0, symName: __ZNSt3__122__hash_key_value_typesINS_17__hash_value_typeIN8Solution5StateENS_13unordered_mapINS2_8CharTypeES3_NS_4hashIS5_EENS_8equal_toIS5_EENS_9allocatorINS_4pairIKS5_S3_EEEEEEEEE9__get_ptrB7v160006ERSG_, symObjAddr: 0xF770, symBinAddr: 0x1000100B0, symSize: 0x20 }
  - { offsetInCU: 0x13890, offset: 0x13890, size: 0x8, addend: 0x0, symName: __ZNSt3__110unique_ptrINS_11__hash_nodeINS_17__hash_value_typeIN8Solution5StateENS_13unordered_mapINS3_8CharTypeES4_NS_4hashIS6_EENS_8equal_toIS6_EENS_9allocatorINS_4pairIKS6_S4_EEEEEEEEPvEENS_22__hash_node_destructorINSB_ISJ_EEEEE11get_deleterB7v160006Ev, symObjAddr: 0xF790, symBinAddr: 0x1000100D0, symSize: 0x20 }
  - { offsetInCU: 0x138B4, offset: 0x138B4, size: 0x8, addend: 0x0, symName: __ZNSt3__117__compressed_pairINS_16__hash_node_baseIPNS_11__hash_nodeINS_17__hash_value_typeIN8Solution5StateENS_13unordered_mapINS4_8CharTypeES5_NS_4hashIS7_EENS_8equal_toIS7_EENS_9allocatorINS_4pairIKS7_S5_EEEEEEEEPvEEEENSC_ISK_EEE6secondB7v160006Ev, symObjAddr: 0xF7B0, symBinAddr: 0x1000100F0, symSize: 0x20 }
  - { offsetInCU: 0x138D8, offset: 0x138D8, size: 0x8, addend: 0x0, symName: __ZNSt3__122__compressed_pair_elemINS_9allocatorINS_11__hash_nodeINS_17__hash_value_typeIN8Solution5StateENS_13unordered_mapINS4_8CharTypeES5_NS_4hashIS7_EENS_8equal_toIS7_EENS1_INS_4pairIKS7_S5_EEEEEEEEPvEEEELi1ELb1EE5__getB7v160006Ev, symObjAddr: 0xF7D0, symBinAddr: 0x100010110, symSize: 0x10 }
  - { offsetInCU: 0x138FC, offset: 0x138FC, size: 0x8, addend: 0x0, symName: __ZNSt3__19allocatorINS_11__hash_nodeINS_17__hash_value_typeIN8Solution5StateENS_13unordered_mapINS3_8CharTypeES4_NS_4hashIS6_EENS_8equal_toIS6_EENS0_INS_4pairIKS6_S4_EEEEEEEEPvEEE8allocateB7v160006Em, symObjAddr: 0xF7E0, symBinAddr: 0x100010120, symSize: 0x60 }
  - { offsetInCU: 0x13939, offset: 0x13939, size: 0x8, addend: 0x0, symName: __ZNSt3__116allocator_traitsINS_9allocatorINS_11__hash_nodeINS_17__hash_value_typeIN8Solution5StateENS_13unordered_mapINS4_8CharTypeES5_NS_4hashIS7_EENS_8equal_toIS7_EENS1_INS_4pairIKS7_S5_EEEEEEEEPvEEEEE8max_sizeB7v160006ISK_vEEmRKSK_, symObjAddr: 0xF840, symBinAddr: 0x100010180, symSize: 0x20 }
  - { offsetInCU: 0x13966, offset: 0x13966, size: 0x8, addend: 0x0, symName: __ZNKSt3__19allocatorINS_11__hash_nodeINS_17__hash_value_typeIN8Solution5StateENS_13unordered_mapINS3_8CharTypeES4_NS_4hashIS6_EENS_8equal_toIS6_EENS0_INS_4pairIKS6_S4_EEEEEEEEPvEEE8max_sizeB7v160006Ev, symObjAddr: 0xF860, symBinAddr: 0x1000101A0, symSize: 0x20 }
  - { offsetInCU: 0x1398B, offset: 0x1398B, size: 0x8, addend: 0x0, symName: __ZNSt3__122__hash_node_destructorINS_9allocatorINS_11__hash_nodeINS_17__hash_value_typeIN8Solution5StateENS_13unordered_mapINS4_8CharTypeES5_NS_4hashIS7_EENS_8equal_toIS7_EENS1_INS_4pairIKS7_S5_EEEEEEEEPvEEEEEC2B7v160006ERSK_b, symObjAddr: 0xF880, symBinAddr: 0x1000101C0, symSize: 0xC0 }
  - { offsetInCU: 0x139D2, offset: 0x139D2, size: 0x8, addend: 0x0, symName: __ZNSt3__110unique_ptrINS_11__hash_nodeINS_17__hash_value_typeIN8Solution5StateENS_13unordered_mapINS3_8CharTypeES4_NS_4hashIS6_EENS_8equal_toIS6_EENS_9allocatorINS_4pairIKS6_S4_EEEEEEEEPvEENS_22__hash_node_destructorINSB_ISJ_EEEEEC2B7v160006ILb1EvEEPSJ_NS_16__dependent_typeINS_27__unique_ptr_deleter_sfinaeISM_EEXT_EE20__good_rval_ref_typeE, symObjAddr: 0xF940, symBinAddr: 0x100010280, symSize: 0x1A0 }
  - { offsetInCU: 0x13A28, offset: 0x13A28, size: 0x8, addend: 0x0, symName: __ZNSt3__117__compressed_pairIPNS_11__hash_nodeINS_17__hash_value_typeIN8Solution5StateENS_13unordered_mapINS3_8CharTypeES4_NS_4hashIS6_EENS_8equal_toIS6_EENS_9allocatorINS_4pairIKS6_S4_EEEEEEEEPvEENS_22__hash_node_destructorINSB_ISJ_EEEEEC1B7v160006IRSK_SN_EEOT_OT0_, symObjAddr: 0xFAE0, symBinAddr: 0x100010420, symSize: 0x30 }
  - { offsetInCU: 0x13A7F, offset: 0x13A7F, size: 0x8, addend: 0x0, symName: __ZNSt3__117__compressed_pairIPNS_11__hash_nodeINS_17__hash_value_typeIN8Solution5StateENS_13unordered_mapINS3_8CharTypeES4_NS_4hashIS6_EENS_8equal_toIS6_EENS_9allocatorINS_4pairIKS6_S4_EEEEEEEEPvEENS_22__hash_node_destructorINSB_ISJ_EEEEEC2B7v160006IRSK_SN_EEOT_OT0_, symObjAddr: 0xFB10, symBinAddr: 0x100010450, symSize: 0x40 }
  - { offsetInCU: 0x13AD6, offset: 0x13AD6, size: 0x8, addend: 0x0, symName: __ZNSt3__122__compressed_pair_elemIPNS_11__hash_nodeINS_17__hash_value_typeIN8Solution5StateENS_13unordered_mapINS3_8CharTypeES4_NS_4hashIS6_EENS_8equal_toIS6_EENS_9allocatorINS_4pairIKS6_S4_EEEEEEEEPvEELi0ELb0EEC2B7v160006IRSK_vEEOT_, symObjAddr: 0xFB50, symBinAddr: 0x100010490, symSize: 0x90 }
  - { offsetInCU: 0x13B17, offset: 0x13B17, size: 0x8, addend: 0x0, symName: __ZNSt3__122__compressed_pair_elemINS_22__hash_node_destructorINS_9allocatorINS_11__hash_nodeINS_17__hash_value_typeIN8Solution5StateENS_13unordered_mapINS5_8CharTypeES6_NS_4hashIS8_EENS_8equal_toIS8_EENS2_INS_4pairIKS8_S6_EEEEEEEEPvEEEEEELi1ELb0EEC2B7v160006ISM_vEEOT_, symObjAddr: 0xFBE0, symBinAddr: 0x100010520, symSize: 0x30 }
  - { offsetInCU: 0x13B57, offset: 0x13B57, size: 0x8, addend: 0x0, symName: __ZNSt3__19allocatorINS_11__hash_nodeINS_17__hash_value_typeIN8Solution5StateENS_13unordered_mapINS3_8CharTypeES4_NS_4hashIS6_EENS_8equal_toIS6_EENS0_INS_4pairIKS6_S4_EEEEEEEEPvEEE9constructB7v160006INSB_IKS4_SF_EEJRKSM_EEEvPT_DpOT0_, symObjAddr: 0xFC10, symBinAddr: 0x100010550, symSize: 0x30 }
  - { offsetInCU: 0x13BAC, offset: 0x13BAC, size: 0x8, addend: 0x0, symName: __ZNSt3__14pairIKN8Solution5StateENS_13unordered_mapINS1_8CharTypeES2_NS_4hashIS5_EENS_8equal_toIS5_EENS_9allocatorINS0_IKS5_S2_EEEEEEEC1ERKSF_, symObjAddr: 0xFC40, symBinAddr: 0x100010580, symSize: 0x30 }
  - { offsetInCU: 0x13BE0, offset: 0x13BE0, size: 0x8, addend: 0x0, symName: __ZNSt3__14pairIKN8Solution5StateENS_13unordered_mapINS1_8CharTypeES2_NS_4hashIS5_EENS_8equal_toIS5_EENS_9allocatorINS0_IKS5_S2_EEEEEEEC2ERKSF_, symObjAddr: 0xFC70, symBinAddr: 0x1000105B0, symSize: 0xD0 }
  - { offsetInCU: 0x13C13, offset: 0x13C13, size: 0x8, addend: 0x0, symName: __ZNSt3__117__hash_value_typeIN8Solution5StateENS_13unordered_mapINS1_8CharTypeES2_NS_4hashIS4_EENS_8equal_toIS4_EENS_9allocatorINS_4pairIKS4_S2_EEEEEEE11__get_valueB7v160006Ev, symObjAddr: 0xFD40, symBinAddr: 0x100010680, symSize: 0x10 }
  - { offsetInCU: 0x13C37, offset: 0x13C37, size: 0x8, addend: 0x0, symName: __ZNSt3__117__compressed_pairIPNS_11__hash_nodeINS_17__hash_value_typeIN8Solution5StateENS_13unordered_mapINS3_8CharTypeES4_NS_4hashIS6_EENS_8equal_toIS6_EENS_9allocatorINS_4pairIKS6_S4_EEEEEEEEPvEENS_22__hash_node_destructorINSB_ISJ_EEEEE6secondB7v160006Ev, symObjAddr: 0xFD50, symBinAddr: 0x100010690, symSize: 0x20 }
  - { offsetInCU: 0x13C5B, offset: 0x13C5B, size: 0x8, addend: 0x0, symName: __ZNSt3__122__compressed_pair_elemINS_22__hash_node_destructorINS_9allocatorINS_11__hash_nodeINS_17__hash_value_typeIN8Solution5StateENS_13unordered_mapINS5_8CharTypeES6_NS_4hashIS8_EENS_8equal_toIS8_EENS2_INS_4pairIKS8_S6_EEEEEEEEPvEEEEEELi1ELb0EE5__getB7v160006Ev, symObjAddr: 0xFD70, symBinAddr: 0x1000106B0, symSize: 0x10 }
  - { offsetInCU: 0x13C7F, offset: 0x13C7F, size: 0x8, addend: 0x0, symName: __ZNSt3__117__compressed_pairImNS_22__unordered_map_hasherIN8Solution5StateENS_17__hash_value_typeIS3_NS_13unordered_mapINS2_8CharTypeES3_NS_4hashIS6_EENS_8equal_toIS6_EENS_9allocatorINS_4pairIKS6_S3_EEEEEEEENS7_IS3_EENS9_IS3_EELb1EEEE5firstB7v160006Ev, symObjAddr: 0xFD80, symBinAddr: 0x1000106C0, symSize: 0x20 }
  - { offsetInCU: 0x13CA3, offset: 0x13CA3, size: 0x8, addend: 0x0, symName: __ZNSt3__117__compressed_pairIfNS_21__unordered_map_equalIN8Solution5StateENS_17__hash_value_typeIS3_NS_13unordered_mapINS2_8CharTypeES3_NS_4hashIS6_EENS_8equal_toIS6_EENS_9allocatorINS_4pairIKS6_S3_EEEEEEEENS9_IS3_EENS7_IS3_EELb1EEEE5firstB7v160006Ev, symObjAddr: 0xFDA0, symBinAddr: 0x1000106E0, symSize: 0x20 }
  - { offsetInCU: 0x13CC8, offset: 0x13CC8, size: 0x8, addend: 0x0, symName: __ZNSt3__112__hash_tableINS_17__hash_value_typeIN8Solution5StateENS_13unordered_mapINS2_8CharTypeES3_NS_4hashIS5_EENS_8equal_toIS5_EENS_9allocatorINS_4pairIKS5_S3_EEEEEEEENS_22__unordered_map_hasherIS3_SG_NS6_IS3_EENS8_IS3_EELb1EEENS_21__unordered_map_equalIS3_SG_SJ_SI_Lb1EEENSA_ISG_EEE8__rehashILb1EEEvm, symObjAddr: 0xFDC0, symBinAddr: 0x100010700, symSize: 0x7D0 }
  - { offsetInCU: 0x13D1E, offset: 0x13D1E, size: 0x8, addend: 0x0, symName: __ZNSt3__112__hash_tableINS_17__hash_value_typeIN8Solution5StateENS_13unordered_mapINS2_8CharTypeES3_NS_4hashIS5_EENS_8equal_toIS5_EENS_9allocatorINS_4pairIKS5_S3_EEEEEEEENS_22__unordered_map_hasherIS3_SG_NS6_IS3_EENS8_IS3_EELb1EEENS_21__unordered_map_equalIS3_SG_SJ_SI_Lb1EEENSA_ISG_EEE11__do_rehashILb1EEEvm, symObjAddr: 0x10590, symBinAddr: 0x100010ED0, symSize: 0x590 }
  - { offsetInCU: 0x13E0A, offset: 0x13E0A, size: 0x8, addend: 0x0, symName: __ZNSt3__110unique_ptrIA_PNS_16__hash_node_baseIPNS_11__hash_nodeINS_17__hash_value_typeIN8Solution5StateENS_13unordered_mapINS4_8CharTypeES5_NS_4hashIS7_EENS_8equal_toIS7_EENS_9allocatorINS_4pairIKS7_S5_EEEEEEEEPvEEEENS_25__bucket_list_deallocatorINSC_ISN_EEEEE11get_deleterB7v160006Ev, symObjAddr: 0x10B30, symBinAddr: 0x100011470, symSize: 0x20 }
  - { offsetInCU: 0x13E2E, offset: 0x13E2E, size: 0x8, addend: 0x0, symName: __ZNSt3__125__bucket_list_deallocatorINS_9allocatorIPNS_16__hash_node_baseIPNS_11__hash_nodeINS_17__hash_value_typeIN8Solution5StateENS_13unordered_mapINS5_8CharTypeES6_NS_4hashIS8_EENS_8equal_toIS8_EENS1_INS_4pairIKS8_S6_EEEEEEEEPvEEEEEEE7__allocB7v160006Ev, symObjAddr: 0x10B50, symBinAddr: 0x100011490, symSize: 0x20 }
  - { offsetInCU: 0x13E52, offset: 0x13E52, size: 0x8, addend: 0x0, symName: __ZNSt3__110unique_ptrIA_PNS_16__hash_node_baseIPNS_11__hash_nodeINS_17__hash_value_typeIN8Solution5StateENS_13unordered_mapINS4_8CharTypeES5_NS_4hashIS7_EENS_8equal_toIS7_EENS_9allocatorINS_4pairIKS7_S5_EEEEEEEEPvEEEENS_25__bucket_list_deallocatorINSC_ISN_EEEEE5resetB7v160006IPSN_EENS_9enable_ifIXsr28_CheckArrayPointerConversionIT_EE5valueEvE4typeESW_, symObjAddr: 0x10B70, symBinAddr: 0x1000114B0, symSize: 0xC0 }
  - { offsetInCU: 0x13E9F, offset: 0x13E9F, size: 0x8, addend: 0x0, symName: __ZNSt3__116allocator_traitsINS_9allocatorIPNS_16__hash_node_baseIPNS_11__hash_nodeINS_17__hash_value_typeIN8Solution5StateENS_13unordered_mapINS5_8CharTypeES6_NS_4hashIS8_EENS_8equal_toIS8_EENS1_INS_4pairIKS8_S6_EEEEEEEEPvEEEEEEE8allocateB7v160006ERSO_m, symObjAddr: 0x10C30, symBinAddr: 0x100011570, symSize: 0x30 }
  - { offsetInCU: 0x13ED1, offset: 0x13ED1, size: 0x8, addend: 0x0, symName: __ZNSt3__125__bucket_list_deallocatorINS_9allocatorIPNS_16__hash_node_baseIPNS_11__hash_nodeINS_17__hash_value_typeIN8Solution5StateENS_13unordered_mapINS5_8CharTypeES6_NS_4hashIS8_EENS_8equal_toIS8_EENS1_INS_4pairIKS8_S6_EEEEEEEEPvEEEEEEE4sizeB7v160006Ev, symObjAddr: 0x10C60, symBinAddr: 0x1000115A0, symSize: 0x20 }
  - { offsetInCU: 0x13EF5, offset: 0x13EF5, size: 0x8, addend: 0x0, symName: __ZNSt3__117__compressed_pairIPPNS_16__hash_node_baseIPNS_11__hash_nodeINS_17__hash_value_typeIN8Solution5StateENS_13unordered_mapINS4_8CharTypeES5_NS_4hashIS7_EENS_8equal_toIS7_EENS_9allocatorINS_4pairIKS7_S5_EEEEEEEEPvEEEENS_25__bucket_list_deallocatorINSC_ISN_EEEEE6secondB7v160006Ev, symObjAddr: 0x10C80, symBinAddr: 0x1000115C0, symSize: 0x20 }
  - { offsetInCU: 0x13F19, offset: 0x13F19, size: 0x8, addend: 0x0, symName: __ZNSt3__122__compressed_pair_elemINS_25__bucket_list_deallocatorINS_9allocatorIPNS_16__hash_node_baseIPNS_11__hash_nodeINS_17__hash_value_typeIN8Solution5StateENS_13unordered_mapINS6_8CharTypeES7_NS_4hashIS9_EENS_8equal_toIS9_EENS2_INS_4pairIKS9_S7_EEEEEEEEPvEEEEEEEELi1ELb0EE5__getB7v160006Ev, symObjAddr: 0x10CA0, symBinAddr: 0x1000115E0, symSize: 0x10 }
  - { offsetInCU: 0x13F3D, offset: 0x13F3D, size: 0x8, addend: 0x0, symName: __ZNSt3__117__compressed_pairImNS_9allocatorIPNS_16__hash_node_baseIPNS_11__hash_nodeINS_17__hash_value_typeIN8Solution5StateENS_13unordered_mapINS5_8CharTypeES6_NS_4hashIS8_EENS_8equal_toIS8_EENS1_INS_4pairIKS8_S6_EEEEEEEEPvEEEEEEE6secondB7v160006Ev, symObjAddr: 0x10CB0, symBinAddr: 0x1000115F0, symSize: 0x20 }
  - { offsetInCU: 0x13F61, offset: 0x13F61, size: 0x8, addend: 0x0, symName: __ZNSt3__122__compressed_pair_elemINS_9allocatorIPNS_16__hash_node_baseIPNS_11__hash_nodeINS_17__hash_value_typeIN8Solution5StateENS_13unordered_mapINS5_8CharTypeES6_NS_4hashIS8_EENS_8equal_toIS8_EENS1_INS_4pairIKS8_S6_EEEEEEEEPvEEEEEELi1ELb1EE5__getB7v160006Ev, symObjAddr: 0x10CD0, symBinAddr: 0x100011610, symSize: 0x10 }
  - { offsetInCU: 0x13F85, offset: 0x13F85, size: 0x8, addend: 0x0, symName: __ZNSt3__117__compressed_pairIPPNS_16__hash_node_baseIPNS_11__hash_nodeINS_17__hash_value_typeIN8Solution5StateENS_13unordered_mapINS4_8CharTypeES5_NS_4hashIS7_EENS_8equal_toIS7_EENS_9allocatorINS_4pairIKS7_S5_EEEEEEEEPvEEEENS_25__bucket_list_deallocatorINSC_ISN_EEEEE5firstB7v160006Ev, symObjAddr: 0x10CE0, symBinAddr: 0x100011620, symSize: 0x20 }
  - { offsetInCU: 0x13FA9, offset: 0x13FA9, size: 0x8, addend: 0x0, symName: __ZNSt3__125__bucket_list_deallocatorINS_9allocatorIPNS_16__hash_node_baseIPNS_11__hash_nodeINS_17__hash_value_typeIN8Solution5StateENS_13unordered_mapINS5_8CharTypeES6_NS_4hashIS8_EENS_8equal_toIS8_EENS1_INS_4pairIKS8_S6_EEEEEEEEPvEEEEEEEclB7v160006EPSN_, symObjAddr: 0x10D00, symBinAddr: 0x100011640, symSize: 0x80 }
  - { offsetInCU: 0x13FDC, offset: 0x13FDC, size: 0x8, addend: 0x0, symName: __ZNSt3__122__compressed_pair_elemIPPNS_16__hash_node_baseIPNS_11__hash_nodeINS_17__hash_value_typeIN8Solution5StateENS_13unordered_mapINS4_8CharTypeES5_NS_4hashIS7_EENS_8equal_toIS7_EENS_9allocatorINS_4pairIKS7_S5_EEEEEEEEPvEEEELi0ELb0EE5__getB7v160006Ev, symObjAddr: 0x10D80, symBinAddr: 0x1000116C0, symSize: 0x10 }
  - { offsetInCU: 0x14001, offset: 0x14001, size: 0x8, addend: 0x0, symName: __ZNSt3__116allocator_traitsINS_9allocatorIPNS_16__hash_node_baseIPNS_11__hash_nodeINS_17__hash_value_typeIN8Solution5StateENS_13unordered_mapINS5_8CharTypeES6_NS_4hashIS8_EENS_8equal_toIS8_EENS1_INS_4pairIKS8_S6_EEEEEEEEPvEEEEEEE10deallocateB7v160006ERSO_PSN_m, symObjAddr: 0x10D90, symBinAddr: 0x1000116D0, symSize: 0x30 }
  - { offsetInCU: 0x14042, offset: 0x14042, size: 0x8, addend: 0x0, symName: __ZNSt3__19allocatorIPNS_16__hash_node_baseIPNS_11__hash_nodeINS_17__hash_value_typeIN8Solution5StateENS_13unordered_mapINS4_8CharTypeES5_NS_4hashIS7_EENS_8equal_toIS7_EENS0_INS_4pairIKS7_S5_EEEEEEEEPvEEEEE10deallocateB7v160006EPSM_m, symObjAddr: 0x10DC0, symBinAddr: 0x100011700, symSize: 0x50 }
  - { offsetInCU: 0x14082, offset: 0x14082, size: 0x8, addend: 0x0, symName: __ZNSt3__19allocatorIPNS_16__hash_node_baseIPNS_11__hash_nodeINS_17__hash_value_typeIN8Solution5StateENS_13unordered_mapINS4_8CharTypeES5_NS_4hashIS7_EENS_8equal_toIS7_EENS0_INS_4pairIKS7_S5_EEEEEEEEPvEEEEE8allocateB7v160006Em, symObjAddr: 0x10E10, symBinAddr: 0x100011750, symSize: 0x60 }
  - { offsetInCU: 0x140BF, offset: 0x140BF, size: 0x8, addend: 0x0, symName: __ZNSt3__116allocator_traitsINS_9allocatorIPNS_16__hash_node_baseIPNS_11__hash_nodeINS_17__hash_value_typeIN8Solution5StateENS_13unordered_mapINS5_8CharTypeES6_NS_4hashIS8_EENS_8equal_toIS8_EENS1_INS_4pairIKS8_S6_EEEEEEEEPvEEEEEEE8max_sizeB7v160006ISO_vEEmRKSO_, symObjAddr: 0x10E70, symBinAddr: 0x1000117B0, symSize: 0x20 }
  - { offsetInCU: 0x140EC, offset: 0x140EC, size: 0x8, addend: 0x0, symName: __ZNKSt3__19allocatorIPNS_16__hash_node_baseIPNS_11__hash_nodeINS_17__hash_value_typeIN8Solution5StateENS_13unordered_mapINS4_8CharTypeES5_NS_4hashIS7_EENS_8equal_toIS7_EENS0_INS_4pairIKS7_S5_EEEEEEEEPvEEEEE8max_sizeB7v160006Ev, symObjAddr: 0x10E90, symBinAddr: 0x1000117D0, symSize: 0x20 }
  - { offsetInCU: 0x14110, offset: 0x14110, size: 0x8, addend: 0x0, symName: __ZNSt3__117__compressed_pairImNS_9allocatorIPNS_16__hash_node_baseIPNS_11__hash_nodeINS_17__hash_value_typeIN8Solution5StateENS_13unordered_mapINS5_8CharTypeES6_NS_4hashIS8_EENS_8equal_toIS8_EENS1_INS_4pairIKS8_S6_EEEEEEEEPvEEEEEEE5firstB7v160006Ev, symObjAddr: 0x10EB0, symBinAddr: 0x1000117F0, symSize: 0x20 }
  - { offsetInCU: 0x14134, offset: 0x14134, size: 0x8, addend: 0x0, symName: __ZNSt3__122__compressed_pair_elemINS_16__hash_node_baseIPNS_11__hash_nodeINS_17__hash_value_typeIN8Solution5StateENS_13unordered_mapINS4_8CharTypeES5_NS_4hashIS7_EENS_8equal_toIS7_EENS_9allocatorINS_4pairIKS7_S5_EEEEEEEEPvEEEELi0ELb0EE5__getB7v160006Ev, symObjAddr: 0x10ED0, symBinAddr: 0x100011810, symSize: 0x10 }
  - { offsetInCU: 0x14158, offset: 0x14158, size: 0x8, addend: 0x0, symName: __ZNKSt3__117__compressed_pairIPNS_11__hash_nodeINS_17__hash_value_typeIN8Solution5StateENS_13unordered_mapINS3_8CharTypeES4_NS_4hashIS6_EENS_8equal_toIS6_EENS_9allocatorINS_4pairIKS6_S4_EEEEEEEEPvEENS_22__hash_node_destructorINSB_ISJ_EEEEE5firstB7v160006Ev, symObjAddr: 0x10EE0, symBinAddr: 0x100011820, symSize: 0x20 }
  - { offsetInCU: 0x1417C, offset: 0x1417C, size: 0x8, addend: 0x0, symName: __ZNKSt3__122__compressed_pair_elemIPNS_11__hash_nodeINS_17__hash_value_typeIN8Solution5StateENS_13unordered_mapINS3_8CharTypeES4_NS_4hashIS6_EENS_8equal_toIS6_EENS_9allocatorINS_4pairIKS6_S4_EEEEEEEEPvEELi0ELb0EE5__getB7v160006Ev, symObjAddr: 0x10F00, symBinAddr: 0x100011840, symSize: 0x10 }
  - { offsetInCU: 0x141A0, offset: 0x141A0, size: 0x8, addend: 0x0, symName: __ZNSt3__117__compressed_pairIPNS_11__hash_nodeINS_17__hash_value_typeIN8Solution5StateENS_13unordered_mapINS3_8CharTypeES4_NS_4hashIS6_EENS_8equal_toIS6_EENS_9allocatorINS_4pairIKS6_S4_EEEEEEEEPvEENS_22__hash_node_destructorINSB_ISJ_EEEEE5firstB7v160006Ev, symObjAddr: 0x10F10, symBinAddr: 0x100011850, symSize: 0x20 }
  - { offsetInCU: 0x141C4, offset: 0x141C4, size: 0x8, addend: 0x0, symName: __ZNSt3__122__compressed_pair_elemIPNS_11__hash_nodeINS_17__hash_value_typeIN8Solution5StateENS_13unordered_mapINS3_8CharTypeES4_NS_4hashIS6_EENS_8equal_toIS6_EENS_9allocatorINS_4pairIKS6_S4_EEEEEEEEPvEELi0ELb0EE5__getB7v160006Ev, symObjAddr: 0x10F30, symBinAddr: 0x100011870, symSize: 0x10 }
  - { offsetInCU: 0x141E9, offset: 0x141E9, size: 0x8, addend: 0x0, symName: __ZNSt3__110unique_ptrINS_11__hash_nodeINS_17__hash_value_typeIN8Solution5StateENS_13unordered_mapINS3_8CharTypeES4_NS_4hashIS6_EENS_8equal_toIS6_EENS_9allocatorINS_4pairIKS6_S4_EEEEEEEEPvEENS_22__hash_node_destructorINSB_ISJ_EEEEED2B7v160006Ev, symObjAddr: 0x10F40, symBinAddr: 0x100011880, symSize: 0x20 }
  - { offsetInCU: 0x14211, offset: 0x14211, size: 0x8, addend: 0x0, symName: __ZNSt3__110unique_ptrINS_11__hash_nodeINS_17__hash_value_typeIN8Solution5StateENS_13unordered_mapINS3_8CharTypeES4_NS_4hashIS6_EENS_8equal_toIS6_EENS_9allocatorINS_4pairIKS6_S4_EEEEEEEEPvEENS_22__hash_node_destructorINSB_ISJ_EEEEE5resetB7v160006EPSJ_, symObjAddr: 0x10F60, symBinAddr: 0x1000118A0, symSize: 0xC0 }
  - { offsetInCU: 0x14254, offset: 0x14254, size: 0x8, addend: 0x0, symName: __ZNSt3__122__hash_node_destructorINS_9allocatorINS_11__hash_nodeINS_17__hash_value_typeIN8Solution5StateENS_13unordered_mapINS4_8CharTypeES5_NS_4hashIS7_EENS_8equal_toIS7_EENS1_INS_4pairIKS7_S5_EEEEEEEEPvEEEEEclB7v160006EPSJ_, symObjAddr: 0x11020, symBinAddr: 0x100011960, symSize: 0x130 }
  - { offsetInCU: 0x14288, offset: 0x14288, size: 0x8, addend: 0x0, symName: __ZNSt3__116allocator_traitsINS_9allocatorINS_11__hash_nodeINS_17__hash_value_typeIN8Solution5StateENS_13unordered_mapINS4_8CharTypeES5_NS_4hashIS7_EENS_8equal_toIS7_EENS1_INS_4pairIKS7_S5_EEEEEEEEPvEEEEE7destroyB7v160006INSC_IKS5_SG_EEvvEEvRSK_PT_, symObjAddr: 0x11150, symBinAddr: 0x100011A90, symSize: 0x20 }
  - { offsetInCU: 0x142C3, offset: 0x142C3, size: 0x8, addend: 0x0, symName: __ZNSt3__116allocator_traitsINS_9allocatorINS_11__hash_nodeINS_17__hash_value_typeIN8Solution5StateENS_13unordered_mapINS4_8CharTypeES5_NS_4hashIS7_EENS_8equal_toIS7_EENS1_INS_4pairIKS7_S5_EEEEEEEEPvEEEEE10deallocateB7v160006ERSK_PSJ_m, symObjAddr: 0x11170, symBinAddr: 0x100011AB0, symSize: 0x30 }
  - { offsetInCU: 0x14304, offset: 0x14304, size: 0x8, addend: 0x0, symName: __ZNSt3__19allocatorINS_11__hash_nodeINS_17__hash_value_typeIN8Solution5StateENS_13unordered_mapINS3_8CharTypeES4_NS_4hashIS6_EENS_8equal_toIS6_EENS0_INS_4pairIKS6_S4_EEEEEEEEPvEEE10deallocateB7v160006EPSI_m, symObjAddr: 0x111A0, symBinAddr: 0x100011AE0, symSize: 0x50 }
  - { offsetInCU: 0x14345, offset: 0x14345, size: 0x8, addend: 0x0, symName: __ZNSt3__115__hash_iteratorIPNS_11__hash_nodeINS_17__hash_value_typeIN8Solution5StateENS_13unordered_mapINS3_8CharTypeES4_NS_4hashIS6_EENS_8equal_toIS6_EENS_9allocatorINS_4pairIKS6_S4_EEEEEEEEPvEEEC2B7v160006EPNS_16__hash_node_baseISK_EEPKv, symObjAddr: 0x111F0, symBinAddr: 0x100011B30, symSize: 0x60 }
  - { offsetInCU: 0x1438C, offset: 0x1438C, size: 0x8, addend: 0x0, symName: __ZNSt3__14pairINS_15__hash_iteratorIPNS_11__hash_nodeINS_17__hash_value_typeIN8Solution5StateENS_13unordered_mapINS4_8CharTypeES5_NS_4hashIS7_EENS_8equal_toIS7_EENS_9allocatorINS0_IKS7_S5_EEEEEEEEPvEEEEbEC2B7v160006ISL_RbLSI_0EEEOT_OT0_, symObjAddr: 0x11250, symBinAddr: 0x100011B90, symSize: 0xE0 }
  - { offsetInCU: 0x143E9, offset: 0x143E9, size: 0x8, addend: 0x0, symName: __ZNSt3__112__hash_tableINS_17__hash_value_typeIN8Solution5StateENS_13unordered_mapINS2_8CharTypeES3_NS_4hashIS5_EENS_8equal_toIS5_EENS_9allocatorINS_4pairIKS5_S3_EEEEEEEENS_22__unordered_map_hasherIS3_SG_NS6_IS3_EENS8_IS3_EELb1EEENS_21__unordered_map_equalIS3_SG_SJ_SI_Lb1EEENSA_ISG_EEED2Ev, symObjAddr: 0x11330, symBinAddr: 0x100011C70, symSize: 0x90 }
  - { offsetInCU: 0x14414, offset: 0x14414, size: 0x8, addend: 0x0, symName: __ZNSt3__112__hash_tableINS_17__hash_value_typeIN8Solution5StateENS_13unordered_mapINS2_8CharTypeES3_NS_4hashIS5_EENS_8equal_toIS5_EENS_9allocatorINS_4pairIKS5_S3_EEEEEEEENS_22__unordered_map_hasherIS3_SG_NS6_IS3_EENS8_IS3_EELb1EEENS_21__unordered_map_equalIS3_SG_SJ_SI_Lb1EEENSA_ISG_EEE17__deallocate_nodeEPNS_16__hash_node_baseIPNS_11__hash_nodeISG_PvEEEE, symObjAddr: 0x113C0, symBinAddr: 0x100011D00, symSize: 0xD0 }
  - { offsetInCU: 0x14481, offset: 0x14481, size: 0x8, addend: 0x0, symName: __ZNSt3__110unique_ptrIA_PNS_16__hash_node_baseIPNS_11__hash_nodeINS_17__hash_value_typeIN8Solution5StateENS_13unordered_mapINS4_8CharTypeES5_NS_4hashIS7_EENS_8equal_toIS7_EENS_9allocatorINS_4pairIKS7_S5_EEEEEEEEPvEEEENS_25__bucket_list_deallocatorINSC_ISN_EEEEED1B7v160006Ev, symObjAddr: 0x114A0, symBinAddr: 0x100011DE0, symSize: 0x20 }
  - { offsetInCU: 0x144AA, offset: 0x144AA, size: 0x8, addend: 0x0, symName: __ZNSt3__110unique_ptrIA_PNS_16__hash_node_baseIPNS_11__hash_nodeINS_17__hash_value_typeIN8Solution5StateENS_13unordered_mapINS4_8CharTypeES5_NS_4hashIS7_EENS_8equal_toIS7_EENS_9allocatorINS_4pairIKS7_S5_EEEEEEEEPvEEEENS_25__bucket_list_deallocatorINSC_ISN_EEEEED2B7v160006Ev, symObjAddr: 0x114C0, symBinAddr: 0x100011E00, symSize: 0x20 }
  - { offsetInCU: 0x144D2, offset: 0x144D2, size: 0x8, addend: 0x0, symName: __ZNSt3__110unique_ptrIA_PNS_16__hash_node_baseIPNS_11__hash_nodeINS_17__hash_value_typeIN8Solution5StateENS_13unordered_mapINS4_8CharTypeES5_NS_4hashIS7_EENS_8equal_toIS7_EENS_9allocatorINS_4pairIKS7_S5_EEEEEEEEPvEEEENS_25__bucket_list_deallocatorINSC_ISN_EEEEE5resetB7v160006EDn, symObjAddr: 0x114E0, symBinAddr: 0x100011E20, symSize: 0xC0 }
  - { offsetInCU: 0x14513, offset: 0x14513, size: 0x8, addend: 0x0, symName: __ZNSt3__14pairIKN8Solution5StateENS_13unordered_mapINS1_8CharTypeES2_NS_4hashIS5_EENS_8equal_toIS5_EENS_9allocatorINS0_IKS5_S2_EEEEEEED2Ev, symObjAddr: 0x115A0, symBinAddr: 0x100011EE0, symSize: 0x20 }
  - { offsetInCU: 0x1453E, offset: 0x1453E, size: 0x8, addend: 0x0, symName: __ZNSt3__113unordered_mapIN8Solution8CharTypeENS1_5StateENS_4hashIS2_EENS_8equal_toIS2_EENS_9allocatorINS_4pairIKS2_S3_EEEEED2B7v160006Ev, symObjAddr: 0x115C0, symBinAddr: 0x100011F00, symSize: 0x20 }
  - { offsetInCU: 0x14566, offset: 0x14566, size: 0x8, addend: 0x0, symName: __ZNKSt3__112basic_stringIcNS_11char_traitsIcEENS_9allocatorIcEEE4sizeB7v160006Ev, symObjAddr: 0x115E0, symBinAddr: 0x100011F20, symSize: 0x50 }
  - { offsetInCU: 0x1458A, offset: 0x1458A, size: 0x8, addend: 0x0, symName: __ZNKSt3__112basic_stringIcNS_11char_traitsIcEENS_9allocatorIcEEE9__is_longB7v160006Ev, symObjAddr: 0x11630, symBinAddr: 0x100011F70, symSize: 0x70 }
  - { offsetInCU: 0x145AE, offset: 0x145AE, size: 0x8, addend: 0x0, symName: __ZNKSt3__112basic_stringIcNS_11char_traitsIcEENS_9allocatorIcEEE15__get_long_sizeB7v160006Ev, symObjAddr: 0x116A0, symBinAddr: 0x100011FE0, symSize: 0x50 }
  - { offsetInCU: 0x145D2, offset: 0x145D2, size: 0x8, addend: 0x0, symName: __ZNKSt3__112basic_stringIcNS_11char_traitsIcEENS_9allocatorIcEEE16__get_short_sizeB7v160006Ev, symObjAddr: 0x116F0, symBinAddr: 0x100012030, symSize: 0x70 }
  - { offsetInCU: 0x145F6, offset: 0x145F6, size: 0x8, addend: 0x0, symName: __ZNKSt3__117__compressed_pairINS_12basic_stringIcNS_11char_traitsIcEENS_9allocatorIcEEE5__repES5_E5firstB7v160006Ev, symObjAddr: 0x11760, symBinAddr: 0x1000120A0, symSize: 0x20 }
  - { offsetInCU: 0x1461A, offset: 0x1461A, size: 0x8, addend: 0x0, symName: __ZNKSt3__122__compressed_pair_elemINS_12basic_stringIcNS_11char_traitsIcEENS_9allocatorIcEEE5__repELi0ELb0EE5__getB7v160006Ev, symObjAddr: 0x11780, symBinAddr: 0x1000120C0, symSize: 0x10 }
  - { offsetInCU: 0x1463E, offset: 0x1463E, size: 0x8, addend: 0x0, symName: __ZNSt3__112basic_stringIcNS_11char_traitsIcEENS_9allocatorIcEEE13__get_pointerB7v160006Ev, symObjAddr: 0x11790, symBinAddr: 0x1000120D0, symSize: 0x50 }
  - { offsetInCU: 0x14662, offset: 0x14662, size: 0x8, addend: 0x0, symName: __ZNSt3__112basic_stringIcNS_11char_traitsIcEENS_9allocatorIcEEE18__get_long_pointerB7v160006Ev, symObjAddr: 0x117E0, symBinAddr: 0x100012120, symSize: 0x50 }
  - { offsetInCU: 0x14686, offset: 0x14686, size: 0x8, addend: 0x0, symName: __ZNSt3__112basic_stringIcNS_11char_traitsIcEENS_9allocatorIcEEE19__get_short_pointerB7v160006Ev, symObjAddr: 0x11830, symBinAddr: 0x100012170, symSize: 0x30 }
  - { offsetInCU: 0x146AA, offset: 0x146AA, size: 0x8, addend: 0x0, symName: __ZNSt3__117__compressed_pairINS_12basic_stringIcNS_11char_traitsIcEENS_9allocatorIcEEE5__repES5_E5firstB7v160006Ev, symObjAddr: 0x11860, symBinAddr: 0x1000121A0, symSize: 0x20 }
  - { offsetInCU: 0x146CE, offset: 0x146CE, size: 0x8, addend: 0x0, symName: __ZNSt3__122__compressed_pair_elemINS_12basic_stringIcNS_11char_traitsIcEENS_9allocatorIcEEE5__repELi0ELb0EE5__getB7v160006Ev, symObjAddr: 0x11880, symBinAddr: 0x1000121C0, symSize: 0x10 }
  - { offsetInCU: 0x146F3, offset: 0x146F3, size: 0x8, addend: 0x0, symName: __ZNSt3__114pointer_traitsIPcE10pointer_toB7v160006ERc, symObjAddr: 0x11890, symBinAddr: 0x1000121D0, symSize: 0x10 }
  - { offsetInCU: 0x1472A, offset: 0x1472A, size: 0x8, addend: 0x0, symName: __ZNSt3__112__hash_tableINS_17__hash_value_typeIN8Solution5StateENS_13unordered_mapINS2_8CharTypeES3_NS_4hashIS5_EENS_8equal_toIS5_EENS_9allocatorINS_4pairIKS5_S3_EEEEEEEENS_22__unordered_map_hasherIS3_SG_NS6_IS3_EENS8_IS3_EELb1EEENS_21__unordered_map_equalIS3_SG_SJ_SI_Lb1EEENSA_ISG_EEE25__emplace_unique_key_argsIS3_JRKNS_21piecewise_construct_tENS_5tupleIJRKS3_EEENST_IJEEEEEENSB_INS_15__hash_iteratorIPNS_11__hash_nodeISG_PvEEEEbEERKT_DpOT0_, symObjAddr: 0x11930, symBinAddr: 0x100012270, symSize: 0xF40 }
  - { offsetInCU: 0x14844, offset: 0x14844, size: 0x8, addend: 0x0, symName: __ZNKSt3__115__hash_iteratorIPNS_11__hash_nodeINS_17__hash_value_typeIN8Solution5StateENS_13unordered_mapINS3_8CharTypeES4_NS_4hashIS6_EENS_8equal_toIS6_EENS_9allocatorINS_4pairIKS6_S4_EEEEEEEEPvEEEptB7v160006Ev, symObjAddr: 0x12A00, symBinAddr: 0x100013340, symSize: 0x60 }
  - { offsetInCU: 0x14869, offset: 0x14869, size: 0x8, addend: 0x0, symName: __ZNSt3__112__hash_tableINS_17__hash_value_typeIN8Solution5StateENS_13unordered_mapINS2_8CharTypeES3_NS_4hashIS5_EENS_8equal_toIS5_EENS_9allocatorINS_4pairIKS5_S3_EEEEEEEENS_22__unordered_map_hasherIS3_SG_NS6_IS3_EENS8_IS3_EELb1EEENS_21__unordered_map_equalIS3_SG_SJ_SI_Lb1EEENSA_ISG_EEE21__construct_node_hashIRKNS_21piecewise_construct_tEJNS_5tupleIJRKS3_EEENST_IJEEEEEENS_10unique_ptrINS_11__hash_nodeISG_PvEENS_22__hash_node_destructorINSA_IS11_EEEEEEmOT_DpOT0_, symObjAddr: 0x12A60, symBinAddr: 0x1000133A0, symSize: 0x3B0 }
  - { offsetInCU: 0x1490D, offset: 0x1490D, size: 0x8, addend: 0x0, symName: __ZNSt3__116allocator_traitsINS_9allocatorINS_11__hash_nodeINS_17__hash_value_typeIN8Solution5StateENS_13unordered_mapINS4_8CharTypeES5_NS_4hashIS7_EENS_8equal_toIS7_EENS1_INS_4pairIKS7_S5_EEEEEEEEPvEEEEE9constructB7v160006INSC_IKS5_SG_EEJRKNS_21piecewise_construct_tENS_5tupleIJRSN_EEENSS_IJEEEEvEEvRSK_PT_DpOT0_, symObjAddr: 0x12E10, symBinAddr: 0x100013750, symSize: 0x40 }
  - { offsetInCU: 0x1498B, offset: 0x1498B, size: 0x8, addend: 0x0, symName: __ZNSt3__19allocatorINS_11__hash_nodeINS_17__hash_value_typeIN8Solution5StateENS_13unordered_mapINS3_8CharTypeES4_NS_4hashIS6_EENS_8equal_toIS6_EENS0_INS_4pairIKS6_S4_EEEEEEEEPvEEE9constructB7v160006INSB_IKS4_SF_EEJRKNS_21piecewise_construct_tENS_5tupleIJRSL_EEENSQ_IJEEEEEEvPT_DpOT0_, symObjAddr: 0x12E50, symBinAddr: 0x100013790, symSize: 0x1A0 }
  - { offsetInCU: 0x14A0B, offset: 0x14A0B, size: 0x8, addend: 0x0, symName: __ZNSt3__14pairIKN8Solution5StateENS_13unordered_mapINS1_8CharTypeES2_NS_4hashIS5_EENS_8equal_toIS5_EENS_9allocatorINS0_IKS5_S2_EEEEEEEC1B7v160006IJRS3_EJEEENS_21piecewise_construct_tENS_5tupleIJDpT_EEENSJ_IJDpT0_EEE, symObjAddr: 0x12FF0, symBinAddr: 0x100013930, symSize: 0x1C0 }
  - { offsetInCU: 0x14A7B, offset: 0x14A7B, size: 0x8, addend: 0x0, symName: __ZNSt3__14pairIKN8Solution5StateENS_13unordered_mapINS1_8CharTypeES2_NS_4hashIS5_EENS_8equal_toIS5_EENS_9allocatorINS0_IKS5_S2_EEEEEEEC1B7v160006IJRS3_EJEJLm0EEJEEENS_21piecewise_construct_tERNS_5tupleIJDpT_EEERNSJ_IJDpT0_EEENS_15__tuple_indicesIJXspT1_EEEENSS_IJXspT2_EEEE, symObjAddr: 0x131B0, symBinAddr: 0x100013AF0, symSize: 0x30 }
  - { offsetInCU: 0x14B0A, offset: 0x14B0A, size: 0x8, addend: 0x0, symName: __ZNSt3__14pairIKN8Solution5StateENS_13unordered_mapINS1_8CharTypeES2_NS_4hashIS5_EENS_8equal_toIS5_EENS_9allocatorINS0_IKS5_S2_EEEEEEEC2B7v160006IJRS3_EJEJLm0EEJEEENS_21piecewise_construct_tERNS_5tupleIJDpT_EEERNSJ_IJDpT0_EEENS_15__tuple_indicesIJXspT1_EEEENSS_IJXspT2_EEEE, symObjAddr: 0x131E0, symBinAddr: 0x100013B20, symSize: 0xD0 }
  - { offsetInCU: 0x14B99, offset: 0x14B99, size: 0x8, addend: 0x0, symName: __ZNSt3__113unordered_mapIN8Solution8CharTypeENS1_5StateENS_4hashIS2_EENS_8equal_toIS2_EENS_9allocatorINS_4pairIKS2_S3_EEEEEC1B7v160006Ev, symObjAddr: 0x132D0, symBinAddr: 0x100013C10, symSize: 0x20 }
  - { offsetInCU: 0x14BC1, offset: 0x14BC1, size: 0x8, addend: 0x0, symName: __ZNSt3__112__tuple_leafILm0ERKN8Solution5StateELb0EE3getB7v160006Ev, symObjAddr: 0x132F0, symBinAddr: 0x100013C30, symSize: 0x50 }
  - { offsetInCU: 0x14BE6, offset: 0x14BE6, size: 0x8, addend: 0x0, symName: __ZNSt3__113unordered_mapIN8Solution8CharTypeENS1_5StateENS_4hashIS2_EENS_8equal_toIS2_EENS_9allocatorINS_4pairIKS2_S3_EEEEEC2B7v160006Ev, symObjAddr: 0x13340, symBinAddr: 0x100013C80, symSize: 0x30 }
  - { offsetInCU: 0x14C0F, offset: 0x14C0F, size: 0x8, addend: 0x0, symName: __ZNSt3__15tupleIJRKN8Solution5StateEEEC1B7v160006INS_4_AndELi0EEES4_, symObjAddr: 0x13370, symBinAddr: 0x100013CB0, symSize: 0x30 }
  - { offsetInCU: 0x14C56, offset: 0x14C56, size: 0x8, addend: 0x0, symName: __ZNSt3__15tupleIJRKN8Solution5StateEEEC2B7v160006INS_4_AndELi0EEES4_, symObjAddr: 0x133A0, symBinAddr: 0x100013CE0, symSize: 0x30 }
  - { offsetInCU: 0x14C9D, offset: 0x14C9D, size: 0x8, addend: 0x0, symName: __ZNSt3__112__tuple_implINS_15__tuple_indicesIJLm0EEEEJRKN8Solution5StateEEEC1B7v160006IJLm0EEJS6_EJEJEJS6_EEENS1_IJXspT_EEEENS_13__tuple_typesIJDpT0_EEENS1_IJXspT1_EEEENSA_IJDpT2_EEEDpOT3_, symObjAddr: 0x133D0, symBinAddr: 0x100013D10, symSize: 0x30 }
  - { offsetInCU: 0x14D31, offset: 0x14D31, size: 0x8, addend: 0x0, symName: __ZNSt3__112__tuple_implINS_15__tuple_indicesIJLm0EEEEJRKN8Solution5StateEEEC2B7v160006IJLm0EEJS6_EJEJEJS6_EEENS1_IJXspT_EEEENS_13__tuple_typesIJDpT0_EEENS1_IJXspT1_EEEENSA_IJDpT2_EEEDpOT3_, symObjAddr: 0x13400, symBinAddr: 0x100013D40, symSize: 0x30 }
  - { offsetInCU: 0x14DC5, offset: 0x14DC5, size: 0x8, addend: 0x0, symName: __ZNSt3__112__tuple_leafILm0ERKN8Solution5StateELb0EEC2B7v160006IS4_vEEOT_, symObjAddr: 0x13430, symBinAddr: 0x100013D70, symSize: 0x60 }
  - { offsetInCU: 0x14E07, offset: 0x14E07, size: 0x8, addend: 0x0, symName: __ZNSt3__114pointer_traitsIPNS_17__hash_value_typeIN8Solution5StateENS_13unordered_mapINS2_8CharTypeES3_NS_4hashIS5_EENS_8equal_toIS5_EENS_9allocatorINS_4pairIKS5_S3_EEEEEEEEE10pointer_toB7v160006ERSG_, symObjAddr: 0x13490, symBinAddr: 0x100013DD0, symSize: 0x10 }
  - { offsetInCU: 0x14E2A, offset: 0x14E2A, size: 0x8, addend: 0x0, symName: __ZNSt3__112__hash_tableINS_17__hash_value_typeIN8Solution8CharTypeENS2_5StateEEENS_22__unordered_map_hasherIS3_S5_NS_4hashIS3_EENS_8equal_toIS3_EELb1EEENS_21__unordered_map_equalIS3_S5_SA_S8_Lb1EEENS_9allocatorIS5_EEE4findIS3_EENS_15__hash_iteratorIPNS_11__hash_nodeIS5_PvEEEERKT_, symObjAddr: 0x134A0, symBinAddr: 0x100013DE0, symSize: 0x420 }
  - { offsetInCU: 0x14EB6, offset: 0x14EB6, size: 0x8, addend: 0x0, symName: __ZNSt3__119__hash_map_iteratorINS_15__hash_iteratorIPNS_11__hash_nodeINS_17__hash_value_typeIN8Solution8CharTypeENS4_5StateEEEPvEEEEEC1B7v160006ESB_, symObjAddr: 0x138C0, symBinAddr: 0x100014200, symSize: 0x1B0 }
  - { offsetInCU: 0x14EF3, offset: 0x14EF3, size: 0x8, addend: 0x0, symName: __ZNSt3__112__hash_tableINS_17__hash_value_typeIN8Solution8CharTypeENS2_5StateEEENS_22__unordered_map_hasherIS3_S5_NS_4hashIS3_EENS_8equal_toIS3_EELb1EEENS_21__unordered_map_equalIS3_S5_SA_S8_Lb1EEENS_9allocatorIS5_EEE3endEv, symObjAddr: 0x13A70, symBinAddr: 0x1000143B0, symSize: 0x180 }
  - { offsetInCU: 0x14F1B, offset: 0x14F1B, size: 0x8, addend: 0x0, symName: __ZNSt3__119__hash_map_iteratorINS_15__hash_iteratorIPNS_11__hash_nodeINS_17__hash_value_typeIN8Solution8CharTypeENS4_5StateEEEPvEEEEEC2B7v160006ESB_, symObjAddr: 0x13BF0, symBinAddr: 0x100014530, symSize: 0x180 }
  - { offsetInCU: 0x14F58, offset: 0x14F58, size: 0x8, addend: 0x0, symName: __ZNSt3__112__hash_tableINS_17__hash_value_typeIN8Solution8CharTypeENS2_5StateEEENS_22__unordered_map_hasherIS3_S5_NS_4hashIS3_EENS_8equal_toIS3_EELb1EEENS_21__unordered_map_equalIS3_S5_SA_S8_Lb1EEENS_9allocatorIS5_EEE25__emplace_unique_key_argsIS3_JRKNS_21piecewise_construct_tENS_5tupleIJRKS3_EEENSL_IJEEEEEENS_4pairINS_15__hash_iteratorIPNS_11__hash_nodeIS5_PvEEEEbEERKT_DpOT0_, symObjAddr: 0x13D70, symBinAddr: 0x1000146B0, symSize: 0xF40 }
  - { offsetInCU: 0x15072, offset: 0x15072, size: 0x8, addend: 0x0, symName: __ZNKSt3__115__hash_iteratorIPNS_11__hash_nodeINS_17__hash_value_typeIN8Solution8CharTypeENS3_5StateEEEPvEEEptB7v160006Ev, symObjAddr: 0x14E30, symBinAddr: 0x100015770, symSize: 0x60 }
  - { offsetInCU: 0x15097, offset: 0x15097, size: 0x8, addend: 0x0, symName: __ZNSt3__112__hash_tableINS_17__hash_value_typeIN8Solution8CharTypeENS2_5StateEEENS_22__unordered_map_hasherIS3_S5_NS_4hashIS3_EENS_8equal_toIS3_EELb1EEENS_21__unordered_map_equalIS3_S5_SA_S8_Lb1EEENS_9allocatorIS5_EEE21__construct_node_hashIRKNS_21piecewise_construct_tEJNS_5tupleIJRKS3_EEENSL_IJEEEEEENS_10unique_ptrINS_11__hash_nodeIS5_PvEENS_22__hash_node_destructorINSE_IST_EEEEEEmOT_DpOT0_, symObjAddr: 0x14E90, symBinAddr: 0x1000157D0, symSize: 0x3B0 }
  - { offsetInCU: 0x1513B, offset: 0x1513B, size: 0x8, addend: 0x0, symName: __ZNSt3__116allocator_traitsINS_9allocatorINS_11__hash_nodeINS_17__hash_value_typeIN8Solution8CharTypeENS4_5StateEEEPvEEEEE9constructB7v160006INS_4pairIKS5_S6_EEJRKNS_21piecewise_construct_tENS_5tupleIJRSE_EEENSJ_IJEEEEvEEvRSA_PT_DpOT0_, symObjAddr: 0x15240, symBinAddr: 0x100015B80, symSize: 0x40 }
  - { offsetInCU: 0x151B9, offset: 0x151B9, size: 0x8, addend: 0x0, symName: __ZNSt3__19allocatorINS_11__hash_nodeINS_17__hash_value_typeIN8Solution8CharTypeENS3_5StateEEEPvEEE9constructB7v160006INS_4pairIKS4_S5_EEJRKNS_21piecewise_construct_tENS_5tupleIJRSC_EEENSH_IJEEEEEEvPT_DpOT0_, symObjAddr: 0x15280, symBinAddr: 0x100015BC0, symSize: 0x1A0 }
  - { offsetInCU: 0x15239, offset: 0x15239, size: 0x8, addend: 0x0, symName: __ZNSt3__14pairIKN8Solution8CharTypeENS1_5StateEEC1B7v160006IJRS3_EJEEENS_21piecewise_construct_tENS_5tupleIJDpT_EEENS9_IJDpT0_EEE, symObjAddr: 0x15420, symBinAddr: 0x100015D60, symSize: 0x1C0 }
  - { offsetInCU: 0x152A9, offset: 0x152A9, size: 0x8, addend: 0x0, symName: __ZNSt3__14pairIKN8Solution8CharTypeENS1_5StateEEC1B7v160006IJRS3_EJEJLm0EEJEEENS_21piecewise_construct_tERNS_5tupleIJDpT_EEERNS9_IJDpT0_EEENS_15__tuple_indicesIJXspT1_EEEENSI_IJXspT2_EEEE, symObjAddr: 0x155E0, symBinAddr: 0x100015F20, symSize: 0x30 }
  - { offsetInCU: 0x15338, offset: 0x15338, size: 0x8, addend: 0x0, symName: __ZNSt3__14pairIKN8Solution8CharTypeENS1_5StateEEC2B7v160006IJRS3_EJEJLm0EEJEEENS_21piecewise_construct_tERNS_5tupleIJDpT_EEERNS9_IJDpT0_EEENS_15__tuple_indicesIJXspT1_EEEENSI_IJXspT2_EEEE, symObjAddr: 0x15610, symBinAddr: 0x100015F50, symSize: 0x120 }
  - { offsetInCU: 0x153C6, offset: 0x153C6, size: 0x8, addend: 0x0, symName: __ZNSt3__112__tuple_leafILm0ERKN8Solution8CharTypeELb0EE3getB7v160006Ev, symObjAddr: 0x15750, symBinAddr: 0x100016090, symSize: 0x50 }
  - { offsetInCU: 0x153EB, offset: 0x153EB, size: 0x8, addend: 0x0, symName: __ZNSt3__15tupleIJRKN8Solution8CharTypeEEEC1B7v160006INS_4_AndELi0EEES4_, symObjAddr: 0x157A0, symBinAddr: 0x1000160E0, symSize: 0x30 }
  - { offsetInCU: 0x15432, offset: 0x15432, size: 0x8, addend: 0x0, symName: __ZNSt3__15tupleIJRKN8Solution8CharTypeEEEC2B7v160006INS_4_AndELi0EEES4_, symObjAddr: 0x157D0, symBinAddr: 0x100016110, symSize: 0x30 }
  - { offsetInCU: 0x15479, offset: 0x15479, size: 0x8, addend: 0x0, symName: __ZNSt3__112__tuple_implINS_15__tuple_indicesIJLm0EEEEJRKN8Solution8CharTypeEEEC1B7v160006IJLm0EEJS6_EJEJEJS6_EEENS1_IJXspT_EEEENS_13__tuple_typesIJDpT0_EEENS1_IJXspT1_EEEENSA_IJDpT2_EEEDpOT3_, symObjAddr: 0x15800, symBinAddr: 0x100016140, symSize: 0x30 }
  - { offsetInCU: 0x1550D, offset: 0x1550D, size: 0x8, addend: 0x0, symName: __ZNSt3__112__tuple_implINS_15__tuple_indicesIJLm0EEEEJRKN8Solution8CharTypeEEEC2B7v160006IJLm0EEJS6_EJEJEJS6_EEENS1_IJXspT_EEEENS_13__tuple_typesIJDpT0_EEENS1_IJXspT1_EEEENSA_IJDpT2_EEEDpOT3_, symObjAddr: 0x15830, symBinAddr: 0x100016170, symSize: 0x30 }
  - { offsetInCU: 0x155A1, offset: 0x155A1, size: 0x8, addend: 0x0, symName: __ZNSt3__112__tuple_leafILm0ERKN8Solution8CharTypeELb0EEC2B7v160006IS4_vEEOT_, symObjAddr: 0x15860, symBinAddr: 0x1000161A0, symSize: 0x60 }
  - { offsetInCU: 0x155E3, offset: 0x155E3, size: 0x8, addend: 0x0, symName: __ZNSt3__114pointer_traitsIPNS_17__hash_value_typeIN8Solution8CharTypeENS2_5StateEEEE10pointer_toB7v160006ERS5_, symObjAddr: 0x158C0, symBinAddr: 0x100016200, symSize: 0x10 }
  - { offsetInCU: 0x15606, offset: 0x15606, size: 0x8, addend: 0x0, symName: __ZNSt3__113unordered_mapIN8Solution5StateENS0_INS1_8CharTypeES2_NS_4hashIS3_EENS_8equal_toIS3_EENS_9allocatorINS_4pairIKS3_S2_EEEEEENS4_IS2_EENS6_IS2_EENS8_INS9_IKS2_SD_EEEEED2B7v160006Ev, symObjAddr: 0x158D0, symBinAddr: 0x100016210, symSize: 0x20 }
  - { offsetInCU: 0x1562F, offset: 0x1562F, size: 0x8, addend: 0x0, symName: __ZNSt3__112basic_stringIcNS_11char_traitsIcEENS_9allocatorIcEEEC2B7v160006IDnEEPKc, symObjAddr: 0x158F0, symBinAddr: 0x100016230, symSize: 0x190 }
  - { offsetInCU: 0x1566E, offset: 0x1566E, size: 0x8, addend: 0x0, symName: __ZNSt3__117__compressed_pairINS_12basic_stringIcNS_11char_traitsIcEENS_9allocatorIcEEE5__repES5_EC1B7v160006INS_18__default_init_tagESA_EEOT_OT0_, symObjAddr: 0x15A80, symBinAddr: 0x1000163C0, symSize: 0x30 }
  - { offsetInCU: 0x156C5, offset: 0x156C5, size: 0x8, addend: 0x0, symName: __ZNSt3__111char_traitsIcE6lengthEPKc, symObjAddr: 0x15AB0, symBinAddr: 0x1000163F0, symSize: 0x40 }
  - { offsetInCU: 0x156E8, offset: 0x156E8, size: 0x8, addend: 0x0, symName: __ZNSt3__117__compressed_pairINS_12basic_stringIcNS_11char_traitsIcEENS_9allocatorIcEEE5__repES5_EC2B7v160006INS_18__default_init_tagESA_EEOT_OT0_, symObjAddr: 0x15B00, symBinAddr: 0x100016440, symSize: 0x30 }
  - { offsetInCU: 0x1573F, offset: 0x1573F, size: 0x8, addend: 0x0, symName: __ZNSt3__122__compressed_pair_elemINS_12basic_stringIcNS_11char_traitsIcEENS_9allocatorIcEEE5__repELi0ELb0EEC2B7v160006ENS_18__default_init_tagE, symObjAddr: 0x15B30, symBinAddr: 0x100016470, symSize: 0x10 }
  - { offsetInCU: 0x15773, offset: 0x15773, size: 0x8, addend: 0x0, symName: __ZNSt3__122__compressed_pair_elemINS_9allocatorIcEELi1ELb1EEC2B7v160006ENS_18__default_init_tagE, symObjAddr: 0x15B40, symBinAddr: 0x100016480, symSize: 0x20 }
  - { offsetInCU: 0x157A7, offset: 0x157A7, size: 0x8, addend: 0x0, symName: __ZNSt3__19allocatorIcEC2B7v160006Ev, symObjAddr: 0x15B60, symBinAddr: 0x1000164A0, symSize: 0x20 }
  - { offsetInCU: 0x157D0, offset: 0x157D0, size: 0x8, addend: 0x0, symName: __ZNSt3__116__non_trivial_ifILb1ENS_9allocatorIcEEEC2B7v160006Ev, symObjAddr: 0x15B80, symBinAddr: 0x1000164C0, symSize: 0x10 }
  - { offsetInCU: 0x157F9, offset: 0x157F9, size: 0x8, addend: 0x0, symName: __ZNKSt3__19basic_iosIcNS_11char_traitsIcEEE5widenB7v160006Ec, symObjAddr: 0x15BB0, symBinAddr: 0x1000164F0, symSize: 0x200 }
  - { offsetInCU: 0x15867, offset: 0x15867, size: 0x8, addend: 0x0, symName: __ZNKSt3__15ctypeIcE5widenB7v160006Ec, symObjAddr: 0x15DE0, symBinAddr: 0x100016720, symSize: 0xA0 }
...
