---
triple:          'x86_64-apple-darwin'
binary-path:     '/Users/fan/Workspace/myLeetcode/Sudoku_Solver/test'
relocations:
  - { offsetInCU: 0x3B, offset: 0x3B, size: 0x8, addend: 0x0, symName: _.str, symObjAddr: 0x168A0, symBinAddr: 0x100017460, symSize: 0x0 }
  - { offsetInCU: 0x6C, offset: 0x6C, size: 0x8, addend: 0x0, symName: _.str.1, symObjAddr: 0x168C0, symBinAddr: 0x100017480, symSize: 0x0 }
  - { offsetInCU: 0x324E, offset: 0x324E, size: 0x8, addend: 0x0, symName: __ZNSt3__124__put_character_sequenceB7v160006IcNS_11char_traitsIcEEEERNS_13basic_ostreamIT_T0_EES7_PKS4_m, symObjAddr: 0x5350, symBinAddr: 0x100005D60, symSize: 0x750 }
  - { offsetInCU: 0x60BE, offset: 0x60BE, size: 0x8, addend: 0x0, symName: __ZNSt3__17advanceB7v160006IPKNS_6vectorIcNS_9allocatorIcEEEEmmvEEvRT_T0_, symObjAddr: 0xCF00, symBinAddr: 0x10000D910, symSize: 0x50 }
  - { offsetInCU: 0x6149, offset: 0x6149, size: 0x8, addend: 0x0, symName: __ZNSt3__17advanceB7v160006IPcmmvEEvRT_T0_, symObjAddr: 0xF9A0, symBinAddr: 0x1000103B0, symSize: 0x50 }
  - { offsetInCU: 0x753F, offset: 0x753F, size: 0x8, addend: 0x0, symName: __ZNSt3__1neB7v160006IPNS_6vectorIcNS_9allocatorIcEEEEEEbRKNS_11__wrap_iterIT_EESA_, symObjAddr: 0x45F0, symBinAddr: 0x100005000, symSize: 0x30 }
  - { offsetInCU: 0x7582, offset: 0x7582, size: 0x8, addend: 0x0, symName: __ZNSt3__1neB7v160006IPKcEEbRKNS_11__wrap_iterIT_EES7_, symObjAddr: 0x4A40, symBinAddr: 0x100005450, symSize: 0x30 }
  - { offsetInCU: 0x75C5, offset: 0x75C5, size: 0x8, addend: 0x0, symName: __ZNSt3__1lsB7v160006INS_11char_traitsIcEEEERNS_13basic_ostreamIcT_EES6_PKc, symObjAddr: 0x4AC0, symBinAddr: 0x1000054D0, symSize: 0x40 }
  - { offsetInCU: 0x760B, offset: 0x760B, size: 0x8, addend: 0x0, symName: __ZNSt3__1lsB7v160006INS_11char_traitsIcEEEERNS_13basic_ostreamIcT_EES6_c, symObjAddr: 0x4B00, symBinAddr: 0x100005510, symSize: 0x1A0 }
  - { offsetInCU: 0x7656, offset: 0x7656, size: 0x8, addend: 0x0, symName: __ZNSt3__14endlB7v160006IcNS_11char_traitsIcEEEERNS_13basic_ostreamIT_T0_EES7_, symObjAddr: 0x4D10, symBinAddr: 0x100005720, symSize: 0xB0 }
  - { offsetInCU: 0x7696, offset: 0x7696, size: 0x8, addend: 0x0, symName: __ZNSt3__1eqB7v160006IPNS_6vectorIcNS_9allocatorIcEEEEEEbRKNS_11__wrap_iterIT_EESA_, symObjAddr: 0x5020, symBinAddr: 0x100005A30, symSize: 0x40 }
  - { offsetInCU: 0x76D9, offset: 0x76D9, size: 0x8, addend: 0x0, symName: __ZNSt3__1eqB7v160006IPKcEEbRKNS_11__wrap_iterIT_EES7_, symObjAddr: 0x52C0, symBinAddr: 0x100005CD0, symSize: 0x40 }
  - { offsetInCU: 0x771C, offset: 0x771C, size: 0x8, addend: 0x0, symName: __ZNSt3__116__pad_and_outputB7v160006IcNS_11char_traitsIcEEEENS_19ostreambuf_iteratorIT_T0_EES6_PKS4_S8_S8_RNS_8ios_baseES4_, symObjAddr: 0x5B50, symBinAddr: 0x100006560, symSize: 0x6E0 }
  - { offsetInCU: 0x77F9, offset: 0x77F9, size: 0x8, addend: 0x0, symName: __ZNSt3__119__debug_db_insert_cB7v160006INS_12basic_stringIcNS_11char_traitsIcEENS_9allocatorIcEEEEEEvPT_, symObjAddr: 0x6860, symBinAddr: 0x100007270, symSize: 0x10 }
  - { offsetInCU: 0x782A, offset: 0x782A, size: 0x8, addend: 0x0, symName: __ZNSt3__112__to_addressB7v160006IKcEEPT_S3_, symObjAddr: 0x6900, symBinAddr: 0x100007310, symSize: 0x10 }
  - { offsetInCU: 0x7892, offset: 0x7892, size: 0x8, addend: 0x0, symName: __ZNSt3__19use_facetB7v160006INS_5ctypeIcEEEERKT_RKNS_6localeE, symObjAddr: 0x6E20, symBinAddr: 0x100007830, symSize: 0x30 }
  - { offsetInCU: 0x7D61, offset: 0x7D61, size: 0x8, addend: 0x0, symName: __ZNSt3__118__constexpr_strlenB7v160006EPKc, symObjAddr: 0x6F70, symBinAddr: 0x100007980, symSize: 0x20 }
  - { offsetInCU: 0x7D8D, offset: 0x7D8D, size: 0x8, addend: 0x0, symName: __ZNSt3__119__debug_db_insert_cB7v160006INS_6vectorINS1_IcNS_9allocatorIcEEEENS2_IS4_EEEEEEvPT_, symObjAddr: 0x7220, symBinAddr: 0x100007C30, symSize: 0x10 }
  - { offsetInCU: 0x7DBE, offset: 0x7DBE, size: 0x8, addend: 0x0, symName: __ZNSt3__118__debug_db_erase_cB7v160006INS_6vectorINS1_IcNS_9allocatorIcEEEENS2_IS4_EEEEEEvPT_, symObjAddr: 0x77F0, symBinAddr: 0x100008200, symSize: 0x10 }
  - { offsetInCU: 0x7DEF, offset: 0x7DEF, size: 0x8, addend: 0x0, symName: __ZNSt3__112__to_addressB7v160006INS_6vectorIcNS_9allocatorIcEEEEEEPT_S6_, symObjAddr: 0x7A80, symBinAddr: 0x100008490, symSize: 0x10 }
  - { offsetInCU: 0x7E24, offset: 0x7E24, size: 0x8, addend: 0x0, symName: __ZNSt3__119__libcpp_deallocateB7v160006EPvmm, symObjAddr: 0x7C20, symBinAddr: 0x100008630, symSize: 0x30 }
  - { offsetInCU: 0x7E6C, offset: 0x7E6C, size: 0x8, addend: 0x0, symName: __ZNSt3__127__do_deallocate_handle_sizeB7v160006IJEEEvPvmDpT_, symObjAddr: 0x7C50, symBinAddr: 0x100008660, symSize: 0x20 }
  - { offsetInCU: 0x7EAA, offset: 0x7EAA, size: 0x8, addend: 0x0, symName: __ZNSt3__124__libcpp_operator_deleteB7v160006IJPvEEEvDpT_, symObjAddr: 0x7C70, symBinAddr: 0x100008680, symSize: 0x20 }
  - { offsetInCU: 0x7EDF, offset: 0x7EDF, size: 0x8, addend: 0x0, symName: __ZNSt3__118__debug_db_erase_cB7v160006INS_6vectorIcNS_9allocatorIcEEEEEEvPT_, symObjAddr: 0x81E0, symBinAddr: 0x100008BF0, symSize: 0x10 }
  - { offsetInCU: 0x7F10, offset: 0x7F10, size: 0x8, addend: 0x0, symName: __ZNSt3__112__to_addressB7v160006IcEEPT_S2_, symObjAddr: 0x8450, symBinAddr: 0x100008E60, symSize: 0x10 }
  - { offsetInCU: 0x7F45, offset: 0x7F45, size: 0x8, addend: 0x0, symName: __ZNSt3__122__make_exception_guardB7v160006INS_6vectorIcNS_9allocatorIcEEE16__destroy_vectorEEENS_28__exception_guard_exceptionsIT_EES7_, symObjAddr: 0x8B70, symBinAddr: 0x100009580, symSize: 0x1F0 }
  - { offsetInCU: 0x7F7E, offset: 0x7F7E, size: 0x8, addend: 0x0, symName: __ZNSt3__119__debug_db_insert_cB7v160006INS_6vectorIcNS_9allocatorIcEEEEEEvPT_, symObjAddr: 0x8D60, symBinAddr: 0x100009770, symSize: 0x10 }
  - { offsetInCU: 0x7FAF, offset: 0x7FAF, size: 0x8, addend: 0x0, symName: __ZNSt3__119__allocate_at_leastB7v160006INS_9allocatorIcEEEENS_19__allocation_resultINS_16allocator_traitsIT_E7pointerEEERS5_m, symObjAddr: 0x9CD0, symBinAddr: 0x10000A6E0, symSize: 0x210 }
  - { offsetInCU: 0x7FF4, offset: 0x7FF4, size: 0x8, addend: 0x0, symName: __ZNSt3__13minB7v160006ImEERKT_S3_S3_, symObjAddr: 0x9FB0, symBinAddr: 0x10000A9C0, symSize: 0x30 }
  - { offsetInCU: 0x8238, offset: 0x8238, size: 0x8, addend: 0x0, symName: __ZNSt3__13minB7v160006ImNS_6__lessImmEEEERKT_S5_S5_T0_, symObjAddr: 0xA030, symBinAddr: 0x10000AA40, symSize: 0x170 }
  - { offsetInCU: 0x82D3, offset: 0x82D3, size: 0x8, addend: 0x0, symName: __ZNSt3__120__throw_length_errorB7v160006EPKc, symObjAddr: 0xA2A0, symBinAddr: 0x10000ACB0, symSize: 0x70 }
  - { offsetInCU: 0x82FB, offset: 0x82FB, size: 0x8, addend: 0x0, symName: __ZNSt3__117__libcpp_allocateB7v160006Emm, symObjAddr: 0xA450, symBinAddr: 0x10000AE60, symSize: 0x20 }
  - { offsetInCU: 0x8338, offset: 0x8338, size: 0x8, addend: 0x0, symName: __ZNSt3__121__libcpp_operator_newB7v160006IJmEEEPvDpT_, symObjAddr: 0xA470, symBinAddr: 0x10000AE80, symSize: 0x20 }
  - { offsetInCU: 0x8371, offset: 0x8371, size: 0x8, addend: 0x0, symName: __ZNSt3__130__uninitialized_allocator_copyB7v160006INS_9allocatorIcEEccLPv0EEEPT0_RT_PKS4_S9_S5_, symObjAddr: 0xA4F0, symBinAddr: 0x10000AF00, symSize: 0x30 }
  - { offsetInCU: 0x83E9, offset: 0x83E9, size: 0x8, addend: 0x0, symName: __ZNSt3__14copyB7v160006IPKcPcEET0_T_S5_S4_, symObjAddr: 0xA790, symBinAddr: 0x10000B1A0, symSize: 0x220 }
  - { offsetInCU: 0x8446, offset: 0x8446, size: 0x8, addend: 0x0, symName: __ZNSt3__16__copyB7v160006INS_17_ClassicAlgPolicyEPKcS3_PcEENS_4pairIT0_T2_EES6_T1_S7_, symObjAddr: 0xA9B0, symBinAddr: 0x10000B3C0, symSize: 0x210 }
  - { offsetInCU: 0x84B5, offset: 0x84B5, size: 0x8, addend: 0x0, symName: __ZNSt3__123__dispatch_copy_or_moveB7v160006INS_17_ClassicAlgPolicyENS_11__copy_loopIS1_EENS_14__copy_trivialEPKcS6_PcEENS_4pairIT2_T4_EES9_T3_SA_, symObjAddr: 0xABC0, symBinAddr: 0x10000B5D0, symSize: 0x210 }
  - { offsetInCU: 0x8536, offset: 0x8536, size: 0x8, addend: 0x0, symName: __ZNSt3__121__unwrap_and_dispatchB7v160006INS_10__overloadINS_11__copy_loopINS_17_ClassicAlgPolicyEEENS_14__copy_trivialEEEPKcS8_PcLi0EEENS_4pairIT0_T2_EESB_T1_SC_, symObjAddr: 0xADD0, symBinAddr: 0x10000B7E0, symSize: 0x650 }
  - { offsetInCU: 0x85CF, offset: 0x85CF, size: 0x8, addend: 0x0, symName: __ZNSt3__114__unwrap_rangeB7v160006IPKcS2_EENS_4pairIT0_S4_EET_S6_, symObjAddr: 0xB420, symBinAddr: 0x10000BE30, symSize: 0x300 }
  - { offsetInCU: 0x87A2, offset: 0x87A2, size: 0x8, addend: 0x0, symName: __ZNSt3__113__unwrap_iterB7v160006IPcNS_18__unwrap_iter_implIS1_Lb1EEELi0EEEDTclsrT0_8__unwrapclsr3stdE7declvalIT_EEEES5_, symObjAddr: 0xB930, symBinAddr: 0x10000C340, symSize: 0x20 }
  - { offsetInCU: 0x87E6, offset: 0x87E6, size: 0x8, addend: 0x0, symName: __ZNSt3__19make_pairB7v160006IPKcPcEENS_4pairINS_18__unwrap_ref_decayIT_E4typeENS5_IT0_E4typeEEEOS6_OS9_, symObjAddr: 0xB950, symBinAddr: 0x10000C360, symSize: 0x190 }
  - { offsetInCU: 0x8837, offset: 0x8837, size: 0x8, addend: 0x0, symName: __ZNSt3__114__rewrap_rangeB7v160006IPKcS2_EET_S3_T0_, symObjAddr: 0xBAE0, symBinAddr: 0x10000C4F0, symSize: 0x30 }
  - { offsetInCU: 0x8883, offset: 0x8883, size: 0x8, addend: 0x0, symName: __ZNSt3__113__rewrap_iterB7v160006IPcS1_NS_18__unwrap_iter_implIS1_Lb1EEEEET_S4_T0_, symObjAddr: 0xBB10, symBinAddr: 0x10000C520, symSize: 0x50 }
  - { offsetInCU: 0x88D8, offset: 0x88D8, size: 0x8, addend: 0x0, symName: __ZNSt3__19make_pairB7v160006IPKcS2_EENS_4pairINS_18__unwrap_ref_decayIT_E4typeENS4_IT0_E4typeEEEOS5_OS8_, symObjAddr: 0xBB60, symBinAddr: 0x10000C570, symSize: 0x190 }
  - { offsetInCU: 0x8929, offset: 0x8929, size: 0x8, addend: 0x0, symName: __ZNSt3__113__unwrap_iterB7v160006IPKcNS_18__unwrap_iter_implIS2_Lb1EEELi0EEEDTclsrT0_8__unwrapclsr3stdE7declvalIT_EEEES6_, symObjAddr: 0xBCF0, symBinAddr: 0x10000C700, symSize: 0x20 }
  - { offsetInCU: 0x8A94, offset: 0x8A94, size: 0x8, addend: 0x0, symName: __ZNSt3__119__copy_trivial_implB7v160006IKccEENS_4pairIPT_PT0_EES4_S4_S6_, symObjAddr: 0xBE70, symBinAddr: 0x10000C880, symSize: 0x340 }
  - { offsetInCU: 0x8B03, offset: 0x8B03, size: 0x8, addend: 0x0, symName: __ZNSt3__19make_pairB7v160006IRPKcPcEENS_4pairINS_18__unwrap_ref_decayIT_E4typeENS6_IT0_E4typeEEEOS7_OSA_, symObjAddr: 0xC1B0, symBinAddr: 0x10000CBC0, symSize: 0x190 }
  - { offsetInCU: 0x8BA7, offset: 0x8BA7, size: 0x8, addend: 0x0, symName: __ZNSt3__113__rewrap_iterB7v160006IPKcS2_NS_18__unwrap_iter_implIS2_Lb1EEEEET_S5_T0_, symObjAddr: 0xC5E0, symBinAddr: 0x10000CFF0, symSize: 0x50 }
  - { offsetInCU: 0x8BFC, offset: 0x8BFC, size: 0x8, addend: 0x0, symName: __ZNSt3__18distanceB7v160006IPKNS_6vectorIcNS_9allocatorIcEEEEEENS_15iterator_traitsIT_E15difference_typeES8_S8_, symObjAddr: 0xCED0, symBinAddr: 0x10000D8E0, symSize: 0x30 }
  - { offsetInCU: 0x8C3F, offset: 0x8C3F, size: 0x8, addend: 0x0, symName: __ZNSt3__14copyB7v160006IPKNS_6vectorIcNS_9allocatorIcEEEEPS4_EET0_T_S9_S8_, symObjAddr: 0xCF50, symBinAddr: 0x10000D960, symSize: 0x220 }
  - { offsetInCU: 0x8C9C, offset: 0x8C9C, size: 0x8, addend: 0x0, symName: __ZNSt3__125__debug_db_invalidate_allB7v160006INS_6vectorINS1_IcNS_9allocatorIcEEEENS2_IS4_EEEEEEvPT_, symObjAddr: 0xDD30, symBinAddr: 0x10000E740, symSize: 0x10 }
  - { offsetInCU: 0x8CCD, offset: 0x8CCD, size: 0x8, addend: 0x0, symName: __ZNSt3__110__distanceB7v160006IPKNS_6vectorIcNS_9allocatorIcEEEEEENS_15iterator_traitsIT_E15difference_typeES8_S8_NS_26random_access_iterator_tagE, symObjAddr: 0xDD40, symBinAddr: 0x10000E750, symSize: 0x30 }
  - { offsetInCU: 0x8D1A, offset: 0x8D1A, size: 0x8, addend: 0x0, symName: __ZNSt3__121__convert_to_integralB7v160006Em, symObjAddr: 0xDD70, symBinAddr: 0x10000E780, symSize: 0x10 }
  - { offsetInCU: 0x8D46, offset: 0x8D46, size: 0x8, addend: 0x0, symName: __ZNSt3__19__advanceB7v160006IPKNS_6vectorIcNS_9allocatorIcEEEEEEvRT_NS_15iterator_traitsIS7_E15difference_typeENS_26random_access_iterator_tagE, symObjAddr: 0xDD80, symBinAddr: 0x10000E790, symSize: 0x60 }
  - { offsetInCU: 0x8D8F, offset: 0x8D8F, size: 0x8, addend: 0x0, symName: __ZNSt3__16__copyB7v160006INS_17_ClassicAlgPolicyEPKNS_6vectorIcNS_9allocatorIcEEEES7_PS5_EENS_4pairIT0_T2_EESA_T1_SB_, symObjAddr: 0xDDE0, symBinAddr: 0x10000E7F0, symSize: 0x210 }
  - { offsetInCU: 0x8DFE, offset: 0x8DFE, size: 0x8, addend: 0x0, symName: __ZNSt3__123__dispatch_copy_or_moveB7v160006INS_17_ClassicAlgPolicyENS_11__copy_loopIS1_EENS_14__copy_trivialEPKNS_6vectorIcNS_9allocatorIcEEEESA_PS8_EENS_4pairIT2_T4_EESD_T3_SE_, symObjAddr: 0xDFF0, symBinAddr: 0x10000EA00, symSize: 0x210 }
  - { offsetInCU: 0x8E7F, offset: 0x8E7F, size: 0x8, addend: 0x0, symName: __ZNSt3__121__unwrap_and_dispatchB7v160006INS_10__overloadINS_11__copy_loopINS_17_ClassicAlgPolicyEEENS_14__copy_trivialEEEPKNS_6vectorIcNS_9allocatorIcEEEESC_PSA_Li0EEENS_4pairIT0_T2_EESF_T1_SG_, symObjAddr: 0xE200, symBinAddr: 0x10000EC10, symSize: 0x650 }
  - { offsetInCU: 0x8F18, offset: 0x8F18, size: 0x8, addend: 0x0, symName: __ZNSt3__114__unwrap_rangeB7v160006IPKNS_6vectorIcNS_9allocatorIcEEEES6_EENS_4pairIT0_S8_EET_SA_, symObjAddr: 0xE850, symBinAddr: 0x10000F260, symSize: 0x300 }
  - { offsetInCU: 0x9095, offset: 0x9095, size: 0x8, addend: 0x0, symName: __ZNSt3__113__unwrap_iterB7v160006IPNS_6vectorIcNS_9allocatorIcEEEENS_18__unwrap_iter_implIS5_Lb1EEELi0EEEDTclsrT0_8__unwrapclsr3stdE7declvalIT_EEEES9_, symObjAddr: 0xEF40, symBinAddr: 0x10000F950, symSize: 0x20 }
  - { offsetInCU: 0x90D9, offset: 0x90D9, size: 0x8, addend: 0x0, symName: __ZNSt3__19make_pairB7v160006IPKNS_6vectorIcNS_9allocatorIcEEEEPS4_EENS_4pairINS_18__unwrap_ref_decayIT_E4typeENS9_IT0_E4typeEEEOSA_OSD_, symObjAddr: 0xEF60, symBinAddr: 0x10000F970, symSize: 0x190 }
  - { offsetInCU: 0x912A, offset: 0x912A, size: 0x8, addend: 0x0, symName: __ZNSt3__114__rewrap_rangeB7v160006IPKNS_6vectorIcNS_9allocatorIcEEEES6_EET_S7_T0_, symObjAddr: 0xF0F0, symBinAddr: 0x10000FB00, symSize: 0x30 }
  - { offsetInCU: 0x9176, offset: 0x9176, size: 0x8, addend: 0x0, symName: __ZNSt3__113__rewrap_iterB7v160006IPNS_6vectorIcNS_9allocatorIcEEEES5_NS_18__unwrap_iter_implIS5_Lb1EEEEET_S8_T0_, symObjAddr: 0xF120, symBinAddr: 0x10000FB30, symSize: 0x50 }
  - { offsetInCU: 0x91CB, offset: 0x91CB, size: 0x8, addend: 0x0, symName: __ZNSt3__19make_pairB7v160006IPKNS_6vectorIcNS_9allocatorIcEEEES6_EENS_4pairINS_18__unwrap_ref_decayIT_E4typeENS8_IT0_E4typeEEEOS9_OSC_, symObjAddr: 0xF170, symBinAddr: 0x10000FB80, symSize: 0x190 }
  - { offsetInCU: 0x921C, offset: 0x921C, size: 0x8, addend: 0x0, symName: __ZNSt3__113__unwrap_iterB7v160006IPKNS_6vectorIcNS_9allocatorIcEEEENS_18__unwrap_iter_implIS6_Lb1EEELi0EEEDTclsrT0_8__unwrapclsr3stdE7declvalIT_EEEESA_, symObjAddr: 0xF300, symBinAddr: 0x10000FD10, symSize: 0x20 }
  - { offsetInCU: 0x9387, offset: 0x9387, size: 0x8, addend: 0x0, symName: __ZNSt3__112__to_addressB7v160006IKNS_6vectorIcNS_9allocatorIcEEEEEEPT_S7_, symObjAddr: 0xF480, symBinAddr: 0x10000FE90, symSize: 0x10 }
  - { offsetInCU: 0x93BC, offset: 0x93BC, size: 0x8, addend: 0x0, symName: __ZNSt3__18distanceB7v160006IPcEENS_15iterator_traitsIT_E15difference_typeES3_S3_, symObjAddr: 0xF970, symBinAddr: 0x100010380, symSize: 0x30 }
  - { offsetInCU: 0x93FF, offset: 0x93FF, size: 0x8, addend: 0x0, symName: __ZNSt3__14copyB7v160006IPcS1_EET0_T_S3_S2_, symObjAddr: 0xF9F0, symBinAddr: 0x100010400, symSize: 0x220 }
  - { offsetInCU: 0x945C, offset: 0x945C, size: 0x8, addend: 0x0, symName: __ZNSt3__125__debug_db_invalidate_allB7v160006INS_6vectorIcNS_9allocatorIcEEEEEEvPT_, symObjAddr: 0x103D0, symBinAddr: 0x100010DE0, symSize: 0x10 }
  - { offsetInCU: 0x948D, offset: 0x948D, size: 0x8, addend: 0x0, symName: __ZNSt3__110__distanceB7v160006IPcEENS_15iterator_traitsIT_E15difference_typeES3_S3_NS_26random_access_iterator_tagE, symObjAddr: 0x103E0, symBinAddr: 0x100010DF0, symSize: 0x20 }
  - { offsetInCU: 0x94DA, offset: 0x94DA, size: 0x8, addend: 0x0, symName: __ZNSt3__19__advanceB7v160006IPcEEvRT_NS_15iterator_traitsIS2_E15difference_typeENS_26random_access_iterator_tagE, symObjAddr: 0x10400, symBinAddr: 0x100010E10, symSize: 0x60 }
  - { offsetInCU: 0x9523, offset: 0x9523, size: 0x8, addend: 0x0, symName: __ZNSt3__16__copyB7v160006INS_17_ClassicAlgPolicyEPcS2_S2_EENS_4pairIT0_T2_EES4_T1_S5_, symObjAddr: 0x10460, symBinAddr: 0x100010E70, symSize: 0x210 }
  - { offsetInCU: 0x9592, offset: 0x9592, size: 0x8, addend: 0x0, symName: __ZNSt3__123__dispatch_copy_or_moveB7v160006INS_17_ClassicAlgPolicyENS_11__copy_loopIS1_EENS_14__copy_trivialEPcS5_S5_EENS_4pairIT2_T4_EES7_T3_S8_, symObjAddr: 0x10670, symBinAddr: 0x100011080, symSize: 0x210 }
  - { offsetInCU: 0x9613, offset: 0x9613, size: 0x8, addend: 0x0, symName: __ZNSt3__121__unwrap_and_dispatchB7v160006INS_10__overloadINS_11__copy_loopINS_17_ClassicAlgPolicyEEENS_14__copy_trivialEEEPcS7_S7_Li0EEENS_4pairIT0_T2_EES9_T1_SA_, symObjAddr: 0x10880, symBinAddr: 0x100011290, symSize: 0x650 }
  - { offsetInCU: 0x96AC, offset: 0x96AC, size: 0x8, addend: 0x0, symName: __ZNSt3__114__unwrap_rangeB7v160006IPcS1_EENS_4pairIT0_S3_EET_S5_, symObjAddr: 0x10ED0, symBinAddr: 0x1000118E0, symSize: 0x300 }
  - { offsetInCU: 0x97FD, offset: 0x97FD, size: 0x8, addend: 0x0, symName: __ZNSt3__19make_pairB7v160006IPcS1_EENS_4pairINS_18__unwrap_ref_decayIT_E4typeENS3_IT0_E4typeEEEOS4_OS7_, symObjAddr: 0x113E0, symBinAddr: 0x100011DF0, symSize: 0x190 }
  - { offsetInCU: 0x984E, offset: 0x984E, size: 0x8, addend: 0x0, symName: __ZNSt3__114__rewrap_rangeB7v160006IPcS1_EET_S2_T0_, symObjAddr: 0x11570, symBinAddr: 0x100011F80, symSize: 0x30 }
  - { offsetInCU: 0x989A, offset: 0x989A, size: 0x8, addend: 0x0, symName: __ZNSt3__119__copy_trivial_implB7v160006IccEENS_4pairIPT_PT0_EES3_S3_S5_, symObjAddr: 0x115A0, symBinAddr: 0x100011FB0, symSize: 0x340 }
  - { offsetInCU: 0x9909, offset: 0x9909, size: 0x8, addend: 0x0, symName: __ZNSt3__19make_pairB7v160006IRPcS1_EENS_4pairINS_18__unwrap_ref_decayIT_E4typeENS4_IT0_E4typeEEEOS5_OS8_, symObjAddr: 0x118E0, symBinAddr: 0x1000122F0, symSize: 0x190 }
  - { offsetInCU: 0x995A, offset: 0x995A, size: 0x8, addend: 0x0, symName: __ZNSt3__130__uninitialized_allocator_copyB7v160006INS_9allocatorIcEEPcS3_S3_EET2_RT_T0_T1_S4_, symObjAddr: 0x11CF0, symBinAddr: 0x100012700, symSize: 0x550 }
  - { offsetInCU: 0x9A06, offset: 0x9A06, size: 0x8, addend: 0x0, symName: __ZNSt3__122__make_exception_guardB7v160006INS_29_AllocatorDestroyRangeReverseINS_9allocatorIcEEPcEEEENS_28__exception_guard_exceptionsIT_EES7_, symObjAddr: 0x12240, symBinAddr: 0x100012C50, symSize: 0x2A0 }
  - { offsetInCU: 0x9A3F, offset: 0x9A3F, size: 0x8, addend: 0x0, symName: __ZNSt3__119__allocator_destroyB7v160006INS_9allocatorIcEENS_16reverse_iteratorIPcEES5_EEvRT_T0_T1_, symObjAddr: 0x12FD0, symBinAddr: 0x1000139E0, symSize: 0x2B0 }
  - { offsetInCU: 0x9AAB, offset: 0x9AAB, size: 0x8, addend: 0x0, symName: __ZNSt3__1neB7v160006IPcS1_EEbRKNS_16reverse_iteratorIT_EERKNS2_IT0_EE, symObjAddr: 0x132B0, symBinAddr: 0x100013CC0, symSize: 0x40 }
  - { offsetInCU: 0x9AF7, offset: 0x9AF7, size: 0x8, addend: 0x0, symName: __ZNSt3__112__to_addressB7v160006INS_16reverse_iteratorIPcEEvEENS_5decayIDTclsr19__to_address_helperIT_EE6__callclsr3stdE7declvalIRKS5_EEEEE4typeES7_, symObjAddr: 0x132F0, symBinAddr: 0x100013D00, symSize: 0x20 }
  - { offsetInCU: 0x9B56, offset: 0x9B56, size: 0x8, addend: 0x0, symName: __ZNSt3__13maxB7v160006ImEERKT_S3_S3_, symObjAddr: 0x13590, symBinAddr: 0x100013FA0, symSize: 0x30 }
  - { offsetInCU: 0x9B99, offset: 0x9B99, size: 0x8, addend: 0x0, symName: __ZNSt3__13maxB7v160006ImNS_6__lessImmEEEERKT_S5_S5_T0_, symObjAddr: 0x135C0, symBinAddr: 0x100013FD0, symSize: 0x170 }
  - { offsetInCU: 0x9C4C, offset: 0x9C4C, size: 0x8, addend: 0x0, symName: __ZNSt3__113__rewrap_iterB7v160006IPKNS_6vectorIcNS_9allocatorIcEEEES6_NS_18__unwrap_iter_implIS6_Lb1EEEEET_S9_T0_, symObjAddr: 0x13890, symBinAddr: 0x1000142A0, symSize: 0x50 }
  - { offsetInCU: 0x9CA1, offset: 0x9CA1, size: 0x8, addend: 0x0, symName: __ZNSt3__130__uninitialized_allocator_copyB7v160006INS_9allocatorINS_6vectorIcNS1_IcEEEEEEPKS4_S7_PS4_EET2_RT_T0_T1_S9_, symObjAddr: 0x139D0, symBinAddr: 0x1000143E0, symSize: 0x550 }
  - { offsetInCU: 0x9D4D, offset: 0x9D4D, size: 0x8, addend: 0x0, symName: __ZNSt3__122__make_exception_guardB7v160006INS_29_AllocatorDestroyRangeReverseINS_9allocatorINS_6vectorIcNS2_IcEEEEEEPS5_EEEENS_28__exception_guard_exceptionsIT_EESA_, symObjAddr: 0x141B0, symBinAddr: 0x100014BC0, symSize: 0x2A0 }
  - { offsetInCU: 0x9D86, offset: 0x9D86, size: 0x8, addend: 0x0, symName: __ZNSt3__119__allocator_destroyB7v160006INS_9allocatorINS_6vectorIcNS1_IcEEEEEENS_16reverse_iteratorIPS4_EES8_EEvRT_T0_T1_, symObjAddr: 0x15420, symBinAddr: 0x100015E30, symSize: 0x2B0 }
  - { offsetInCU: 0x9DF2, offset: 0x9DF2, size: 0x8, addend: 0x0, symName: __ZNSt3__1neB7v160006IPNS_6vectorIcNS_9allocatorIcEEEES5_EEbRKNS_16reverse_iteratorIT_EERKNS6_IT0_EE, symObjAddr: 0x15700, symBinAddr: 0x100016110, symSize: 0x40 }
  - { offsetInCU: 0x9E3E, offset: 0x9E3E, size: 0x8, addend: 0x0, symName: __ZNSt3__112__to_addressB7v160006INS_16reverse_iteratorIPNS_6vectorIcNS_9allocatorIcEEEEEEvEENS_5decayIDTclsr19__to_address_helperIT_EE6__callclsr3stdE7declvalIRKS9_EEEEE4typeESB_, symObjAddr: 0x15740, symBinAddr: 0x100016150, symSize: 0x20 }
  - { offsetInCU: 0x9E9D, offset: 0x9E9D, size: 0x8, addend: 0x0, symName: __ZNSt3__119__allocate_at_leastB7v160006INS_9allocatorINS_6vectorIcNS1_IcEEEEEEEENS_19__allocation_resultINS_16allocator_traitsIT_E7pointerEEERS8_m, symObjAddr: 0x15FA0, symBinAddr: 0x1000169B0, symSize: 0x210 }
  - { offsetInCU: 0xA1FF, offset: 0xA1FF, size: 0x8, addend: 0x0, symName: __ZSt28__throw_bad_array_new_lengthB7v160006v, symObjAddr: 0xA410, symBinAddr: 0x10000AE20, symSize: 0x40 }
  - { offsetInCU: 0xCA1A, offset: 0xCA1A, size: 0x8, addend: 0x0, symName: _main, symObjAddr: 0x0, symBinAddr: 0x100000A10, symSize: 0x3230 }
  - { offsetInCU: 0xCA83, offset: 0xCA83, size: 0x8, addend: 0x0, symName: __ZNSt3__16vectorINS0_IcNS_9allocatorIcEEEENS1_IS3_EEEC1B7v160006Ev, symObjAddr: 0x3230, symBinAddr: 0x100003C40, symSize: 0x20 }
  - { offsetInCU: 0xCAAD, offset: 0xCAAD, size: 0x8, addend: 0x0, symName: __ZNSt3__16vectorIcNS_9allocatorIcEEEC1B7v160006ESt16initializer_listIcE, symObjAddr: 0x3250, symBinAddr: 0x100003C60, symSize: 0x230 }
  - { offsetInCU: 0xCAED, offset: 0xCAED, size: 0x8, addend: 0x0, symName: __ZNSt3__16vectorINS0_IcNS_9allocatorIcEEEENS1_IS3_EEEaSB7v160006ESt16initializer_listIS3_E, symObjAddr: 0x3480, symBinAddr: 0x100003E90, symSize: 0x1F0 }
  - { offsetInCU: 0xCB27, offset: 0xCB27, size: 0x8, addend: 0x0, symName: __ZNSt3__16vectorIcNS_9allocatorIcEEED1B7v160006Ev, symObjAddr: 0x3670, symBinAddr: 0x100004080, symSize: 0x20 }
  - { offsetInCU: 0xCBDC, offset: 0xCBDC, size: 0x8, addend: 0x0, symName: __ZN8Solution11solveSudokuERNSt3__16vectorINS1_IcNS0_9allocatorIcEEEENS2_IS4_EEEE, symObjAddr: 0x3690, symBinAddr: 0x1000040A0, symSize: 0xD0 }
  - { offsetInCU: 0xCC1A, offset: 0xCC1A, size: 0x8, addend: 0x0, symName: '__ZZ4mainENK3$_0clERNSt3__16vectorINS1_IcNS0_9allocatorIcEEEENS2_IS4_EEEE', symObjAddr: 0x3760, symBinAddr: 0x100004170, symSize: 0x440 }
  - { offsetInCU: 0xCD0F, offset: 0xCD0F, size: 0x8, addend: 0x0, symName: __ZNSt3__16vectorINS0_IcNS_9allocatorIcEEEENS1_IS3_EEED1B7v160006Ev, symObjAddr: 0x3BA0, symBinAddr: 0x1000045B0, symSize: 0x20 }
  - { offsetInCU: 0xCD39, offset: 0xCD39, size: 0x8, addend: 0x0, symName: __ZN8Solution9backtrackERNSt3__16vectorINS1_IcNS0_9allocatorIcEEEENS2_IS4_EEEEii, symObjAddr: 0x3BC0, symBinAddr: 0x1000045D0, symSize: 0x320 }
  - { offsetInCU: 0xCDBA, offset: 0xCDBA, size: 0x8, addend: 0x0, symName: __ZNSt3__16vectorINS0_IcNS_9allocatorIcEEEENS1_IS3_EEEixB7v160006Em, symObjAddr: 0x3EE0, symBinAddr: 0x1000048F0, symSize: 0x60 }
  - { offsetInCU: 0xCDF1, offset: 0xCDF1, size: 0x8, addend: 0x0, symName: __ZNSt3__16vectorIcNS_9allocatorIcEEEixB7v160006Em, symObjAddr: 0x3F40, symBinAddr: 0x100004950, symSize: 0x50 }
  - { offsetInCU: 0xCE28, offset: 0xCE28, size: 0x8, addend: 0x0, symName: __ZN8Solution7isValidERNSt3__16vectorINS1_IcNS0_9allocatorIcEEEENS2_IS4_EEEEiic, symObjAddr: 0x3F90, symBinAddr: 0x1000049A0, symSize: 0x290 }
  - { offsetInCU: 0xCEDD, offset: 0xCEDD, size: 0x8, addend: 0x0, symName: __ZNSt3__16vectorINS0_IcNS_9allocatorIcEEEENS1_IS3_EEE5beginB7v160006Ev, symObjAddr: 0x4220, symBinAddr: 0x100004C30, symSize: 0x1E0 }
  - { offsetInCU: 0xCF06, offset: 0xCF06, size: 0x8, addend: 0x0, symName: __ZNSt3__16vectorINS0_IcNS_9allocatorIcEEEENS1_IS3_EEE3endB7v160006Ev, symObjAddr: 0x4400, symBinAddr: 0x100004E10, symSize: 0x1F0 }
  - { offsetInCU: 0xCF2F, offset: 0xCF2F, size: 0x8, addend: 0x0, symName: __ZNKSt3__111__wrap_iterIPNS_6vectorIcNS_9allocatorIcEEEEEdeB7v160006Ev, symObjAddr: 0x4620, symBinAddr: 0x100005030, symSize: 0x50 }
  - { offsetInCU: 0xCF55, offset: 0xCF55, size: 0x8, addend: 0x0, symName: __ZNKSt3__16vectorIcNS_9allocatorIcEEE5beginB7v160006Ev, symObjAddr: 0x4670, symBinAddr: 0x100005080, symSize: 0x1E0 }
  - { offsetInCU: 0xCF7E, offset: 0xCF7E, size: 0x8, addend: 0x0, symName: __ZNKSt3__16vectorIcNS_9allocatorIcEEE3endB7v160006Ev, symObjAddr: 0x4850, symBinAddr: 0x100005260, symSize: 0x1F0 }
  - { offsetInCU: 0xCFA7, offset: 0xCFA7, size: 0x8, addend: 0x0, symName: __ZNKSt3__111__wrap_iterIPKcEdeB7v160006Ev, symObjAddr: 0x4A70, symBinAddr: 0x100005480, symSize: 0x50 }
  - { offsetInCU: 0xCFCD, offset: 0xCFCD, size: 0x8, addend: 0x0, symName: __ZNSt3__111__wrap_iterIPKcEppB7v160006Ev, symObjAddr: 0x4CA0, symBinAddr: 0x1000056B0, symSize: 0x50 }
  - { offsetInCU: 0xCFF3, offset: 0xCFF3, size: 0x8, addend: 0x0, symName: __ZNSt3__113basic_ostreamIcNS_11char_traitsIcEEElsB7v160006EPFRS3_S4_E, symObjAddr: 0x4CF0, symBinAddr: 0x100005700, symSize: 0x20 }
  - { offsetInCU: 0xD027, offset: 0xD027, size: 0x8, addend: 0x0, symName: __ZNSt3__111__wrap_iterIPNS_6vectorIcNS_9allocatorIcEEEEEppB7v160006Ev, symObjAddr: 0x4DC0, symBinAddr: 0x1000057D0, symSize: 0x50 }
  - { offsetInCU: 0xD04D, offset: 0xD04D, size: 0x8, addend: 0x0, symName: __ZNSt3__16vectorINS0_IcNS_9allocatorIcEEEENS1_IS3_EEE11__make_iterB7v160006EPS3_, symObjAddr: 0x4E10, symBinAddr: 0x100005820, symSize: 0x180 }
  - { offsetInCU: 0xD084, offset: 0xD084, size: 0x8, addend: 0x0, symName: __ZNSt3__111__wrap_iterIPNS_6vectorIcNS_9allocatorIcEEEEEC1B7v160006EPKvS5_, symObjAddr: 0x4F90, symBinAddr: 0x1000059A0, symSize: 0x30 }
  - { offsetInCU: 0xD0CA, offset: 0xD0CA, size: 0x8, addend: 0x0, symName: __ZNSt3__111__wrap_iterIPNS_6vectorIcNS_9allocatorIcEEEEEC2B7v160006EPKvS5_, symObjAddr: 0x4FC0, symBinAddr: 0x1000059D0, symSize: 0x60 }
  - { offsetInCU: 0xD110, offset: 0xD110, size: 0x8, addend: 0x0, symName: __ZNKSt3__111__wrap_iterIPNS_6vectorIcNS_9allocatorIcEEEEE4baseB7v160006Ev, symObjAddr: 0x5060, symBinAddr: 0x100005A70, symSize: 0x50 }
  - { offsetInCU: 0xD136, offset: 0xD136, size: 0x8, addend: 0x0, symName: __ZNKSt3__16vectorIcNS_9allocatorIcEEE11__make_iterB7v160006EPKc, symObjAddr: 0x50B0, symBinAddr: 0x100005AC0, symSize: 0x180 }
  - { offsetInCU: 0xD16D, offset: 0xD16D, size: 0x8, addend: 0x0, symName: __ZNSt3__111__wrap_iterIPKcEC1B7v160006EPKvS2_, symObjAddr: 0x5230, symBinAddr: 0x100005C40, symSize: 0x30 }
  - { offsetInCU: 0xD1B3, offset: 0xD1B3, size: 0x8, addend: 0x0, symName: __ZNSt3__111__wrap_iterIPKcEC2B7v160006EPKvS2_, symObjAddr: 0x5260, symBinAddr: 0x100005C70, symSize: 0x60 }
  - { offsetInCU: 0xD1F9, offset: 0xD1F9, size: 0x8, addend: 0x0, symName: __ZNKSt3__111__wrap_iterIPKcE4baseB7v160006Ev, symObjAddr: 0x5300, symBinAddr: 0x100005D10, symSize: 0x50 }
  - { offsetInCU: 0xD21F, offset: 0xD21F, size: 0x8, addend: 0x0, symName: __ZNSt3__111char_traitsIcE6lengthEPKc, symObjAddr: 0x5AA0, symBinAddr: 0x1000064B0, symSize: 0x40 }
  - { offsetInCU: 0xD260, offset: 0xD260, size: 0x8, addend: 0x0, symName: __ZNKSt3__113basic_ostreamIcNS_11char_traitsIcEEE6sentrycvbB7v160006Ev, symObjAddr: 0x5AE0, symBinAddr: 0x1000064F0, symSize: 0x70 }
  - { offsetInCU: 0xD286, offset: 0xD286, size: 0x8, addend: 0x0, symName: __ZNSt3__119ostreambuf_iteratorIcNS_11char_traitsIcEEEC1B7v160006ERNS_13basic_ostreamIcS2_EE, symObjAddr: 0x6230, symBinAddr: 0x100006C40, symSize: 0x30 }
  - { offsetInCU: 0xD2BE, offset: 0xD2BE, size: 0x8, addend: 0x0, symName: __ZNKSt3__18ios_base5flagsB7v160006Ev, symObjAddr: 0x6260, symBinAddr: 0x100006C70, symSize: 0x70 }
  - { offsetInCU: 0xD2E6, offset: 0xD2E6, size: 0x8, addend: 0x0, symName: __ZNKSt3__19basic_iosIcNS_11char_traitsIcEEE4fillB7v160006Ev, symObjAddr: 0x62D0, symBinAddr: 0x100006CE0, symSize: 0x160 }
  - { offsetInCU: 0xD30E, offset: 0xD30E, size: 0x8, addend: 0x0, symName: __ZNKSt3__119ostreambuf_iteratorIcNS_11char_traitsIcEEE6failedB7v160006Ev, symObjAddr: 0x6430, symBinAddr: 0x100006E40, symSize: 0x50 }
  - { offsetInCU: 0xD334, offset: 0xD334, size: 0x8, addend: 0x0, symName: __ZNSt3__19basic_iosIcNS_11char_traitsIcEEE8setstateB7v160006Ej, symObjAddr: 0x6480, symBinAddr: 0x100006E90, symSize: 0x30 }
  - { offsetInCU: 0xD369, offset: 0xD369, size: 0x8, addend: 0x0, symName: __ZNKSt3__18ios_base5widthB7v160006Ev, symObjAddr: 0x64C0, symBinAddr: 0x100006ED0, symSize: 0x50 }
  - { offsetInCU: 0xD391, offset: 0xD391, size: 0x8, addend: 0x0, symName: __ZNSt3__115basic_streambufIcNS_11char_traitsIcEEE5sputnB7v160006EPKcl, symObjAddr: 0x6510, symBinAddr: 0x100006F20, symSize: 0xA0 }
  - { offsetInCU: 0xD3D3, offset: 0xD3D3, size: 0x8, addend: 0x0, symName: __ZNSt3__112basic_stringIcNS_11char_traitsIcEENS_9allocatorIcEEEC1B7v160006Emc, symObjAddr: 0x65B0, symBinAddr: 0x100006FC0, symSize: 0x30 }
  - { offsetInCU: 0xD41B, offset: 0xD41B, size: 0x8, addend: 0x0, symName: __ZNKSt3__112basic_stringIcNS_11char_traitsIcEENS_9allocatorIcEEE4dataB7v160006Ev, symObjAddr: 0x65E0, symBinAddr: 0x100006FF0, symSize: 0x30 }
  - { offsetInCU: 0xD441, offset: 0xD441, size: 0x8, addend: 0x0, symName: __ZNSt3__18ios_base5widthB7v160006El, symObjAddr: 0x6610, symBinAddr: 0x100007020, symSize: 0xA0 }
  - { offsetInCU: 0xD487, offset: 0xD487, size: 0x8, addend: 0x0, symName: __ZNSt3__112basic_stringIcNS_11char_traitsIcEENS_9allocatorIcEEEC2B7v160006Emc, symObjAddr: 0x66B0, symBinAddr: 0x1000070C0, symSize: 0x180 }
  - { offsetInCU: 0xD4D7, offset: 0xD4D7, size: 0x8, addend: 0x0, symName: __ZNSt3__117__compressed_pairINS_12basic_stringIcNS_11char_traitsIcEENS_9allocatorIcEEE5__repES5_EC1B7v160006INS_18__default_init_tagESA_EEOT_OT0_, symObjAddr: 0x6830, symBinAddr: 0x100007240, symSize: 0x30 }
  - { offsetInCU: 0xD52F, offset: 0xD52F, size: 0x8, addend: 0x0, symName: __ZNSt3__117__compressed_pairINS_12basic_stringIcNS_11char_traitsIcEENS_9allocatorIcEEE5__repES5_EC2B7v160006INS_18__default_init_tagESA_EEOT_OT0_, symObjAddr: 0x6870, symBinAddr: 0x100007280, symSize: 0x30 }
  - { offsetInCU: 0xD587, offset: 0xD587, size: 0x8, addend: 0x0, symName: __ZNSt3__122__compressed_pair_elemINS_12basic_stringIcNS_11char_traitsIcEENS_9allocatorIcEEE5__repELi0ELb0EEC2B7v160006ENS_18__default_init_tagE, symObjAddr: 0x68A0, symBinAddr: 0x1000072B0, symSize: 0x10 }
  - { offsetInCU: 0xD5BB, offset: 0xD5BB, size: 0x8, addend: 0x0, symName: __ZNSt3__122__compressed_pair_elemINS_9allocatorIcEELi1ELb1EEC2B7v160006ENS_18__default_init_tagE, symObjAddr: 0x68B0, symBinAddr: 0x1000072C0, symSize: 0x20 }
  - { offsetInCU: 0xD5EF, offset: 0xD5EF, size: 0x8, addend: 0x0, symName: __ZNSt3__19allocatorIcEC2B7v160006Ev, symObjAddr: 0x68D0, symBinAddr: 0x1000072E0, symSize: 0x20 }
  - { offsetInCU: 0xD619, offset: 0xD619, size: 0x8, addend: 0x0, symName: __ZNSt3__116__non_trivial_ifILb1ENS_9allocatorIcEEEC2B7v160006Ev, symObjAddr: 0x68F0, symBinAddr: 0x100007300, symSize: 0x10 }
  - { offsetInCU: 0xD643, offset: 0xD643, size: 0x8, addend: 0x0, symName: __ZNKSt3__112basic_stringIcNS_11char_traitsIcEENS_9allocatorIcEEE13__get_pointerB7v160006Ev, symObjAddr: 0x6910, symBinAddr: 0x100007320, symSize: 0x50 }
  - { offsetInCU: 0xD669, offset: 0xD669, size: 0x8, addend: 0x0, symName: __ZNKSt3__112basic_stringIcNS_11char_traitsIcEENS_9allocatorIcEEE9__is_longB7v160006Ev, symObjAddr: 0x6960, symBinAddr: 0x100007370, symSize: 0x70 }
  - { offsetInCU: 0xD68F, offset: 0xD68F, size: 0x8, addend: 0x0, symName: __ZNKSt3__112basic_stringIcNS_11char_traitsIcEENS_9allocatorIcEEE18__get_long_pointerB7v160006Ev, symObjAddr: 0x69D0, symBinAddr: 0x1000073E0, symSize: 0x50 }
  - { offsetInCU: 0xD6B5, offset: 0xD6B5, size: 0x8, addend: 0x0, symName: __ZNKSt3__112basic_stringIcNS_11char_traitsIcEENS_9allocatorIcEEE19__get_short_pointerB7v160006Ev, symObjAddr: 0x6A20, symBinAddr: 0x100007430, symSize: 0x30 }
  - { offsetInCU: 0xD6DB, offset: 0xD6DB, size: 0x8, addend: 0x0, symName: __ZNKSt3__117__compressed_pairINS_12basic_stringIcNS_11char_traitsIcEENS_9allocatorIcEEE5__repES5_E5firstB7v160006Ev, symObjAddr: 0x6A50, symBinAddr: 0x100007460, symSize: 0x20 }
  - { offsetInCU: 0xD701, offset: 0xD701, size: 0x8, addend: 0x0, symName: __ZNKSt3__122__compressed_pair_elemINS_12basic_stringIcNS_11char_traitsIcEENS_9allocatorIcEEE5__repELi0ELb0EE5__getB7v160006Ev, symObjAddr: 0x6A70, symBinAddr: 0x100007480, symSize: 0x10 }
  - { offsetInCU: 0xD727, offset: 0xD727, size: 0x8, addend: 0x0, symName: __ZNSt3__114pointer_traitsIPKcE10pointer_toB7v160006ERS1_, symObjAddr: 0x6A80, symBinAddr: 0x100007490, symSize: 0x10 }
  - { offsetInCU: 0xD74A, offset: 0xD74A, size: 0x8, addend: 0x0, symName: __ZNSt3__119ostreambuf_iteratorIcNS_11char_traitsIcEEEC2B7v160006ERNS_13basic_ostreamIcS2_EE, symObjAddr: 0x6A90, symBinAddr: 0x1000074A0, symSize: 0xF0 }
  - { offsetInCU: 0xD782, offset: 0xD782, size: 0x8, addend: 0x0, symName: __ZNKSt3__19basic_iosIcNS_11char_traitsIcEEE5rdbufB7v160006Ev, symObjAddr: 0x6B80, symBinAddr: 0x100007590, symSize: 0x20 }
  - { offsetInCU: 0xD7AA, offset: 0xD7AA, size: 0x8, addend: 0x0, symName: __ZNKSt3__18ios_base5rdbufB7v160006Ev, symObjAddr: 0x6BA0, symBinAddr: 0x1000075B0, symSize: 0x50 }
  - { offsetInCU: 0xD7D0, offset: 0xD7D0, size: 0x8, addend: 0x0, symName: __ZNSt3__111char_traitsIcE11eq_int_typeEii, symObjAddr: 0x6BF0, symBinAddr: 0x100007600, symSize: 0x20 }
  - { offsetInCU: 0xD801, offset: 0xD801, size: 0x8, addend: 0x0, symName: __ZNSt3__111char_traitsIcE3eofEv, symObjAddr: 0x6C10, symBinAddr: 0x100007620, symSize: 0x10 }
  - { offsetInCU: 0xD815, offset: 0xD815, size: 0x8, addend: 0x0, symName: __ZNKSt3__19basic_iosIcNS_11char_traitsIcEEE5widenB7v160006Ec, symObjAddr: 0x6C20, symBinAddr: 0x100007630, symSize: 0x200 }
  - { offsetInCU: 0xD885, offset: 0xD885, size: 0x8, addend: 0x0, symName: __ZNKSt3__15ctypeIcE5widenB7v160006Ec, symObjAddr: 0x6E50, symBinAddr: 0x100007860, symSize: 0xA0 }
  - { offsetInCU: 0xD8BA, offset: 0xD8BA, size: 0x8, addend: 0x0, symName: __ZNSt3__18ios_base8setstateB7v160006Ej, symObjAddr: 0x6EF0, symBinAddr: 0x100007900, symSize: 0x80 }
  - { offsetInCU: 0xD8F1, offset: 0xD8F1, size: 0x8, addend: 0x0, symName: __ZNSt3__16vectorINS0_IcNS_9allocatorIcEEEENS1_IS3_EEEC2B7v160006Ev, symObjAddr: 0x6F90, symBinAddr: 0x1000079A0, symSize: 0x260 }
  - { offsetInCU: 0xD921, offset: 0xD921, size: 0x8, addend: 0x0, symName: __ZNSt3__117__compressed_pairIPNS_6vectorIcNS_9allocatorIcEEEENS2_IS4_EEEC1B7v160006IDnNS_18__default_init_tagEEEOT_OT0_, symObjAddr: 0x71F0, symBinAddr: 0x100007C00, symSize: 0x30 }
  - { offsetInCU: 0xD979, offset: 0xD979, size: 0x8, addend: 0x0, symName: __ZNSt3__117__compressed_pairIPNS_6vectorIcNS_9allocatorIcEEEENS2_IS4_EEEC2B7v160006IDnNS_18__default_init_tagEEEOT_OT0_, symObjAddr: 0x7230, symBinAddr: 0x100007C40, symSize: 0x40 }
  - { offsetInCU: 0xD9D1, offset: 0xD9D1, size: 0x8, addend: 0x0, symName: __ZNSt3__122__compressed_pair_elemIPNS_6vectorIcNS_9allocatorIcEEEELi0ELb0EEC2B7v160006IDnvEEOT_, symObjAddr: 0x7270, symBinAddr: 0x100007C80, symSize: 0x50 }
  - { offsetInCU: 0xDA13, offset: 0xDA13, size: 0x8, addend: 0x0, symName: __ZNSt3__122__compressed_pair_elemINS_9allocatorINS_6vectorIcNS1_IcEEEEEELi1ELb1EEC2B7v160006ENS_18__default_init_tagE, symObjAddr: 0x72C0, symBinAddr: 0x100007CD0, symSize: 0x20 }
  - { offsetInCU: 0xDA47, offset: 0xDA47, size: 0x8, addend: 0x0, symName: __ZNSt3__19allocatorINS_6vectorIcNS0_IcEEEEEC2B7v160006Ev, symObjAddr: 0x72E0, symBinAddr: 0x100007CF0, symSize: 0x20 }
  - { offsetInCU: 0xDA71, offset: 0xDA71, size: 0x8, addend: 0x0, symName: __ZNSt3__116__non_trivial_ifILb1ENS_9allocatorINS_6vectorIcNS1_IcEEEEEEEC2B7v160006Ev, symObjAddr: 0x7300, symBinAddr: 0x100007D10, symSize: 0x10 }
  - { offsetInCU: 0xDA9B, offset: 0xDA9B, size: 0x8, addend: 0x0, symName: __ZNSt3__16vectorINS0_IcNS_9allocatorIcEEEENS1_IS3_EEED2B7v160006Ev, symObjAddr: 0x7310, symBinAddr: 0x100007D20, symSize: 0x170 }
  - { offsetInCU: 0xDAC6, offset: 0xDAC6, size: 0x8, addend: 0x0, symName: __ZNSt3__16vectorINS0_IcNS_9allocatorIcEEEENS1_IS3_EEE16__destroy_vectorC1ERS5_, symObjAddr: 0x7480, symBinAddr: 0x100007E90, symSize: 0x30 }
  - { offsetInCU: 0xDAFF, offset: 0xDAFF, size: 0x8, addend: 0x0, symName: __ZNSt3__16vectorINS0_IcNS_9allocatorIcEEEENS1_IS3_EEE16__destroy_vectorclB7v160006Ev, symObjAddr: 0x74B0, symBinAddr: 0x100007EC0, symSize: 0x210 }
  - { offsetInCU: 0xDB25, offset: 0xDB25, size: 0x8, addend: 0x0, symName: __ZNSt3__16vectorINS0_IcNS_9allocatorIcEEEENS1_IS3_EEE16__destroy_vectorC2ERS5_, symObjAddr: 0x76C0, symBinAddr: 0x1000080D0, symSize: 0x60 }
  - { offsetInCU: 0xDB5E, offset: 0xDB5E, size: 0x8, addend: 0x0, symName: __ZNKSt3__16vectorINS0_IcNS_9allocatorIcEEEENS1_IS3_EEE17__annotate_deleteB7v160006Ev, symObjAddr: 0x7720, symBinAddr: 0x100008130, symSize: 0xD0 }
  - { offsetInCU: 0xDB84, offset: 0xDB84, size: 0x8, addend: 0x0, symName: __ZNSt3__16vectorINS0_IcNS_9allocatorIcEEEENS1_IS3_EEE7__clearB7v160006Ev, symObjAddr: 0x7800, symBinAddr: 0x100008210, symSize: 0x50 }
  - { offsetInCU: 0xDBAA, offset: 0xDBAA, size: 0x8, addend: 0x0, symName: __ZNSt3__116allocator_traitsINS_9allocatorINS_6vectorIcNS1_IcEEEEEEE10deallocateB7v160006ERS5_PS4_m, symObjAddr: 0x7850, symBinAddr: 0x100008260, symSize: 0x30 }
  - { offsetInCU: 0xDBEC, offset: 0xDBEC, size: 0x8, addend: 0x0, symName: __ZNSt3__16vectorINS0_IcNS_9allocatorIcEEEENS1_IS3_EEE7__allocB7v160006Ev, symObjAddr: 0x7880, symBinAddr: 0x100008290, symSize: 0x20 }
  - { offsetInCU: 0xDC12, offset: 0xDC12, size: 0x8, addend: 0x0, symName: __ZNKSt3__16vectorINS0_IcNS_9allocatorIcEEEENS1_IS3_EEE8capacityB7v160006Ev, symObjAddr: 0x78A0, symBinAddr: 0x1000082B0, symSize: 0xA0 }
  - { offsetInCU: 0xDC38, offset: 0xDC38, size: 0x8, addend: 0x0, symName: __ZNKSt3__16vectorINS0_IcNS_9allocatorIcEEEENS1_IS3_EEE31__annotate_contiguous_containerEPKvS7_S7_S7_, symObjAddr: 0x7940, symBinAddr: 0x100008350, symSize: 0x50 }
  - { offsetInCU: 0xDC9A, offset: 0xDC9A, size: 0x8, addend: 0x0, symName: __ZNKSt3__16vectorINS0_IcNS_9allocatorIcEEEENS1_IS3_EEE4dataB7v160006Ev, symObjAddr: 0x7990, symBinAddr: 0x1000083A0, symSize: 0x50 }
  - { offsetInCU: 0xDCC0, offset: 0xDCC0, size: 0x8, addend: 0x0, symName: __ZNKSt3__16vectorINS0_IcNS_9allocatorIcEEEENS1_IS3_EEE4sizeB7v160006Ev, symObjAddr: 0x79E0, symBinAddr: 0x1000083F0, symSize: 0xA0 }
  - { offsetInCU: 0xDCE6, offset: 0xDCE6, size: 0x8, addend: 0x0, symName: __ZNSt3__16vectorINS0_IcNS_9allocatorIcEEEENS1_IS3_EEE22__base_destruct_at_endB7v160006EPS3_, symObjAddr: 0x7A90, symBinAddr: 0x1000084A0, symSize: 0xF0 }
  - { offsetInCU: 0xDD2A, offset: 0xDD2A, size: 0x8, addend: 0x0, symName: __ZNSt3__116allocator_traitsINS_9allocatorINS_6vectorIcNS1_IcEEEEEEE7destroyB7v160006IS4_vEEvRS5_PT_, symObjAddr: 0x7B80, symBinAddr: 0x100008590, symSize: 0x30 }
  - { offsetInCU: 0xDD67, offset: 0xDD67, size: 0x8, addend: 0x0, symName: __ZNSt3__19allocatorINS_6vectorIcNS0_IcEEEEE7destroyB7v160006EPS3_, symObjAddr: 0x7BB0, symBinAddr: 0x1000085C0, symSize: 0x20 }
  - { offsetInCU: 0xDD9B, offset: 0xDD9B, size: 0x8, addend: 0x0, symName: __ZNSt3__19allocatorINS_6vectorIcNS0_IcEEEEE10deallocateB7v160006EPS3_m, symObjAddr: 0x7BD0, symBinAddr: 0x1000085E0, symSize: 0x50 }
  - { offsetInCU: 0xDDDD, offset: 0xDDDD, size: 0x8, addend: 0x0, symName: __ZNSt3__117__compressed_pairIPNS_6vectorIcNS_9allocatorIcEEEENS2_IS4_EEE6secondB7v160006Ev, symObjAddr: 0x7C90, symBinAddr: 0x1000086A0, symSize: 0x20 }
  - { offsetInCU: 0xDE03, offset: 0xDE03, size: 0x8, addend: 0x0, symName: __ZNSt3__122__compressed_pair_elemINS_9allocatorINS_6vectorIcNS1_IcEEEEEELi1ELb1EE5__getB7v160006Ev, symObjAddr: 0x7CB0, symBinAddr: 0x1000086C0, symSize: 0x10 }
  - { offsetInCU: 0xDE29, offset: 0xDE29, size: 0x8, addend: 0x0, symName: __ZNKSt3__16vectorINS0_IcNS_9allocatorIcEEEENS1_IS3_EEE9__end_capB7v160006Ev, symObjAddr: 0x7CC0, symBinAddr: 0x1000086D0, symSize: 0x20 }
  - { offsetInCU: 0xDE4F, offset: 0xDE4F, size: 0x8, addend: 0x0, symName: __ZNKSt3__117__compressed_pairIPNS_6vectorIcNS_9allocatorIcEEEENS2_IS4_EEE5firstB7v160006Ev, symObjAddr: 0x7CE0, symBinAddr: 0x1000086F0, symSize: 0x20 }
  - { offsetInCU: 0xDE75, offset: 0xDE75, size: 0x8, addend: 0x0, symName: __ZNKSt3__122__compressed_pair_elemIPNS_6vectorIcNS_9allocatorIcEEEELi0ELb0EE5__getB7v160006Ev, symObjAddr: 0x7D00, symBinAddr: 0x100008710, symSize: 0x10 }
  - { offsetInCU: 0xDE9B, offset: 0xDE9B, size: 0x8, addend: 0x0, symName: __ZNSt3__16vectorIcNS_9allocatorIcEEED2B7v160006Ev, symObjAddr: 0x7D10, symBinAddr: 0x100008720, symSize: 0x170 }
  - { offsetInCU: 0xDEC6, offset: 0xDEC6, size: 0x8, addend: 0x0, symName: __ZNSt3__16vectorIcNS_9allocatorIcEEE16__destroy_vectorC1ERS3_, symObjAddr: 0x7E80, symBinAddr: 0x100008890, symSize: 0x30 }
  - { offsetInCU: 0xDEFF, offset: 0xDEFF, size: 0x8, addend: 0x0, symName: __ZNSt3__16vectorIcNS_9allocatorIcEEE16__destroy_vectorclB7v160006Ev, symObjAddr: 0x7EB0, symBinAddr: 0x1000088C0, symSize: 0x210 }
  - { offsetInCU: 0xDF25, offset: 0xDF25, size: 0x8, addend: 0x0, symName: __ZNSt3__16vectorIcNS_9allocatorIcEEE16__destroy_vectorC2ERS3_, symObjAddr: 0x80C0, symBinAddr: 0x100008AD0, symSize: 0x60 }
  - { offsetInCU: 0xDF5E, offset: 0xDF5E, size: 0x8, addend: 0x0, symName: __ZNKSt3__16vectorIcNS_9allocatorIcEEE17__annotate_deleteB7v160006Ev, symObjAddr: 0x8120, symBinAddr: 0x100008B30, symSize: 0xC0 }
  - { offsetInCU: 0xDF84, offset: 0xDF84, size: 0x8, addend: 0x0, symName: __ZNSt3__16vectorIcNS_9allocatorIcEEE7__clearB7v160006Ev, symObjAddr: 0x81F0, symBinAddr: 0x100008C00, symSize: 0x50 }
  - { offsetInCU: 0xDFAA, offset: 0xDFAA, size: 0x8, addend: 0x0, symName: __ZNSt3__116allocator_traitsINS_9allocatorIcEEE10deallocateB7v160006ERS2_Pcm, symObjAddr: 0x8240, symBinAddr: 0x100008C50, symSize: 0x30 }
  - { offsetInCU: 0xDFEC, offset: 0xDFEC, size: 0x8, addend: 0x0, symName: __ZNSt3__16vectorIcNS_9allocatorIcEEE7__allocB7v160006Ev, symObjAddr: 0x8270, symBinAddr: 0x100008C80, symSize: 0x20 }
  - { offsetInCU: 0xE012, offset: 0xE012, size: 0x8, addend: 0x0, symName: __ZNKSt3__16vectorIcNS_9allocatorIcEEE8capacityB7v160006Ev, symObjAddr: 0x8290, symBinAddr: 0x100008CA0, symSize: 0x90 }
  - { offsetInCU: 0xE038, offset: 0xE038, size: 0x8, addend: 0x0, symName: __ZNKSt3__16vectorIcNS_9allocatorIcEEE31__annotate_contiguous_containerEPKvS5_S5_S5_, symObjAddr: 0x8320, symBinAddr: 0x100008D30, symSize: 0x50 }
  - { offsetInCU: 0xE09A, offset: 0xE09A, size: 0x8, addend: 0x0, symName: __ZNKSt3__16vectorIcNS_9allocatorIcEEE4dataB7v160006Ev, symObjAddr: 0x8370, symBinAddr: 0x100008D80, symSize: 0x50 }
  - { offsetInCU: 0xE0C0, offset: 0xE0C0, size: 0x8, addend: 0x0, symName: __ZNKSt3__16vectorIcNS_9allocatorIcEEE4sizeB7v160006Ev, symObjAddr: 0x83C0, symBinAddr: 0x100008DD0, symSize: 0x90 }
  - { offsetInCU: 0xE0E6, offset: 0xE0E6, size: 0x8, addend: 0x0, symName: __ZNSt3__16vectorIcNS_9allocatorIcEEE22__base_destruct_at_endB7v160006EPc, symObjAddr: 0x8460, symBinAddr: 0x100008E70, symSize: 0xF0 }
  - { offsetInCU: 0xE12A, offset: 0xE12A, size: 0x8, addend: 0x0, symName: __ZNSt3__116allocator_traitsINS_9allocatorIcEEE7destroyB7v160006IcvEEvRS2_PT_, symObjAddr: 0x8550, symBinAddr: 0x100008F60, symSize: 0x30 }
  - { offsetInCU: 0xE167, offset: 0xE167, size: 0x8, addend: 0x0, symName: __ZNSt3__19allocatorIcE7destroyB7v160006EPc, symObjAddr: 0x8580, symBinAddr: 0x100008F90, symSize: 0x10 }
  - { offsetInCU: 0xE19B, offset: 0xE19B, size: 0x8, addend: 0x0, symName: __ZNSt3__19allocatorIcE10deallocateB7v160006EPcm, symObjAddr: 0x8590, symBinAddr: 0x100008FA0, symSize: 0x50 }
  - { offsetInCU: 0xE1DD, offset: 0xE1DD, size: 0x8, addend: 0x0, symName: __ZNSt3__117__compressed_pairIPcNS_9allocatorIcEEE6secondB7v160006Ev, symObjAddr: 0x85E0, symBinAddr: 0x100008FF0, symSize: 0x20 }
  - { offsetInCU: 0xE203, offset: 0xE203, size: 0x8, addend: 0x0, symName: __ZNSt3__122__compressed_pair_elemINS_9allocatorIcEELi1ELb1EE5__getB7v160006Ev, symObjAddr: 0x8600, symBinAddr: 0x100009010, symSize: 0x10 }
  - { offsetInCU: 0xE229, offset: 0xE229, size: 0x8, addend: 0x0, symName: __ZNKSt3__16vectorIcNS_9allocatorIcEEE9__end_capB7v160006Ev, symObjAddr: 0x8610, symBinAddr: 0x100009020, symSize: 0x20 }
  - { offsetInCU: 0xE24F, offset: 0xE24F, size: 0x8, addend: 0x0, symName: __ZNKSt3__117__compressed_pairIPcNS_9allocatorIcEEE5firstB7v160006Ev, symObjAddr: 0x8630, symBinAddr: 0x100009040, symSize: 0x20 }
  - { offsetInCU: 0xE275, offset: 0xE275, size: 0x8, addend: 0x0, symName: __ZNKSt3__122__compressed_pair_elemIPcLi0ELb0EE5__getB7v160006Ev, symObjAddr: 0x8650, symBinAddr: 0x100009060, symSize: 0x10 }
  - { offsetInCU: 0xE29B, offset: 0xE29B, size: 0x8, addend: 0x0, symName: __ZNSt3__16vectorIcNS_9allocatorIcEEEC2B7v160006ESt16initializer_listIcE, symObjAddr: 0x8660, symBinAddr: 0x100009070, symSize: 0x4E0 }
  - { offsetInCU: 0xE2F4, offset: 0xE2F4, size: 0x8, addend: 0x0, symName: __ZNSt3__117__compressed_pairIPcNS_9allocatorIcEEEC1B7v160006IDnNS_18__default_init_tagEEEOT_OT0_, symObjAddr: 0x8B40, symBinAddr: 0x100009550, symSize: 0x30 }
  - { offsetInCU: 0xE34C, offset: 0xE34C, size: 0x8, addend: 0x0, symName: __ZNKSt16initializer_listIcE4sizeB7v160006Ev, symObjAddr: 0x8D70, symBinAddr: 0x100009780, symSize: 0x50 }
  - { offsetInCU: 0xE372, offset: 0xE372, size: 0x8, addend: 0x0, symName: __ZNSt3__16vectorIcNS_9allocatorIcEEE11__vallocateB7v160006Em, symObjAddr: 0x8DC0, symBinAddr: 0x1000097D0, symSize: 0x400 }
  - { offsetInCU: 0xE3BC, offset: 0xE3BC, size: 0x8, addend: 0x0, symName: __ZNSt3__16vectorIcNS_9allocatorIcEEE18__construct_at_endIPKcLi0EEEvT_S7_m, symObjAddr: 0x91C0, symBinAddr: 0x100009BD0, symSize: 0x300 }
  - { offsetInCU: 0xE437, offset: 0xE437, size: 0x8, addend: 0x0, symName: __ZNKSt16initializer_listIcE5beginB7v160006Ev, symObjAddr: 0x94C0, symBinAddr: 0x100009ED0, symSize: 0x50 }
  - { offsetInCU: 0xE45D, offset: 0xE45D, size: 0x8, addend: 0x0, symName: __ZNKSt16initializer_listIcE3endB7v160006Ev, symObjAddr: 0x9510, symBinAddr: 0x100009F20, symSize: 0x90 }
  - { offsetInCU: 0xE483, offset: 0xE483, size: 0x8, addend: 0x0, symName: __ZNSt3__128__exception_guard_exceptionsINS_6vectorIcNS_9allocatorIcEEE16__destroy_vectorEE10__completeB7v160006Ev, symObjAddr: 0x95A0, symBinAddr: 0x100009FB0, symSize: 0x70 }
  - { offsetInCU: 0xE4A9, offset: 0xE4A9, size: 0x8, addend: 0x0, symName: __ZNSt3__128__exception_guard_exceptionsINS_6vectorIcNS_9allocatorIcEEE16__destroy_vectorEED1B7v160006Ev, symObjAddr: 0x9610, symBinAddr: 0x10000A020, symSize: 0x20 }
  - { offsetInCU: 0xE4D3, offset: 0xE4D3, size: 0x8, addend: 0x0, symName: __ZNSt3__117__compressed_pairIPcNS_9allocatorIcEEEC2B7v160006IDnNS_18__default_init_tagEEEOT_OT0_, symObjAddr: 0x9630, symBinAddr: 0x10000A040, symSize: 0x40 }
  - { offsetInCU: 0xE52B, offset: 0xE52B, size: 0x8, addend: 0x0, symName: __ZNSt3__122__compressed_pair_elemIPcLi0ELb0EEC2B7v160006IDnvEEOT_, symObjAddr: 0x9670, symBinAddr: 0x10000A080, symSize: 0x50 }
  - { offsetInCU: 0xE56D, offset: 0xE56D, size: 0x8, addend: 0x0, symName: __ZNSt3__128__exception_guard_exceptionsINS_6vectorIcNS_9allocatorIcEEE16__destroy_vectorEEC1B7v160006ES5_, symObjAddr: 0x96C0, symBinAddr: 0x10000A0D0, symSize: 0x1B0 }
  - { offsetInCU: 0xE5AA, offset: 0xE5AA, size: 0x8, addend: 0x0, symName: __ZNSt3__128__exception_guard_exceptionsINS_6vectorIcNS_9allocatorIcEEE16__destroy_vectorEEC2B7v160006ES5_, symObjAddr: 0x9870, symBinAddr: 0x10000A280, symSize: 0x1E0 }
  - { offsetInCU: 0xE5E7, offset: 0xE5E7, size: 0x8, addend: 0x0, symName: __ZNKSt3__16vectorIcNS_9allocatorIcEEE8max_sizeEv, symObjAddr: 0x9A50, symBinAddr: 0x10000A460, symSize: 0x260 }
  - { offsetInCU: 0xE610, offset: 0xE610, size: 0x8, addend: 0x0, symName: __ZNKSt3__16vectorIcNS_9allocatorIcEEE20__throw_length_errorB7v160006Ev, symObjAddr: 0x9CB0, symBinAddr: 0x10000A6C0, symSize: 0x20 }
  - { offsetInCU: 0xE636, offset: 0xE636, size: 0x8, addend: 0x0, symName: __ZNSt3__16vectorIcNS_9allocatorIcEEE9__end_capB7v160006Ev, symObjAddr: 0x9EE0, symBinAddr: 0x10000A8F0, symSize: 0x20 }
  - { offsetInCU: 0xE65C, offset: 0xE65C, size: 0x8, addend: 0x0, symName: __ZNKSt3__16vectorIcNS_9allocatorIcEEE14__annotate_newB7v160006Em, symObjAddr: 0x9F00, symBinAddr: 0x10000A910, symSize: 0xB0 }
  - { offsetInCU: 0xE69B, offset: 0xE69B, size: 0x8, addend: 0x0, symName: __ZNSt3__116allocator_traitsINS_9allocatorIcEEE8max_sizeB7v160006IS2_vEEmRKS2_, symObjAddr: 0x9FE0, symBinAddr: 0x10000A9F0, symSize: 0x20 }
  - { offsetInCU: 0xE6C9, offset: 0xE6C9, size: 0x8, addend: 0x0, symName: __ZNKSt3__16vectorIcNS_9allocatorIcEEE7__allocB7v160006Ev, symObjAddr: 0xA000, symBinAddr: 0x10000AA10, symSize: 0x20 }
  - { offsetInCU: 0xE6EF, offset: 0xE6EF, size: 0x8, addend: 0x0, symName: __ZNSt3__114numeric_limitsIlE3maxB7v160006Ev, symObjAddr: 0xA020, symBinAddr: 0x10000AA30, symSize: 0x10 }
  - { offsetInCU: 0xE717, offset: 0xE717, size: 0x8, addend: 0x0, symName: __ZNKSt3__16__lessImmEclB7v160006ERKmS3_, symObjAddr: 0xA1A0, symBinAddr: 0x10000ABB0, symSize: 0xA0 }
  - { offsetInCU: 0xE759, offset: 0xE759, size: 0x8, addend: 0x0, symName: __ZNKSt3__19allocatorIcE8max_sizeB7v160006Ev, symObjAddr: 0xA240, symBinAddr: 0x10000AC50, symSize: 0x20 }
  - { offsetInCU: 0xE77F, offset: 0xE77F, size: 0x8, addend: 0x0, symName: __ZNKSt3__117__compressed_pairIPcNS_9allocatorIcEEE6secondB7v160006Ev, symObjAddr: 0xA260, symBinAddr: 0x10000AC70, symSize: 0x20 }
  - { offsetInCU: 0xE7A5, offset: 0xE7A5, size: 0x8, addend: 0x0, symName: __ZNKSt3__122__compressed_pair_elemINS_9allocatorIcEELi1ELb1EE5__getB7v160006Ev, symObjAddr: 0xA280, symBinAddr: 0x10000AC90, symSize: 0x10 }
  - { offsetInCU: 0xE7CB, offset: 0xE7CB, size: 0x8, addend: 0x0, symName: __ZNSt3__123__libcpp_numeric_limitsIlLb1EE3maxB7v160006Ev, symObjAddr: 0xA290, symBinAddr: 0x10000ACA0, symSize: 0x10 }
  - { offsetInCU: 0xE7DF, offset: 0xE7DF, size: 0x8, addend: 0x0, symName: __ZNSt12length_errorC1B7v160006EPKc, symObjAddr: 0xA310, symBinAddr: 0x10000AD20, symSize: 0x30 }
  - { offsetInCU: 0xE817, offset: 0xE817, size: 0x8, addend: 0x0, symName: __ZNSt12length_errorC2B7v160006EPKc, symObjAddr: 0xA340, symBinAddr: 0x10000AD50, symSize: 0x70 }
  - { offsetInCU: 0xE84F, offset: 0xE84F, size: 0x8, addend: 0x0, symName: __ZNSt3__19allocatorIcE8allocateB7v160006Em, symObjAddr: 0xA3B0, symBinAddr: 0x10000ADC0, symSize: 0x60 }
  - { offsetInCU: 0xE883, offset: 0xE883, size: 0x8, addend: 0x0, symName: __ZNSt3__117__compressed_pairIPcNS_9allocatorIcEEE5firstB7v160006Ev, symObjAddr: 0xA490, symBinAddr: 0x10000AEA0, symSize: 0x20 }
  - { offsetInCU: 0xE8A9, offset: 0xE8A9, size: 0x8, addend: 0x0, symName: __ZNSt3__122__compressed_pair_elemIPcLi0ELb0EE5__getB7v160006Ev, symObjAddr: 0xA4B0, symBinAddr: 0x10000AEC0, symSize: 0x10 }
  - { offsetInCU: 0xE8E8, offset: 0xE8E8, size: 0x8, addend: 0x0, symName: __ZNSt3__16vectorIcNS_9allocatorIcEEE21_ConstructTransactionC1B7v160006ERS3_m, symObjAddr: 0xA4C0, symBinAddr: 0x10000AED0, symSize: 0x30 }
  - { offsetInCU: 0xE930, offset: 0xE930, size: 0x8, addend: 0x0, symName: __ZNSt3__16vectorIcNS_9allocatorIcEEE21_ConstructTransactionD1B7v160006Ev, symObjAddr: 0xA520, symBinAddr: 0x10000AF30, symSize: 0x20 }
  - { offsetInCU: 0xE95A, offset: 0xE95A, size: 0x8, addend: 0x0, symName: __ZNSt3__16vectorIcNS_9allocatorIcEEE21_ConstructTransactionC2B7v160006ERS3_m, symObjAddr: 0xA540, symBinAddr: 0x10000AF50, symSize: 0x190 }
  - { offsetInCU: 0xE9A2, offset: 0xE9A2, size: 0x8, addend: 0x0, symName: __ZNKSt3__16vectorIcNS_9allocatorIcEEE19__annotate_increaseB7v160006Em, symObjAddr: 0xA6D0, symBinAddr: 0x10000B0E0, symSize: 0xC0 }
  - { offsetInCU: 0xE9FA, offset: 0xE9FA, size: 0x8, addend: 0x0, symName: __ZNKSt3__114__copy_trivialclB7v160006IKccLi0EEENS_4pairIPT_PT0_EES5_S5_S7_, symObjAddr: 0xB720, symBinAddr: 0x10000C130, symSize: 0x210 }
  - { offsetInCU: 0xEA84, offset: 0xEA84, size: 0x8, addend: 0x0, symName: __ZNSt3__14pairIPKcS2_EC1B7v160006IS2_S2_LPv0EEEOT_OT0_, symObjAddr: 0xBD10, symBinAddr: 0x10000C720, symSize: 0x30 }
  - { offsetInCU: 0xEAE2, offset: 0xEAE2, size: 0x8, addend: 0x0, symName: __ZNSt3__14pairIPKcS2_EC2B7v160006IS2_S2_LPv0EEEOT_OT0_, symObjAddr: 0xBD40, symBinAddr: 0x10000C750, symSize: 0x110 }
  - { offsetInCU: 0xEB40, offset: 0xEB40, size: 0x8, addend: 0x0, symName: __ZNSt3__118__unwrap_iter_implIPKcLb1EE8__unwrapB7v160006ES2_, symObjAddr: 0xBE50, symBinAddr: 0x10000C860, symSize: 0x20 }
  - { offsetInCU: 0xEB6D, offset: 0xEB6D, size: 0x8, addend: 0x0, symName: __ZNSt3__14pairIPKcPcEC1B7v160006IRS2_S3_LPv0EEEOT_OT0_, symObjAddr: 0xC340, symBinAddr: 0x10000CD50, symSize: 0x30 }
  - { offsetInCU: 0xEBCB, offset: 0xEBCB, size: 0x8, addend: 0x0, symName: __ZNSt3__14pairIPKcPcEC2B7v160006IRS2_S3_LPv0EEEOT_OT0_, symObjAddr: 0xC370, symBinAddr: 0x10000CD80, symSize: 0x110 }
  - { offsetInCU: 0xEC29, offset: 0xEC29, size: 0x8, addend: 0x0, symName: __ZNSt3__118__unwrap_iter_implIPcLb1EE8__unwrapB7v160006ES1_, symObjAddr: 0xC480, symBinAddr: 0x10000CE90, symSize: 0x20 }
  - { offsetInCU: 0xEC4C, offset: 0xEC4C, size: 0x8, addend: 0x0, symName: __ZNSt3__14pairIPKcPcEC1B7v160006IS2_S3_LPv0EEEOT_OT0_, symObjAddr: 0xC4A0, symBinAddr: 0x10000CEB0, symSize: 0x30 }
  - { offsetInCU: 0xECAA, offset: 0xECAA, size: 0x8, addend: 0x0, symName: __ZNSt3__14pairIPKcPcEC2B7v160006IS2_S3_LPv0EEEOT_OT0_, symObjAddr: 0xC4D0, symBinAddr: 0x10000CEE0, symSize: 0x110 }
  - { offsetInCU: 0xED08, offset: 0xED08, size: 0x8, addend: 0x0, symName: __ZNSt3__118__unwrap_iter_implIPKcLb1EE8__rewrapB7v160006ES2_S2_, symObjAddr: 0xC630, symBinAddr: 0x10000D040, symSize: 0x40 }
  - { offsetInCU: 0xED39, offset: 0xED39, size: 0x8, addend: 0x0, symName: __ZNSt3__118__unwrap_iter_implIPcLb1EE8__rewrapB7v160006ES1_S1_, symObjAddr: 0xC670, symBinAddr: 0x10000D080, symSize: 0x40 }
  - { offsetInCU: 0xED6A, offset: 0xED6A, size: 0x8, addend: 0x0, symName: __ZNSt3__16vectorIcNS_9allocatorIcEEE21_ConstructTransactionD2B7v160006Ev, symObjAddr: 0xC6B0, symBinAddr: 0x10000D0C0, symSize: 0x220 }
  - { offsetInCU: 0xED94, offset: 0xED94, size: 0x8, addend: 0x0, symName: __ZNKSt3__16vectorIcNS_9allocatorIcEEE17__annotate_shrinkB7v160006Em, symObjAddr: 0xC8D0, symBinAddr: 0x10000D2E0, symSize: 0xB0 }
  - { offsetInCU: 0xEDC9, offset: 0xEDC9, size: 0x8, addend: 0x0, symName: __ZNSt3__128__exception_guard_exceptionsINS_6vectorIcNS_9allocatorIcEEE16__destroy_vectorEED2B7v160006Ev, symObjAddr: 0xC980, symBinAddr: 0x10000D390, symSize: 0x90 }
  - { offsetInCU: 0xEDF3, offset: 0xEDF3, size: 0x8, addend: 0x0, symName: __ZNSt3__16vectorINS0_IcNS_9allocatorIcEEEENS1_IS3_EEE6assignIPKS3_Li0EEEvT_S9_, symObjAddr: 0xCA10, symBinAddr: 0x10000D420, symSize: 0x3E0 }
  - { offsetInCU: 0xEE94, offset: 0xEE94, size: 0x8, addend: 0x0, symName: __ZNKSt16initializer_listINSt3__16vectorIcNS0_9allocatorIcEEEEE5beginB7v160006Ev, symObjAddr: 0xCDF0, symBinAddr: 0x10000D800, symSize: 0x50 }
  - { offsetInCU: 0xEEBA, offset: 0xEEBA, size: 0x8, addend: 0x0, symName: __ZNKSt16initializer_listINSt3__16vectorIcNS0_9allocatorIcEEEEE3endB7v160006Ev, symObjAddr: 0xCE40, symBinAddr: 0x10000D850, symSize: 0x90 }
  - { offsetInCU: 0xEEE0, offset: 0xEEE0, size: 0x8, addend: 0x0, symName: __ZNSt3__16vectorINS0_IcNS_9allocatorIcEEEENS1_IS3_EEE18__construct_at_endIPKS3_Li0EEEvT_S9_m, symObjAddr: 0xD170, symBinAddr: 0x10000DB80, symSize: 0x300 }
  - { offsetInCU: 0xEF5B, offset: 0xEF5B, size: 0x8, addend: 0x0, symName: __ZNSt3__16vectorINS0_IcNS_9allocatorIcEEEENS1_IS3_EEE17__destruct_at_endB7v160006EPS3_, symObjAddr: 0xD470, symBinAddr: 0x10000DE80, symSize: 0x70 }
  - { offsetInCU: 0xEF9F, offset: 0xEF9F, size: 0x8, addend: 0x0, symName: __ZNSt3__16vectorINS0_IcNS_9allocatorIcEEEENS1_IS3_EEE13__vdeallocateEv, symObjAddr: 0xD4E0, symBinAddr: 0x10000DEF0, symSize: 0x160 }
  - { offsetInCU: 0xEFC7, offset: 0xEFC7, size: 0x8, addend: 0x0, symName: __ZNSt3__16vectorINS0_IcNS_9allocatorIcEEEENS1_IS3_EEE11__vallocateB7v160006Em, symObjAddr: 0xD640, symBinAddr: 0x10000E050, symSize: 0x400 }
  - { offsetInCU: 0xF011, offset: 0xF011, size: 0x8, addend: 0x0, symName: __ZNKSt3__16vectorINS0_IcNS_9allocatorIcEEEENS1_IS3_EEE11__recommendB7v160006Em, symObjAddr: 0xDA40, symBinAddr: 0x10000E450, symSize: 0x2F0 }
  - { offsetInCU: 0xF090, offset: 0xF090, size: 0x8, addend: 0x0, symName: __ZNKSt3__111__copy_loopINS_17_ClassicAlgPolicyEEclB7v160006IPKNS_6vectorIcNS_9allocatorIcEEEES9_PS7_EENS_4pairIT_T1_EESC_T0_SD_, symObjAddr: 0xEB50, symBinAddr: 0x10000F560, symSize: 0x3F0 }
  - { offsetInCU: 0xF123, offset: 0xF123, size: 0x8, addend: 0x0, symName: __ZNSt3__14pairIPKNS_6vectorIcNS_9allocatorIcEEEES6_EC1B7v160006IS6_S6_LPv0EEEOT_OT0_, symObjAddr: 0xF320, symBinAddr: 0x10000FD30, symSize: 0x30 }
  - { offsetInCU: 0xF181, offset: 0xF181, size: 0x8, addend: 0x0, symName: __ZNSt3__14pairIPKNS_6vectorIcNS_9allocatorIcEEEES6_EC2B7v160006IS6_S6_LPv0EEEOT_OT0_, symObjAddr: 0xF350, symBinAddr: 0x10000FD60, symSize: 0x110 }
  - { offsetInCU: 0xF1DF, offset: 0xF1DF, size: 0x8, addend: 0x0, symName: __ZNSt3__118__unwrap_iter_implIPKNS_6vectorIcNS_9allocatorIcEEEELb1EE8__unwrapB7v160006ES6_, symObjAddr: 0xF460, symBinAddr: 0x10000FE70, symSize: 0x20 }
  - { offsetInCU: 0xF202, offset: 0xF202, size: 0x8, addend: 0x0, symName: __ZNSt3__16vectorIcNS_9allocatorIcEEEaSB7v160006ERKS3_, symObjAddr: 0xF490, symBinAddr: 0x10000FEA0, symSize: 0xC0 }
  - { offsetInCU: 0xF239, offset: 0xF239, size: 0x8, addend: 0x0, symName: __ZNSt3__16vectorIcNS_9allocatorIcEEE19__copy_assign_allocB7v160006ERKS3_, symObjAddr: 0xF550, symBinAddr: 0x10000FF60, symSize: 0x30 }
  - { offsetInCU: 0xF26E, offset: 0xF26E, size: 0x8, addend: 0x0, symName: __ZNSt3__16vectorIcNS_9allocatorIcEEE6assignIPcLi0EEEvT_S6_, symObjAddr: 0xF580, symBinAddr: 0x10000FF90, symSize: 0x3E0 }
  - { offsetInCU: 0xF30F, offset: 0xF30F, size: 0x8, addend: 0x0, symName: __ZNSt3__16vectorIcNS_9allocatorIcEEE19__copy_assign_allocB7v160006ERKS3_NS_17integral_constantIbLb0EEE, symObjAddr: 0xF960, symBinAddr: 0x100010370, symSize: 0x10 }
  - { offsetInCU: 0xF34B, offset: 0xF34B, size: 0x8, addend: 0x0, symName: __ZNSt3__16vectorIcNS_9allocatorIcEEE18__construct_at_endIPcLi0EEEvT_S6_m, symObjAddr: 0xFC10, symBinAddr: 0x100010620, symSize: 0x300 }
  - { offsetInCU: 0xF3C6, offset: 0xF3C6, size: 0x8, addend: 0x0, symName: __ZNSt3__16vectorIcNS_9allocatorIcEEE17__destruct_at_endB7v160006EPc, symObjAddr: 0xFF10, symBinAddr: 0x100010920, symSize: 0x70 }
  - { offsetInCU: 0xF40A, offset: 0xF40A, size: 0x8, addend: 0x0, symName: __ZNSt3__16vectorIcNS_9allocatorIcEEE13__vdeallocateEv, symObjAddr: 0xFF80, symBinAddr: 0x100010990, symSize: 0x160 }
  - { offsetInCU: 0xF432, offset: 0xF432, size: 0x8, addend: 0x0, symName: __ZNKSt3__16vectorIcNS_9allocatorIcEEE11__recommendB7v160006Em, symObjAddr: 0x100E0, symBinAddr: 0x100010AF0, symSize: 0x2F0 }
  - { offsetInCU: 0xF4A7, offset: 0xF4A7, size: 0x8, addend: 0x0, symName: __ZNKSt3__114__copy_trivialclB7v160006IccLi0EEENS_4pairIPT_PT0_EES4_S4_S6_, symObjAddr: 0x111D0, symBinAddr: 0x100011BE0, symSize: 0x210 }
  - { offsetInCU: 0xF513, offset: 0xF513, size: 0x8, addend: 0x0, symName: __ZNSt3__14pairIPcS1_EC1B7v160006IRS1_S1_LPv0EEEOT_OT0_, symObjAddr: 0x11A70, symBinAddr: 0x100012480, symSize: 0x30 }
  - { offsetInCU: 0xF571, offset: 0xF571, size: 0x8, addend: 0x0, symName: __ZNSt3__14pairIPcS1_EC2B7v160006IRS1_S1_LPv0EEEOT_OT0_, symObjAddr: 0x11AA0, symBinAddr: 0x1000124B0, symSize: 0x110 }
  - { offsetInCU: 0xF5CF, offset: 0xF5CF, size: 0x8, addend: 0x0, symName: __ZNSt3__14pairIPcS1_EC1B7v160006IS1_S1_LPv0EEEOT_OT0_, symObjAddr: 0x11BB0, symBinAddr: 0x1000125C0, symSize: 0x30 }
  - { offsetInCU: 0xF62D, offset: 0xF62D, size: 0x8, addend: 0x0, symName: __ZNSt3__14pairIPcS1_EC2B7v160006IS1_S1_LPv0EEEOT_OT0_, symObjAddr: 0x11BE0, symBinAddr: 0x1000125F0, symSize: 0x110 }
  - { offsetInCU: 0xF68B, offset: 0xF68B, size: 0x8, addend: 0x0, symName: __ZNSt3__129_AllocatorDestroyRangeReverseINS_9allocatorIcEEPcEC1B7v160006ERS2_RS3_S6_, symObjAddr: 0x124E0, symBinAddr: 0x100012EF0, symSize: 0x40 }
  - { offsetInCU: 0xF6E2, offset: 0xF6E2, size: 0x8, addend: 0x0, symName: __ZNSt3__116allocator_traitsINS_9allocatorIcEEE9constructB7v160006IcJRcEvEEvRS2_PT_DpOT0_, symObjAddr: 0x12520, symBinAddr: 0x100012F30, symSize: 0x30 }
  - { offsetInCU: 0xF739, offset: 0xF739, size: 0x8, addend: 0x0, symName: __ZNSt3__128__exception_guard_exceptionsINS_29_AllocatorDestroyRangeReverseINS_9allocatorIcEEPcEEE10__completeB7v160006Ev, symObjAddr: 0x12550, symBinAddr: 0x100012F60, symSize: 0x70 }
  - { offsetInCU: 0xF75F, offset: 0xF75F, size: 0x8, addend: 0x0, symName: __ZNSt3__128__exception_guard_exceptionsINS_29_AllocatorDestroyRangeReverseINS_9allocatorIcEEPcEEED1B7v160006Ev, symObjAddr: 0x125C0, symBinAddr: 0x100012FD0, symSize: 0x20 }
  - { offsetInCU: 0xF789, offset: 0xF789, size: 0x8, addend: 0x0, symName: __ZNSt3__128__exception_guard_exceptionsINS_29_AllocatorDestroyRangeReverseINS_9allocatorIcEEPcEEEC1B7v160006ES5_, symObjAddr: 0x125E0, symBinAddr: 0x100012FF0, symSize: 0x250 }
  - { offsetInCU: 0xF7C6, offset: 0xF7C6, size: 0x8, addend: 0x0, symName: __ZNSt3__128__exception_guard_exceptionsINS_29_AllocatorDestroyRangeReverseINS_9allocatorIcEEPcEEEC2B7v160006ES5_, symObjAddr: 0x12830, symBinAddr: 0x100013240, symSize: 0x1E0 }
  - { offsetInCU: 0xF803, offset: 0xF803, size: 0x8, addend: 0x0, symName: __ZNSt3__129_AllocatorDestroyRangeReverseINS_9allocatorIcEEPcEC2B7v160006ERS2_RS3_S6_, symObjAddr: 0x12A10, symBinAddr: 0x100013420, symSize: 0xF0 }
  - { offsetInCU: 0xF85A, offset: 0xF85A, size: 0x8, addend: 0x0, symName: __ZNSt3__19allocatorIcE9constructB7v160006IcJRcEEEvPT_DpOT0_, symObjAddr: 0x12B00, symBinAddr: 0x100013510, symSize: 0xC0 }
  - { offsetInCU: 0xF8B0, offset: 0xF8B0, size: 0x8, addend: 0x0, symName: __ZNSt3__128__exception_guard_exceptionsINS_29_AllocatorDestroyRangeReverseINS_9allocatorIcEEPcEEED2B7v160006Ev, symObjAddr: 0x12BC0, symBinAddr: 0x1000135D0, symSize: 0x90 }
  - { offsetInCU: 0xF8DA, offset: 0xF8DA, size: 0x8, addend: 0x0, symName: __ZNKSt3__129_AllocatorDestroyRangeReverseINS_9allocatorIcEEPcEclB7v160006Ev, symObjAddr: 0x12C50, symBinAddr: 0x100013660, symSize: 0x380 }
  - { offsetInCU: 0xF901, offset: 0xF901, size: 0x8, addend: 0x0, symName: __ZNSt3__116reverse_iteratorIPcEC1B7v160006ES1_, symObjAddr: 0x13280, symBinAddr: 0x100013C90, symSize: 0x30 }
  - { offsetInCU: 0xF939, offset: 0xF939, size: 0x8, addend: 0x0, symName: __ZNSt3__116reverse_iteratorIPcEppB7v160006Ev, symObjAddr: 0x13310, symBinAddr: 0x100013D20, symSize: 0x60 }
  - { offsetInCU: 0xF95F, offset: 0xF95F, size: 0x8, addend: 0x0, symName: __ZNKSt3__116reverse_iteratorIPcE4baseB7v160006Ev, symObjAddr: 0x13370, symBinAddr: 0x100013D80, symSize: 0x50 }
  - { offsetInCU: 0xF98A, offset: 0xF98A, size: 0x8, addend: 0x0, symName: __ZNSt3__119__to_address_helperINS_16reverse_iteratorIPcEEvE6__callB7v160006ERKS3_, symObjAddr: 0x133C0, symBinAddr: 0x100013DD0, symSize: 0x40 }
  - { offsetInCU: 0xF9AD, offset: 0xF9AD, size: 0x8, addend: 0x0, symName: __ZNKSt3__116reverse_iteratorIPcEptB7v160006Ev, symObjAddr: 0x13400, symBinAddr: 0x100013E10, symSize: 0x20 }
  - { offsetInCU: 0xF9D3, offset: 0xF9D3, size: 0x8, addend: 0x0, symName: __ZNKSt3__116reverse_iteratorIPcEdeB7v160006Ev, symObjAddr: 0x13420, symBinAddr: 0x100013E30, symSize: 0x60 }
  - { offsetInCU: 0xFA07, offset: 0xFA07, size: 0x8, addend: 0x0, symName: __ZNSt3__116reverse_iteratorIPcEC2B7v160006ES1_, symObjAddr: 0x13480, symBinAddr: 0x100013E90, symSize: 0xA0 }
  - { offsetInCU: 0xFA3F, offset: 0xFA3F, size: 0x8, addend: 0x0, symName: __ZNSt3__16vectorIcNS_9allocatorIcEEE27__invalidate_iterators_pastB7v160006EPc, symObjAddr: 0x13520, symBinAddr: 0x100013F30, symSize: 0x10 }
  - { offsetInCU: 0xFA76, offset: 0xFA76, size: 0x8, addend: 0x0, symName: __ZNSt3__16vectorIcNS_9allocatorIcEEE5clearB7v160006Ev, symObjAddr: 0x13530, symBinAddr: 0x100013F40, symSize: 0x60 }
  - { offsetInCU: 0xFAAB, offset: 0xFAAB, size: 0x8, addend: 0x0, symName: __ZNSt3__118__unwrap_iter_implIPNS_6vectorIcNS_9allocatorIcEEEELb1EE8__unwrapB7v160006ES5_, symObjAddr: 0x13730, symBinAddr: 0x100014140, symSize: 0x20 }
  - { offsetInCU: 0xFAD3, offset: 0xFAD3, size: 0x8, addend: 0x0, symName: __ZNSt3__14pairIPKNS_6vectorIcNS_9allocatorIcEEEEPS4_EC1B7v160006IS6_S7_LPv0EEEOT_OT0_, symObjAddr: 0x13750, symBinAddr: 0x100014160, symSize: 0x30 }
  - { offsetInCU: 0xFB31, offset: 0xFB31, size: 0x8, addend: 0x0, symName: __ZNSt3__14pairIPKNS_6vectorIcNS_9allocatorIcEEEEPS4_EC2B7v160006IS6_S7_LPv0EEEOT_OT0_, symObjAddr: 0x13780, symBinAddr: 0x100014190, symSize: 0x110 }
  - { offsetInCU: 0xFB8F, offset: 0xFB8F, size: 0x8, addend: 0x0, symName: __ZNSt3__118__unwrap_iter_implIPKNS_6vectorIcNS_9allocatorIcEEEELb1EE8__rewrapB7v160006ES6_S6_, symObjAddr: 0x138E0, symBinAddr: 0x1000142F0, symSize: 0x60 }
  - { offsetInCU: 0xFBC0, offset: 0xFBC0, size: 0x8, addend: 0x0, symName: __ZNSt3__118__unwrap_iter_implIPNS_6vectorIcNS_9allocatorIcEEEELb1EE8__rewrapB7v160006ES5_S5_, symObjAddr: 0x13940, symBinAddr: 0x100014350, symSize: 0x60 }
  - { offsetInCU: 0xFC0A, offset: 0xFC0A, size: 0x8, addend: 0x0, symName: __ZNSt3__16vectorINS0_IcNS_9allocatorIcEEEENS1_IS3_EEE21_ConstructTransactionC1B7v160006ERS5_m, symObjAddr: 0x139A0, symBinAddr: 0x1000143B0, symSize: 0x30 }
  - { offsetInCU: 0xFC52, offset: 0xFC52, size: 0x8, addend: 0x0, symName: __ZNSt3__16vectorINS0_IcNS_9allocatorIcEEEENS1_IS3_EEE21_ConstructTransactionD1B7v160006Ev, symObjAddr: 0x13F20, symBinAddr: 0x100014930, symSize: 0x20 }
  - { offsetInCU: 0xFC7C, offset: 0xFC7C, size: 0x8, addend: 0x0, symName: __ZNSt3__16vectorINS0_IcNS_9allocatorIcEEEENS1_IS3_EEE21_ConstructTransactionC2B7v160006ERS5_m, symObjAddr: 0x13F40, symBinAddr: 0x100014950, symSize: 0x190 }
  - { offsetInCU: 0xFCC4, offset: 0xFCC4, size: 0x8, addend: 0x0, symName: __ZNKSt3__16vectorINS0_IcNS_9allocatorIcEEEENS1_IS3_EEE19__annotate_increaseB7v160006Em, symObjAddr: 0x140D0, symBinAddr: 0x100014AE0, symSize: 0xE0 }
  - { offsetInCU: 0xFCF9, offset: 0xFCF9, size: 0x8, addend: 0x0, symName: __ZNSt3__129_AllocatorDestroyRangeReverseINS_9allocatorINS_6vectorIcNS1_IcEEEEEEPS4_EC1B7v160006ERS5_RS6_S9_, symObjAddr: 0x14450, symBinAddr: 0x100014E60, symSize: 0x40 }
  - { offsetInCU: 0xFD50, offset: 0xFD50, size: 0x8, addend: 0x0, symName: __ZNSt3__116allocator_traitsINS_9allocatorINS_6vectorIcNS1_IcEEEEEEE9constructB7v160006IS4_JRKS4_EvEEvRS5_PT_DpOT0_, symObjAddr: 0x14490, symBinAddr: 0x100014EA0, symSize: 0x30 }
  - { offsetInCU: 0xFDA7, offset: 0xFDA7, size: 0x8, addend: 0x0, symName: __ZNSt3__128__exception_guard_exceptionsINS_29_AllocatorDestroyRangeReverseINS_9allocatorINS_6vectorIcNS2_IcEEEEEEPS5_EEE10__completeB7v160006Ev, symObjAddr: 0x144C0, symBinAddr: 0x100014ED0, symSize: 0x70 }
  - { offsetInCU: 0xFDCD, offset: 0xFDCD, size: 0x8, addend: 0x0, symName: __ZNSt3__128__exception_guard_exceptionsINS_29_AllocatorDestroyRangeReverseINS_9allocatorINS_6vectorIcNS2_IcEEEEEEPS5_EEED1B7v160006Ev, symObjAddr: 0x14530, symBinAddr: 0x100014F40, symSize: 0x20 }
  - { offsetInCU: 0xFDF7, offset: 0xFDF7, size: 0x8, addend: 0x0, symName: __ZNSt3__128__exception_guard_exceptionsINS_29_AllocatorDestroyRangeReverseINS_9allocatorINS_6vectorIcNS2_IcEEEEEEPS5_EEEC1B7v160006ES8_, symObjAddr: 0x14550, symBinAddr: 0x100014F60, symSize: 0x250 }
  - { offsetInCU: 0xFE34, offset: 0xFE34, size: 0x8, addend: 0x0, symName: __ZNSt3__128__exception_guard_exceptionsINS_29_AllocatorDestroyRangeReverseINS_9allocatorINS_6vectorIcNS2_IcEEEEEEPS5_EEEC2B7v160006ES8_, symObjAddr: 0x147A0, symBinAddr: 0x1000151B0, symSize: 0x1E0 }
  - { offsetInCU: 0xFE71, offset: 0xFE71, size: 0x8, addend: 0x0, symName: __ZNSt3__129_AllocatorDestroyRangeReverseINS_9allocatorINS_6vectorIcNS1_IcEEEEEEPS4_EC2B7v160006ERS5_RS6_S9_, symObjAddr: 0x14980, symBinAddr: 0x100015390, symSize: 0xF0 }
  - { offsetInCU: 0xFEC8, offset: 0xFEC8, size: 0x8, addend: 0x0, symName: __ZNSt3__19allocatorINS_6vectorIcNS0_IcEEEEE9constructB7v160006IS3_JRKS3_EEEvPT_DpOT0_, symObjAddr: 0x14A70, symBinAddr: 0x100015480, symSize: 0x30 }
  - { offsetInCU: 0xFF1E, offset: 0xFF1E, size: 0x8, addend: 0x0, symName: __ZNSt3__16vectorIcNS_9allocatorIcEEEC1ERKS3_, symObjAddr: 0x14AA0, symBinAddr: 0x1000154B0, symSize: 0x30 }
  - { offsetInCU: 0xFF59, offset: 0xFF59, size: 0x8, addend: 0x0, symName: __ZNSt3__16vectorIcNS_9allocatorIcEEEC2ERKS3_, symObjAddr: 0x14AD0, symBinAddr: 0x1000154E0, symSize: 0x4B0 }
  - { offsetInCU: 0xFFBF, offset: 0xFFBF, size: 0x8, addend: 0x0, symName: __ZNSt3__116allocator_traitsINS_9allocatorIcEEE37select_on_container_copy_constructionB7v160006IS2_vvEES2_RKS2_, symObjAddr: 0x14F80, symBinAddr: 0x100015990, symSize: 0x10 }
  - { offsetInCU: 0xFFF3, offset: 0xFFF3, size: 0x8, addend: 0x0, symName: __ZNSt3__117__compressed_pairIPcNS_9allocatorIcEEEC1B7v160006IDnS3_EEOT_OT0_, symObjAddr: 0x14F90, symBinAddr: 0x1000159A0, symSize: 0x30 }
  - { offsetInCU: 0x1004B, offset: 0x1004B, size: 0x8, addend: 0x0, symName: __ZNSt3__117__compressed_pairIPcNS_9allocatorIcEEEC2B7v160006IDnS3_EEOT_OT0_, symObjAddr: 0x14FC0, symBinAddr: 0x1000159D0, symSize: 0x40 }
  - { offsetInCU: 0x100A3, offset: 0x100A3, size: 0x8, addend: 0x0, symName: __ZNSt3__122__compressed_pair_elemINS_9allocatorIcEELi1ELb1EEC2B7v160006IS2_vEEOT_, symObjAddr: 0x15000, symBinAddr: 0x100015A10, symSize: 0x10 }
  - { offsetInCU: 0x100E5, offset: 0x100E5, size: 0x8, addend: 0x0, symName: __ZNSt3__128__exception_guard_exceptionsINS_29_AllocatorDestroyRangeReverseINS_9allocatorINS_6vectorIcNS2_IcEEEEEEPS5_EEED2B7v160006Ev, symObjAddr: 0x15010, symBinAddr: 0x100015A20, symSize: 0x90 }
  - { offsetInCU: 0x1010F, offset: 0x1010F, size: 0x8, addend: 0x0, symName: __ZNKSt3__129_AllocatorDestroyRangeReverseINS_9allocatorINS_6vectorIcNS1_IcEEEEEEPS4_EclB7v160006Ev, symObjAddr: 0x150A0, symBinAddr: 0x100015AB0, symSize: 0x380 }
  - { offsetInCU: 0x10136, offset: 0x10136, size: 0x8, addend: 0x0, symName: __ZNSt3__116reverse_iteratorIPNS_6vectorIcNS_9allocatorIcEEEEEC1B7v160006ES5_, symObjAddr: 0x156D0, symBinAddr: 0x1000160E0, symSize: 0x30 }
  - { offsetInCU: 0x1016E, offset: 0x1016E, size: 0x8, addend: 0x0, symName: __ZNSt3__116reverse_iteratorIPNS_6vectorIcNS_9allocatorIcEEEEEppB7v160006Ev, symObjAddr: 0x15760, symBinAddr: 0x100016170, symSize: 0x60 }
  - { offsetInCU: 0x10194, offset: 0x10194, size: 0x8, addend: 0x0, symName: __ZNKSt3__116reverse_iteratorIPNS_6vectorIcNS_9allocatorIcEEEEE4baseB7v160006Ev, symObjAddr: 0x157C0, symBinAddr: 0x1000161D0, symSize: 0x50 }
  - { offsetInCU: 0x101BF, offset: 0x101BF, size: 0x8, addend: 0x0, symName: __ZNSt3__119__to_address_helperINS_16reverse_iteratorIPNS_6vectorIcNS_9allocatorIcEEEEEEvE6__callB7v160006ERKS7_, symObjAddr: 0x15810, symBinAddr: 0x100016220, symSize: 0x40 }
  - { offsetInCU: 0x101E2, offset: 0x101E2, size: 0x8, addend: 0x0, symName: __ZNKSt3__116reverse_iteratorIPNS_6vectorIcNS_9allocatorIcEEEEEptB7v160006Ev, symObjAddr: 0x15850, symBinAddr: 0x100016260, symSize: 0x20 }
  - { offsetInCU: 0x10208, offset: 0x10208, size: 0x8, addend: 0x0, symName: __ZNKSt3__116reverse_iteratorIPNS_6vectorIcNS_9allocatorIcEEEEEdeB7v160006Ev, symObjAddr: 0x15870, symBinAddr: 0x100016280, symSize: 0x60 }
  - { offsetInCU: 0x1023C, offset: 0x1023C, size: 0x8, addend: 0x0, symName: __ZNSt3__116reverse_iteratorIPNS_6vectorIcNS_9allocatorIcEEEEEC2B7v160006ES5_, symObjAddr: 0x158D0, symBinAddr: 0x1000162E0, symSize: 0xA0 }
  - { offsetInCU: 0x10274, offset: 0x10274, size: 0x8, addend: 0x0, symName: __ZNSt3__16vectorINS0_IcNS_9allocatorIcEEEENS1_IS3_EEE21_ConstructTransactionD2B7v160006Ev, symObjAddr: 0x15970, symBinAddr: 0x100016380, symSize: 0x230 }
  - { offsetInCU: 0x1029E, offset: 0x1029E, size: 0x8, addend: 0x0, symName: __ZNKSt3__16vectorINS0_IcNS_9allocatorIcEEEENS1_IS3_EEE17__annotate_shrinkB7v160006Em, symObjAddr: 0x15BA0, symBinAddr: 0x1000165B0, symSize: 0xC0 }
  - { offsetInCU: 0x102D3, offset: 0x102D3, size: 0x8, addend: 0x0, symName: __ZNSt3__16vectorINS0_IcNS_9allocatorIcEEEENS1_IS3_EEE27__invalidate_iterators_pastB7v160006EPS3_, symObjAddr: 0x15C60, symBinAddr: 0x100016670, symSize: 0x10 }
  - { offsetInCU: 0x1030A, offset: 0x1030A, size: 0x8, addend: 0x0, symName: __ZNSt3__16vectorINS0_IcNS_9allocatorIcEEEENS1_IS3_EEE5clearB7v160006Ev, symObjAddr: 0x15C70, symBinAddr: 0x100016680, symSize: 0x60 }
  - { offsetInCU: 0x1033F, offset: 0x1033F, size: 0x8, addend: 0x0, symName: __ZNSt3__16vectorINS0_IcNS_9allocatorIcEEEENS1_IS3_EEE9__end_capB7v160006Ev, symObjAddr: 0x15CD0, symBinAddr: 0x1000166E0, symSize: 0x20 }
  - { offsetInCU: 0x10365, offset: 0x10365, size: 0x8, addend: 0x0, symName: __ZNSt3__117__compressed_pairIPNS_6vectorIcNS_9allocatorIcEEEENS2_IS4_EEE5firstB7v160006Ev, symObjAddr: 0x15CF0, symBinAddr: 0x100016700, symSize: 0x20 }
  - { offsetInCU: 0x1038B, offset: 0x1038B, size: 0x8, addend: 0x0, symName: __ZNSt3__122__compressed_pair_elemIPNS_6vectorIcNS_9allocatorIcEEEELi0ELb0EE5__getB7v160006Ev, symObjAddr: 0x15D10, symBinAddr: 0x100016720, symSize: 0x10 }
  - { offsetInCU: 0x103B1, offset: 0x103B1, size: 0x8, addend: 0x0, symName: __ZNKSt3__16vectorINS0_IcNS_9allocatorIcEEEENS1_IS3_EEE8max_sizeEv, symObjAddr: 0x15D20, symBinAddr: 0x100016730, symSize: 0x260 }
  - { offsetInCU: 0x103DA, offset: 0x103DA, size: 0x8, addend: 0x0, symName: __ZNKSt3__16vectorINS0_IcNS_9allocatorIcEEEENS1_IS3_EEE20__throw_length_errorB7v160006Ev, symObjAddr: 0x15F80, symBinAddr: 0x100016990, symSize: 0x20 }
  - { offsetInCU: 0x10400, offset: 0x10400, size: 0x8, addend: 0x0, symName: __ZNKSt3__16vectorINS0_IcNS_9allocatorIcEEEENS1_IS3_EEE14__annotate_newB7v160006Em, symObjAddr: 0x161B0, symBinAddr: 0x100016BC0, symSize: 0xC0 }
  - { offsetInCU: 0x1043F, offset: 0x1043F, size: 0x8, addend: 0x0, symName: __ZNSt3__116allocator_traitsINS_9allocatorINS_6vectorIcNS1_IcEEEEEEE8max_sizeB7v160006IS5_vEEmRKS5_, symObjAddr: 0x16270, symBinAddr: 0x100016C80, symSize: 0x20 }
  - { offsetInCU: 0x1046D, offset: 0x1046D, size: 0x8, addend: 0x0, symName: __ZNKSt3__16vectorINS0_IcNS_9allocatorIcEEEENS1_IS3_EEE7__allocB7v160006Ev, symObjAddr: 0x16290, symBinAddr: 0x100016CA0, symSize: 0x20 }
  - { offsetInCU: 0x10493, offset: 0x10493, size: 0x8, addend: 0x0, symName: __ZNKSt3__19allocatorINS_6vectorIcNS0_IcEEEEE8max_sizeB7v160006Ev, symObjAddr: 0x162B0, symBinAddr: 0x100016CC0, symSize: 0x20 }
  - { offsetInCU: 0x104B9, offset: 0x104B9, size: 0x8, addend: 0x0, symName: __ZNKSt3__117__compressed_pairIPNS_6vectorIcNS_9allocatorIcEEEENS2_IS4_EEE6secondB7v160006Ev, symObjAddr: 0x162D0, symBinAddr: 0x100016CE0, symSize: 0x20 }
  - { offsetInCU: 0x104DF, offset: 0x104DF, size: 0x8, addend: 0x0, symName: __ZNKSt3__122__compressed_pair_elemINS_9allocatorINS_6vectorIcNS1_IcEEEEEELi1ELb1EE5__getB7v160006Ev, symObjAddr: 0x162F0, symBinAddr: 0x100016D00, symSize: 0x10 }
  - { offsetInCU: 0x10505, offset: 0x10505, size: 0x8, addend: 0x0, symName: __ZNSt3__19allocatorINS_6vectorIcNS0_IcEEEEE8allocateB7v160006Em, symObjAddr: 0x16300, symBinAddr: 0x100016D10, symSize: 0x50 }
...
