---
triple:          'x86_64-apple-darwin'
binary-path:     '/Users/fan/Workspace/myLeetcode/Serialize_and_Deserialize_Binary_Tree/test'
relocations:
  - { offsetInCU: 0x3B, offset: 0x3B, size: 0x8, addend: 0x0, symName: _.str, symObjAddr: 0x1BA60, symBinAddr: 0x10002ABE0, symSize: 0x0 }
  - { offsetInCU: 0x6B, offset: 0x6B, size: 0x8, addend: 0x0, symName: _.str.1, symObjAddr: 0x1BA80, symBinAddr: 0x10002AC00, symSize: 0x0 }
  - { offsetInCU: 0x7C, offset: 0x7C, size: 0x8, addend: 0x0, symName: _.str.2, symObjAddr: 0x1BAA0, symBinAddr: 0x10002AC20, symSize: 0x0 }
  - { offsetInCU: 0x8D, offset: 0x8D, size: 0x8, addend: 0x0, symName: _.str.3, symObjAddr: 0x1BAC0, symBinAddr: 0x10002AC40, symSize: 0x0 }
  - { offsetInCU: 0xAA, offset: 0xAA, size: 0x8, addend: 0x0, symName: _.str.4, symObjAddr: 0x1BAE0, symBinAddr: 0x10002AC60, symSize: 0x0 }
  - { offsetInCU: 0xBB, offset: 0xBB, size: 0x8, addend: 0x0, symName: _.str.5, symObjAddr: 0x1BB00, symBinAddr: 0x10002AC80, symSize: 0x0 }
  - { offsetInCU: 0xCC, offset: 0xCC, size: 0x8, addend: 0x0, symName: _.str.6, symObjAddr: 0x1BB20, symBinAddr: 0x10002ACA0, symSize: 0x0 }
  - { offsetInCU: 0xDE, offset: 0xDE, size: 0x8, addend: 0x0, symName: _.str.7, symObjAddr: 0x1BB40, symBinAddr: 0x10002ACC0, symSize: 0x0 }
  - { offsetInCU: 0xFC, offset: 0xFC, size: 0x8, addend: 0x0, symName: _.str.8, symObjAddr: 0x1BB60, symBinAddr: 0x10002ACE0, symSize: 0x0 }
  - { offsetInCU: 0x319D, offset: 0x319D, size: 0x8, addend: 0x0, symName: __ZNSt3__16copy_nB7v160006IPKcmPcEENS_9enable_ifIXsr33__is_cpp17_random_access_iteratorIT_EE5valueET1_E4typeES5_T0_S6_, symObjAddr: 0x3060, symBinAddr: 0x1000049E0, symSize: 0x40 }
  - { offsetInCU: 0x5A5D, offset: 0x5A5D, size: 0x8, addend: 0x0, symName: __ZNSt3__17advanceB7v160006IPKNS_12basic_stringIcNS_11char_traitsIcEENS_9allocatorIcEEEEmmvEEvRT_T0_, symObjAddr: 0x149E0, symBinAddr: 0x100016360, symSize: 0x50 }
  - { offsetInCU: 0x5E75, offset: 0x5E75, size: 0x8, addend: 0x0, symName: __ZNSt3__124__put_character_sequenceB7v160006IcNS_11char_traitsIcEEEERNS_13basic_ostreamIT_T0_EES7_PKS4_m, symObjAddr: 0x19A50, symBinAddr: 0x10001B3D0, symSize: 0x750 }
  - { offsetInCU: 0xAF7C, offset: 0xAF7C, size: 0x8, addend: 0x0, symName: __ZNSt3__1lsB7v160006IcNS_11char_traitsIcEENS_9allocatorIcEEEERNS_13basic_ostreamIT_T0_EES9_RKNS_12basic_stringIS6_S7_T1_EE, symObjAddr: 0xE70, symBinAddr: 0x1000027F0, symSize: 0x50 }
  - { offsetInCU: 0xAFD4, offset: 0xAFD4, size: 0x8, addend: 0x0, symName: __ZNSt3__14endlB7v160006IcNS_11char_traitsIcEEEERNS_13basic_ostreamIT_T0_EES7_, symObjAddr: 0xEE0, symBinAddr: 0x100002860, symSize: 0xB0 }
  - { offsetInCU: 0xB014, offset: 0xB014, size: 0x8, addend: 0x0, symName: __ZNSt3__1plB7v160006IcNS_11char_traitsIcEENS_9allocatorIcEEEENS_12basic_stringIT_T0_T1_EEOS9_SA_, symObjAddr: 0x19D0, symBinAddr: 0x100003350, symSize: 0x50 }
  - { offsetInCU: 0xB06C, offset: 0xB06C, size: 0x8, addend: 0x0, symName: __ZNSt3__1plB7v160006IcNS_11char_traitsIcEENS_9allocatorIcEEEENS_12basic_stringIT_T0_T1_EERKS9_SB_, symObjAddr: 0x1A20, symBinAddr: 0x1000033A0, symSize: 0x290 }
  - { offsetInCU: 0xB113, offset: 0xB113, size: 0x8, addend: 0x0, symName: __ZNSt3__112__to_addressB7v160006IKcEEPT_S3_, symObjAddr: 0x1DB0, symBinAddr: 0x100003730, symSize: 0x10 }
  - { offsetInCU: 0xB17B, offset: 0xB17B, size: 0x8, addend: 0x0, symName: __ZNSt3__119__debug_db_insert_cB7v160006INS_12basic_stringIcNS_11char_traitsIcEENS_9allocatorIcEEEEEEvPT_, symObjAddr: 0x2240, symBinAddr: 0x100003BC0, symSize: 0x10 }
  - { offsetInCU: 0xB1AC, offset: 0xB1AC, size: 0x8, addend: 0x0, symName: __ZNSt3__115__debug_db_swapB7v160006INS_12basic_stringIcNS_11char_traitsIcEENS_9allocatorIcEEEEEEvPT_S8_, symObjAddr: 0x2250, symBinAddr: 0x100003BD0, symSize: 0x10 }
  - { offsetInCU: 0xB1EB, offset: 0xB1EB, size: 0x8, addend: 0x0, symName: __ZNSt3__112__to_addressB7v160006IcEEPT_S2_, symObjAddr: 0x22F0, symBinAddr: 0x100003C70, symSize: 0x10 }
  - { offsetInCU: 0xB422, offset: 0xB422, size: 0x8, addend: 0x0, symName: __ZNSt3__120__throw_length_errorB7v160006EPKc, symObjAddr: 0x2D90, symBinAddr: 0x100004710, symSize: 0x70 }
  - { offsetInCU: 0xB44A, offset: 0xB44A, size: 0x8, addend: 0x0, symName: __ZNSt3__117__libcpp_allocateB7v160006Emm, symObjAddr: 0x2F60, symBinAddr: 0x1000048E0, symSize: 0x20 }
  - { offsetInCU: 0xB487, offset: 0xB487, size: 0x8, addend: 0x0, symName: __ZNSt3__121__libcpp_operator_newB7v160006IJmEEEPvDpT_, symObjAddr: 0x2F80, symBinAddr: 0x100004900, symSize: 0x20 }
  - { offsetInCU: 0xB4F3, offset: 0xB4F3, size: 0x8, addend: 0x0, symName: __ZNSt3__14copyB7v160006IPKcPcEET0_T_S5_S4_, symObjAddr: 0x30A0, symBinAddr: 0x100004A20, symSize: 0x220 }
  - { offsetInCU: 0xB550, offset: 0xB550, size: 0x8, addend: 0x0, symName: __ZNSt3__16__copyB7v160006INS_17_ClassicAlgPolicyEPKcS3_PcEENS_4pairIT0_T2_EES6_T1_S7_, symObjAddr: 0x32C0, symBinAddr: 0x100004C40, symSize: 0x210 }
  - { offsetInCU: 0xB5BF, offset: 0xB5BF, size: 0x8, addend: 0x0, symName: __ZNSt3__123__dispatch_copy_or_moveB7v160006INS_17_ClassicAlgPolicyENS_11__copy_loopIS1_EENS_14__copy_trivialEPKcS6_PcEENS_4pairIT2_T4_EES9_T3_SA_, symObjAddr: 0x34D0, symBinAddr: 0x100004E50, symSize: 0x210 }
  - { offsetInCU: 0xB640, offset: 0xB640, size: 0x8, addend: 0x0, symName: __ZNSt3__121__unwrap_and_dispatchB7v160006INS_10__overloadINS_11__copy_loopINS_17_ClassicAlgPolicyEEENS_14__copy_trivialEEEPKcS8_PcLi0EEENS_4pairIT0_T2_EESB_T1_SC_, symObjAddr: 0x36E0, symBinAddr: 0x100005060, symSize: 0x650 }
  - { offsetInCU: 0xB6D9, offset: 0xB6D9, size: 0x8, addend: 0x0, symName: __ZNSt3__114__unwrap_rangeB7v160006IPKcS2_EENS_4pairIT0_S4_EET_S6_, symObjAddr: 0x3D30, symBinAddr: 0x1000056B0, symSize: 0x300 }
  - { offsetInCU: 0xB870, offset: 0xB870, size: 0x8, addend: 0x0, symName: __ZNSt3__113__unwrap_iterB7v160006IPcNS_18__unwrap_iter_implIS1_Lb1EEELi0EEEDTclsrT0_8__unwrapclsr3stdE7declvalIT_EEEES5_, symObjAddr: 0x4240, symBinAddr: 0x100005BC0, symSize: 0x20 }
  - { offsetInCU: 0xB8B4, offset: 0xB8B4, size: 0x8, addend: 0x0, symName: __ZNSt3__19make_pairB7v160006IPKcPcEENS_4pairINS_18__unwrap_ref_decayIT_E4typeENS5_IT0_E4typeEEEOS6_OS9_, symObjAddr: 0x4260, symBinAddr: 0x100005BE0, symSize: 0x190 }
  - { offsetInCU: 0xB905, offset: 0xB905, size: 0x8, addend: 0x0, symName: __ZNSt3__114__rewrap_rangeB7v160006IPKcS2_EET_S3_T0_, symObjAddr: 0x43F0, symBinAddr: 0x100005D70, symSize: 0x30 }
  - { offsetInCU: 0xB951, offset: 0xB951, size: 0x8, addend: 0x0, symName: __ZNSt3__113__rewrap_iterB7v160006IPcS1_NS_18__unwrap_iter_implIS1_Lb1EEEEET_S4_T0_, symObjAddr: 0x4420, symBinAddr: 0x100005DA0, symSize: 0x50 }
  - { offsetInCU: 0xB9A6, offset: 0xB9A6, size: 0x8, addend: 0x0, symName: __ZNSt3__19make_pairB7v160006IPKcS2_EENS_4pairINS_18__unwrap_ref_decayIT_E4typeENS4_IT0_E4typeEEEOS5_OS8_, symObjAddr: 0x4470, symBinAddr: 0x100005DF0, symSize: 0x190 }
  - { offsetInCU: 0xB9F7, offset: 0xB9F7, size: 0x8, addend: 0x0, symName: __ZNSt3__113__unwrap_iterB7v160006IPKcNS_18__unwrap_iter_implIS2_Lb1EEELi0EEEDTclsrT0_8__unwrapclsr3stdE7declvalIT_EEEES6_, symObjAddr: 0x4600, symBinAddr: 0x100005F80, symSize: 0x20 }
  - { offsetInCU: 0xBB62, offset: 0xBB62, size: 0x8, addend: 0x0, symName: __ZNSt3__119__copy_trivial_implB7v160006IKccEENS_4pairIPT_PT0_EES4_S4_S6_, symObjAddr: 0x4780, symBinAddr: 0x100006100, symSize: 0x340 }
  - { offsetInCU: 0xBBD1, offset: 0xBBD1, size: 0x8, addend: 0x0, symName: __ZNSt3__19make_pairB7v160006IRPKcPcEENS_4pairINS_18__unwrap_ref_decayIT_E4typeENS6_IT0_E4typeEEEOS7_OSA_, symObjAddr: 0x4AC0, symBinAddr: 0x100006440, symSize: 0x190 }
  - { offsetInCU: 0xBC75, offset: 0xBC75, size: 0x8, addend: 0x0, symName: __ZNSt3__113__rewrap_iterB7v160006IPKcS2_NS_18__unwrap_iter_implIS2_Lb1EEEEET_S5_T0_, symObjAddr: 0x4EF0, symBinAddr: 0x100006870, symSize: 0x50 }
  - { offsetInCU: 0xBCCA, offset: 0xBCCA, size: 0x8, addend: 0x0, symName: __ZNSt3__16fill_nB7v160006IPcmcEET_S2_T0_RKT1_, symObjAddr: 0x4FC0, symBinAddr: 0x100006940, symSize: 0x40 }
  - { offsetInCU: 0xBD2D, offset: 0xBD2D, size: 0x8, addend: 0x0, symName: __ZNSt3__18__fill_nB7v160006IPcmcEET_S2_T0_RKT1_, symObjAddr: 0x5000, symBinAddr: 0x100006980, symSize: 0xE0 }
  - { offsetInCU: 0xBD90, offset: 0xBD90, size: 0x8, addend: 0x0, symName: __ZNSt3__121__convert_to_integralB7v160006Em, symObjAddr: 0x50E0, symBinAddr: 0x100006A60, symSize: 0x10 }
  - { offsetInCU: 0xBDBC, offset: 0xBDBC, size: 0x8, addend: 0x0, symName: __ZNSt3__17getlineB7v160006IcNS_11char_traitsIcEENS_9allocatorIcEEEERNS_13basic_istreamIT_T0_EES9_RNS_12basic_stringIS6_S7_T1_EES6_, symObjAddr: 0x52C0, symBinAddr: 0x100006C40, symSize: 0x670 }
  - { offsetInCU: 0xBE8D, offset: 0xBE8D, size: 0x8, addend: 0x0, symName: __ZNSt3__125__debug_db_invalidate_allB7v160006INS_12basic_stringIcNS_11char_traitsIcEENS_9allocatorIcEEEEEEvPT_, symObjAddr: 0x7670, symBinAddr: 0x100008FF0, symSize: 0x10 }
  - { offsetInCU: 0xBEBE, offset: 0xBEBE, size: 0x8, addend: 0x0, symName: __ZNSt3__13maxB7v160006ImEERKT_S3_S3_, symObjAddr: 0xABF0, symBinAddr: 0x10000C570, symSize: 0x30 }
  - { offsetInCU: 0xC2A6, offset: 0xC2A6, size: 0x8, addend: 0x0, symName: __ZNSt3__14swapB7v160006IPPNS_12basic_stringIcNS_11char_traitsIcEENS_9allocatorIcEEEEEENS_9enable_ifIXaasr21is_move_constructibleIT_EE5valuesr18is_move_assignableISA_EE5valueEvE4typeERSA_SD_, symObjAddr: 0xC410, symBinAddr: 0x10000DD90, symSize: 0x100 }
  - { offsetInCU: 0xC2F7, offset: 0xC2F7, size: 0x8, addend: 0x0, symName: __ZNSt3__14moveB7v160006IPPNS_12basic_stringIcNS_11char_traitsIcEENS_9allocatorIcEEEES8_EET0_T_SA_S9_, symObjAddr: 0xC620, symBinAddr: 0x10000DFA0, symSize: 0x220 }
  - { offsetInCU: 0xC370, offset: 0xC370, size: 0x8, addend: 0x0, symName: __ZNSt3__112__to_addressB7v160006IPNS_12basic_stringIcNS_11char_traitsIcEENS_9allocatorIcEEEEEEPT_S9_, symObjAddr: 0xCE30, symBinAddr: 0x10000E7B0, symSize: 0x10 }
  - { offsetInCU: 0xC3A5, offset: 0xC3A5, size: 0x8, addend: 0x0, symName: __ZNSt3__16__moveB7v160006INS_17_ClassicAlgPolicyEPPNS_12basic_stringIcNS_11char_traitsIcEENS_9allocatorIcEEEES9_S9_EENS_4pairIT0_T2_EESB_T1_SC_, symObjAddr: 0xCE40, symBinAddr: 0x10000E7C0, symSize: 0x210 }
  - { offsetInCU: 0xC414, offset: 0xC414, size: 0x8, addend: 0x0, symName: __ZNSt3__123__dispatch_copy_or_moveB7v160006INS_17_ClassicAlgPolicyENS_11__move_loopIS1_EENS_14__move_trivialEPPNS_12basic_stringIcNS_11char_traitsIcEENS_9allocatorIcEEEESC_SC_EENS_4pairIT2_T4_EESE_T3_SF_, symObjAddr: 0xD050, symBinAddr: 0x10000E9D0, symSize: 0x210 }
  - { offsetInCU: 0xC495, offset: 0xC495, size: 0x8, addend: 0x0, symName: __ZNSt3__121__unwrap_and_dispatchB7v160006INS_10__overloadINS_11__move_loopINS_17_ClassicAlgPolicyEEENS_14__move_trivialEEEPPNS_12basic_stringIcNS_11char_traitsIcEENS_9allocatorIcEEEESE_SE_Li0EEENS_4pairIT0_T2_EESG_T1_SH_, symObjAddr: 0xD260, symBinAddr: 0x10000EBE0, symSize: 0x650 }
  - { offsetInCU: 0xC52E, offset: 0xC52E, size: 0x8, addend: 0x0, symName: __ZNSt3__114__unwrap_rangeB7v160006IPPNS_12basic_stringIcNS_11char_traitsIcEENS_9allocatorIcEEEES8_EENS_4pairIT0_SA_EET_SC_, symObjAddr: 0xD8B0, symBinAddr: 0x10000F230, symSize: 0x300 }
  - { offsetInCU: 0xC6F4, offset: 0xC6F4, size: 0x8, addend: 0x0, symName: __ZNSt3__113__unwrap_iterB7v160006IPPNS_12basic_stringIcNS_11char_traitsIcEENS_9allocatorIcEEEENS_18__unwrap_iter_implIS8_Lb1EEELi0EEEDTclsrT0_8__unwrapclsr3stdE7declvalIT_EEEESC_, symObjAddr: 0xDDC0, symBinAddr: 0x10000F740, symSize: 0x20 }
  - { offsetInCU: 0xC738, offset: 0xC738, size: 0x8, addend: 0x0, symName: __ZNSt3__19make_pairB7v160006IPPNS_12basic_stringIcNS_11char_traitsIcEENS_9allocatorIcEEEES8_EENS_4pairINS_18__unwrap_ref_decayIT_E4typeENSA_IT0_E4typeEEEOSB_OSE_, symObjAddr: 0xDDE0, symBinAddr: 0x10000F760, symSize: 0x190 }
  - { offsetInCU: 0xC789, offset: 0xC789, size: 0x8, addend: 0x0, symName: __ZNSt3__114__rewrap_rangeB7v160006IPPNS_12basic_stringIcNS_11char_traitsIcEENS_9allocatorIcEEEES8_EET_S9_T0_, symObjAddr: 0xDF70, symBinAddr: 0x10000F8F0, symSize: 0x30 }
  - { offsetInCU: 0xC7D5, offset: 0xC7D5, size: 0x8, addend: 0x0, symName: __ZNSt3__113__rewrap_iterB7v160006IPPNS_12basic_stringIcNS_11char_traitsIcEENS_9allocatorIcEEEES8_NS_18__unwrap_iter_implIS8_Lb1EEEEET_SB_T0_, symObjAddr: 0xDFA0, symBinAddr: 0x10000F920, symSize: 0x50 }
  - { offsetInCU: 0xC82A, offset: 0xC82A, size: 0x8, addend: 0x0, symName: __ZNSt3__119__copy_trivial_implB7v160006IPNS_12basic_stringIcNS_11char_traitsIcEENS_9allocatorIcEEEES7_EENS_4pairIPT_PT0_EESA_SA_SC_, symObjAddr: 0xDFF0, symBinAddr: 0x10000F970, symSize: 0x350 }
  - { offsetInCU: 0xC899, offset: 0xC899, size: 0x8, addend: 0x0, symName: __ZNSt3__19make_pairB7v160006IRPPNS_12basic_stringIcNS_11char_traitsIcEENS_9allocatorIcEEEES8_EENS_4pairINS_18__unwrap_ref_decayIT_E4typeENSB_IT0_E4typeEEEOSC_OSF_, symObjAddr: 0xE340, symBinAddr: 0x10000FCC0, symSize: 0x190 }
  - { offsetInCU: 0xC93D, offset: 0xC93D, size: 0x8, addend: 0x0, symName: __ZNSt3__18distanceB7v160006INS_13move_iteratorIPPNS_12basic_stringIcNS_11char_traitsIcEENS_9allocatorIcEEEEEEEENS_15iterator_traitsIT_E15difference_typeESC_SC_, symObjAddr: 0xE7C0, symBinAddr: 0x100010140, symSize: 0x2C0 }
  - { offsetInCU: 0xC988, offset: 0xC988, size: 0x8, addend: 0x0, symName: __ZNSt3__110__distanceB7v160006INS_13move_iteratorIPPNS_12basic_stringIcNS_11char_traitsIcEENS_9allocatorIcEEEEEEEENS_15iterator_traitsIT_E15difference_typeESC_SC_NS_26random_access_iterator_tagE, symObjAddr: 0xEBC0, symBinAddr: 0x100010540, symSize: 0x1E0 }
  - { offsetInCU: 0xC9DE, offset: 0xC9DE, size: 0x8, addend: 0x0, symName: __ZNSt3__1miB7v160006IPPNS_12basic_stringIcNS_11char_traitsIcEENS_9allocatorIcEEEES8_EEDTmicldtfp_4baseEcldtfp0_4baseEERKNS_13move_iteratorIT_EERKNSA_IT0_EE, symObjAddr: 0xEDA0, symBinAddr: 0x100010720, symSize: 0x40 }
  - { offsetInCU: 0xCA2D, offset: 0xCA2D, size: 0x8, addend: 0x0, symName: __ZNSt3__113move_backwardB7v160006IPPNS_12basic_stringIcNS_11char_traitsIcEENS_9allocatorIcEEEES8_EET0_T_SA_S9_, symObjAddr: 0xF320, symBinAddr: 0x100010CA0, symSize: 0x220 }
  - { offsetInCU: 0xCA8A, offset: 0xCA8A, size: 0x8, addend: 0x0, symName: __ZNSt3__115__move_backwardB7v160006INS_17_ClassicAlgPolicyEPPNS_12basic_stringIcNS_11char_traitsIcEENS_9allocatorIcEEEES9_S9_EENS_4pairIT0_T2_EESB_T1_SC_, symObjAddr: 0xF540, symBinAddr: 0x100010EC0, symSize: 0x210 }
  - { offsetInCU: 0xCAF9, offset: 0xCAF9, size: 0x8, addend: 0x0, symName: __ZNSt3__123__dispatch_copy_or_moveB7v160006INS_17_ClassicAlgPolicyENS_20__move_backward_loopIS1_EENS_23__move_backward_trivialEPPNS_12basic_stringIcNS_11char_traitsIcEENS_9allocatorIcEEEESC_SC_EENS_4pairIT2_T4_EESE_T3_SF_, symObjAddr: 0xF750, symBinAddr: 0x1000110D0, symSize: 0x210 }
  - { offsetInCU: 0xCB7A, offset: 0xCB7A, size: 0x8, addend: 0x0, symName: __ZNSt3__121__unwrap_and_dispatchB7v160006INS_10__overloadINS_20__move_backward_loopINS_17_ClassicAlgPolicyEEENS_23__move_backward_trivialEEEPPNS_12basic_stringIcNS_11char_traitsIcEENS_9allocatorIcEEEESE_SE_Li0EEENS_4pairIT0_T2_EESG_T1_SH_, symObjAddr: 0xF960, symBinAddr: 0x1000112E0, symSize: 0x650 }
  - { offsetInCU: 0xCC59, offset: 0xCC59, size: 0x8, addend: 0x0, symName: __ZNSt3__128__copy_backward_trivial_implB7v160006IPNS_12basic_stringIcNS_11char_traitsIcEENS_9allocatorIcEEEES7_EENS_4pairIPT_PT0_EESA_SA_SC_, symObjAddr: 0x101C0, symBinAddr: 0x100011B40, symSize: 0x370 }
  - { offsetInCU: 0xCCCB, offset: 0xCCCB, size: 0x8, addend: 0x0, symName: __ZNSt3__19make_pairB7v160006IRPPNS_12basic_stringIcNS_11char_traitsIcEENS_9allocatorIcEEEES9_EENS_4pairINS_18__unwrap_ref_decayIT_E4typeENSB_IT0_E4typeEEEOSC_OSF_, symObjAddr: 0x10530, symBinAddr: 0x100011EB0, symSize: 0x190 }
  - { offsetInCU: 0xCD1C, offset: 0xCD1C, size: 0x8, addend: 0x0, symName: __ZNSt3__13maxB7v160006ImNS_6__lessImmEEEERKT_S5_S5_T0_, symObjAddr: 0x10800, symBinAddr: 0x100012180, symSize: 0x170 }
  - { offsetInCU: 0xCDB7, offset: 0xCDB7, size: 0x8, addend: 0x0, symName: __ZNSt3__119__allocate_at_leastB7v160006INS_9allocatorIPNS_12basic_stringIcNS_11char_traitsIcEENS1_IcEEEEEEEENS_19__allocation_resultINS_16allocator_traitsIT_E7pointerEEERSB_m, symObjAddr: 0x10F30, symBinAddr: 0x1000128B0, symSize: 0x210 }
  - { offsetInCU: 0xCDFC, offset: 0xCDFC, size: 0x8, addend: 0x0, symName: __ZNSt3__119__libcpp_deallocateB7v160006EPvmm, symObjAddr: 0x118D0, symBinAddr: 0x100013250, symSize: 0x30 }
  - { offsetInCU: 0xCE44, offset: 0xCE44, size: 0x8, addend: 0x0, symName: __ZNSt3__127__do_deallocate_handle_sizeB7v160006IJEEEvPvmDpT_, symObjAddr: 0x11900, symBinAddr: 0x100013280, symSize: 0x20 }
  - { offsetInCU: 0xCE82, offset: 0xCE82, size: 0x8, addend: 0x0, symName: __ZNSt3__124__libcpp_operator_deleteB7v160006IJPvEEEvDpT_, symObjAddr: 0x11920, symBinAddr: 0x1000132A0, symSize: 0x20 }
  - { offsetInCU: 0xCEB7, offset: 0xCEB7, size: 0x8, addend: 0x0, symName: __ZNSt3__1eqB7v160006IcNS_11char_traitsIcEENS_9allocatorIcEEEEbRKNS_12basic_stringIT_T0_T1_EEPKS6_, symObjAddr: 0x121D0, symBinAddr: 0x100013B50, symSize: 0xB0 }
  - { offsetInCU: 0xCF1E, offset: 0xCF1E, size: 0x8, addend: 0x0, symName: __ZNSt3__112__to_addressB7v160006INS_12basic_stringIcNS_11char_traitsIcEENS_9allocatorIcEEEEEEPT_S8_, symObjAddr: 0x122E0, symBinAddr: 0x100013C60, symSize: 0x10 }
  - { offsetInCU: 0xCF53, offset: 0xCF53, size: 0x8, addend: 0x0, symName: __ZNSt3__118__constexpr_strlenB7v160006EPKc, symObjAddr: 0x12490, symBinAddr: 0x100013E10, symSize: 0x20 }
  - { offsetInCU: 0xCF7F, offset: 0xCF7F, size: 0x8, addend: 0x0, symName: __ZNSt3__1neB7v160006ERKNS_16__deque_iteratorINS_12basic_stringIcNS_11char_traitsIcEENS_9allocatorIcEEEEPS6_RS6_PS7_lLl170EEESC_, symObjAddr: 0x12E30, symBinAddr: 0x1000147B0, symSize: 0x30 }
  - { offsetInCU: 0xCFBC, offset: 0xCFBC, size: 0x8, addend: 0x0, symName: __ZNSt3__1eqB7v160006ERKNS_16__deque_iteratorINS_12basic_stringIcNS_11char_traitsIcEENS_9allocatorIcEEEEPS6_RS6_PS7_lLl170EEESC_, symObjAddr: 0x13010, symBinAddr: 0x100014990, symSize: 0xA0 }
  - { offsetInCU: 0xCFF9, offset: 0xCFF9, size: 0x8, addend: 0x0, symName: __ZNSt3__119__debug_db_insert_cB7v160006INS_6vectorINS_12basic_stringIcNS_11char_traitsIcEENS_9allocatorIcEEEENS5_IS7_EEEEEEvPT_, symObjAddr: 0x13BC0, symBinAddr: 0x100015540, symSize: 0x10 }
  - { offsetInCU: 0xD02A, offset: 0xD02A, size: 0x8, addend: 0x0, symName: __ZNSt3__118__debug_db_erase_cB7v160006INS_6vectorINS_12basic_stringIcNS_11char_traitsIcEENS_9allocatorIcEEEENS5_IS7_EEEEEEvPT_, symObjAddr: 0x14140, symBinAddr: 0x100015AC0, symSize: 0x10 }
  - { offsetInCU: 0xD05B, offset: 0xD05B, size: 0x8, addend: 0x0, symName: __ZNSt3__18distanceB7v160006IPKNS_12basic_stringIcNS_11char_traitsIcEENS_9allocatorIcEEEEEENS_15iterator_traitsIT_E15difference_typeESA_SA_, symObjAddr: 0x149B0, symBinAddr: 0x100016330, symSize: 0x30 }
  - { offsetInCU: 0xD09E, offset: 0xD09E, size: 0x8, addend: 0x0, symName: __ZNSt3__14copyB7v160006IPKNS_12basic_stringIcNS_11char_traitsIcEENS_9allocatorIcEEEEPS6_EET0_T_SB_SA_, symObjAddr: 0x14A30, symBinAddr: 0x1000163B0, symSize: 0x220 }
  - { offsetInCU: 0xD0FB, offset: 0xD0FB, size: 0x8, addend: 0x0, symName: __ZNSt3__125__debug_db_invalidate_allB7v160006INS_6vectorINS_12basic_stringIcNS_11char_traitsIcEENS_9allocatorIcEEEENS5_IS7_EEEEEEvPT_, symObjAddr: 0x15810, symBinAddr: 0x100017190, symSize: 0x10 }
  - { offsetInCU: 0xD12C, offset: 0xD12C, size: 0x8, addend: 0x0, symName: __ZNSt3__110__distanceB7v160006IPKNS_12basic_stringIcNS_11char_traitsIcEENS_9allocatorIcEEEEEENS_15iterator_traitsIT_E15difference_typeESA_SA_NS_26random_access_iterator_tagE, symObjAddr: 0x15820, symBinAddr: 0x1000171A0, symSize: 0x30 }
  - { offsetInCU: 0xD179, offset: 0xD179, size: 0x8, addend: 0x0, symName: __ZNSt3__19__advanceB7v160006IPKNS_12basic_stringIcNS_11char_traitsIcEENS_9allocatorIcEEEEEEvRT_NS_15iterator_traitsIS9_E15difference_typeENS_26random_access_iterator_tagE, symObjAddr: 0x15850, symBinAddr: 0x1000171D0, symSize: 0x60 }
  - { offsetInCU: 0xD1C2, offset: 0xD1C2, size: 0x8, addend: 0x0, symName: __ZNSt3__16__copyB7v160006INS_17_ClassicAlgPolicyEPKNS_12basic_stringIcNS_11char_traitsIcEENS_9allocatorIcEEEES9_PS7_EENS_4pairIT0_T2_EESC_T1_SD_, symObjAddr: 0x158B0, symBinAddr: 0x100017230, symSize: 0x210 }
  - { offsetInCU: 0xD231, offset: 0xD231, size: 0x8, addend: 0x0, symName: __ZNSt3__123__dispatch_copy_or_moveB7v160006INS_17_ClassicAlgPolicyENS_11__copy_loopIS1_EENS_14__copy_trivialEPKNS_12basic_stringIcNS_11char_traitsIcEENS_9allocatorIcEEEESC_PSA_EENS_4pairIT2_T4_EESF_T3_SG_, symObjAddr: 0x15AC0, symBinAddr: 0x100017440, symSize: 0x210 }
  - { offsetInCU: 0xD2B2, offset: 0xD2B2, size: 0x8, addend: 0x0, symName: __ZNSt3__121__unwrap_and_dispatchB7v160006INS_10__overloadINS_11__copy_loopINS_17_ClassicAlgPolicyEEENS_14__copy_trivialEEEPKNS_12basic_stringIcNS_11char_traitsIcEENS_9allocatorIcEEEESE_PSC_Li0EEENS_4pairIT0_T2_EESH_T1_SI_, symObjAddr: 0x15CD0, symBinAddr: 0x100017650, symSize: 0x650 }
  - { offsetInCU: 0xD34B, offset: 0xD34B, size: 0x8, addend: 0x0, symName: __ZNSt3__114__unwrap_rangeB7v160006IPKNS_12basic_stringIcNS_11char_traitsIcEENS_9allocatorIcEEEES8_EENS_4pairIT0_SA_EET_SC_, symObjAddr: 0x16320, symBinAddr: 0x100017CA0, symSize: 0x300 }
  - { offsetInCU: 0xD4C8, offset: 0xD4C8, size: 0x8, addend: 0x0, symName: __ZNSt3__113__unwrap_iterB7v160006IPNS_12basic_stringIcNS_11char_traitsIcEENS_9allocatorIcEEEENS_18__unwrap_iter_implIS7_Lb1EEELi0EEEDTclsrT0_8__unwrapclsr3stdE7declvalIT_EEEESB_, symObjAddr: 0x16A10, symBinAddr: 0x100018390, symSize: 0x20 }
  - { offsetInCU: 0xD50C, offset: 0xD50C, size: 0x8, addend: 0x0, symName: __ZNSt3__19make_pairB7v160006IPKNS_12basic_stringIcNS_11char_traitsIcEENS_9allocatorIcEEEEPS6_EENS_4pairINS_18__unwrap_ref_decayIT_E4typeENSB_IT0_E4typeEEEOSC_OSF_, symObjAddr: 0x16A30, symBinAddr: 0x1000183B0, symSize: 0x190 }
  - { offsetInCU: 0xD55D, offset: 0xD55D, size: 0x8, addend: 0x0, symName: __ZNSt3__114__rewrap_rangeB7v160006IPKNS_12basic_stringIcNS_11char_traitsIcEENS_9allocatorIcEEEES8_EET_S9_T0_, symObjAddr: 0x16BC0, symBinAddr: 0x100018540, symSize: 0x30 }
  - { offsetInCU: 0xD5A9, offset: 0xD5A9, size: 0x8, addend: 0x0, symName: __ZNSt3__113__rewrap_iterB7v160006IPNS_12basic_stringIcNS_11char_traitsIcEENS_9allocatorIcEEEES7_NS_18__unwrap_iter_implIS7_Lb1EEEEET_SA_T0_, symObjAddr: 0x16BF0, symBinAddr: 0x100018570, symSize: 0x50 }
  - { offsetInCU: 0xD5FE, offset: 0xD5FE, size: 0x8, addend: 0x0, symName: __ZNSt3__19make_pairB7v160006IPKNS_12basic_stringIcNS_11char_traitsIcEENS_9allocatorIcEEEES8_EENS_4pairINS_18__unwrap_ref_decayIT_E4typeENSA_IT0_E4typeEEEOSB_OSE_, symObjAddr: 0x16C40, symBinAddr: 0x1000185C0, symSize: 0x190 }
  - { offsetInCU: 0xD64F, offset: 0xD64F, size: 0x8, addend: 0x0, symName: __ZNSt3__113__unwrap_iterB7v160006IPKNS_12basic_stringIcNS_11char_traitsIcEENS_9allocatorIcEEEENS_18__unwrap_iter_implIS8_Lb1EEELi0EEEDTclsrT0_8__unwrapclsr3stdE7declvalIT_EEEESC_, symObjAddr: 0x16DD0, symBinAddr: 0x100018750, symSize: 0x20 }
  - { offsetInCU: 0xD7BA, offset: 0xD7BA, size: 0x8, addend: 0x0, symName: __ZNSt3__112__to_addressB7v160006IKNS_12basic_stringIcNS_11char_traitsIcEENS_9allocatorIcEEEEEEPT_S9_, symObjAddr: 0x16F50, symBinAddr: 0x1000188D0, symSize: 0x10 }
  - { offsetInCU: 0xD842, offset: 0xD842, size: 0x8, addend: 0x0, symName: __ZNSt3__113__rewrap_iterB7v160006IPKNS_12basic_stringIcNS_11char_traitsIcEENS_9allocatorIcEEEES8_NS_18__unwrap_iter_implIS8_Lb1EEEEET_SB_T0_, symObjAddr: 0x170C0, symBinAddr: 0x100018A40, symSize: 0x50 }
  - { offsetInCU: 0xD897, offset: 0xD897, size: 0x8, addend: 0x0, symName: __ZNSt3__130__uninitialized_allocator_copyB7v160006INS_9allocatorINS_12basic_stringIcNS_11char_traitsIcEENS1_IcEEEEEEPKS6_S9_PS6_EET2_RT_T0_T1_SB_, symObjAddr: 0x17200, symBinAddr: 0x100018B80, symSize: 0x550 }
  - { offsetInCU: 0xD943, offset: 0xD943, size: 0x8, addend: 0x0, symName: __ZNSt3__122__make_exception_guardB7v160006INS_29_AllocatorDestroyRangeReverseINS_9allocatorINS_12basic_stringIcNS_11char_traitsIcEENS2_IcEEEEEEPS7_EEEENS_28__exception_guard_exceptionsIT_EESC_, symObjAddr: 0x179E0, symBinAddr: 0x100019360, symSize: 0x2A0 }
  - { offsetInCU: 0xD97C, offset: 0xD97C, size: 0x8, addend: 0x0, symName: __ZNSt3__119__allocator_destroyB7v160006INS_9allocatorINS_12basic_stringIcNS_11char_traitsIcEENS1_IcEEEEEENS_16reverse_iteratorIPS6_EESA_EEvRT_T0_T1_, symObjAddr: 0x18680, symBinAddr: 0x10001A000, symSize: 0x2B0 }
  - { offsetInCU: 0xD9E8, offset: 0xD9E8, size: 0x8, addend: 0x0, symName: __ZNSt3__1neB7v160006IPNS_12basic_stringIcNS_11char_traitsIcEENS_9allocatorIcEEEES7_EEbRKNS_16reverse_iteratorIT_EERKNS8_IT0_EE, symObjAddr: 0x18960, symBinAddr: 0x10001A2E0, symSize: 0x40 }
  - { offsetInCU: 0xDA34, offset: 0xDA34, size: 0x8, addend: 0x0, symName: __ZNSt3__112__to_addressB7v160006INS_16reverse_iteratorIPNS_12basic_stringIcNS_11char_traitsIcEENS_9allocatorIcEEEEEEvEENS_5decayIDTclsr19__to_address_helperIT_EE6__callclsr3stdE7declvalIRKSB_EEEEE4typeESD_, symObjAddr: 0x189A0, symBinAddr: 0x10001A320, symSize: 0x20 }
  - { offsetInCU: 0xDA93, offset: 0xDA93, size: 0x8, addend: 0x0, symName: __ZNSt3__119__allocate_at_leastB7v160006INS_9allocatorINS_12basic_stringIcNS_11char_traitsIcEENS1_IcEEEEEEEENS_19__allocation_resultINS_16allocator_traitsIT_E7pointerEEERSA_m, symObjAddr: 0x191F0, symBinAddr: 0x10001AB70, symSize: 0x210 }
  - { offsetInCU: 0xDAD8, offset: 0xDAD8, size: 0x8, addend: 0x0, symName: __ZNSt3__13minB7v160006ImEERKT_S3_S3_, symObjAddr: 0x194C0, symBinAddr: 0x10001AE40, symSize: 0x30 }
  - { offsetInCU: 0xDD1C, offset: 0xDD1C, size: 0x8, addend: 0x0, symName: __ZNSt3__13minB7v160006ImNS_6__lessImmEEEERKT_S5_S5_T0_, symObjAddr: 0x19520, symBinAddr: 0x10001AEA0, symSize: 0x170 }
  - { offsetInCU: 0xDD7C, offset: 0xDD7C, size: 0x8, addend: 0x0, symName: __ZNSt3__116__pad_and_outputB7v160006IcNS_11char_traitsIcEEEENS_19ostreambuf_iteratorIT_T0_EES6_PKS4_S8_S8_RNS_8ios_baseES4_, symObjAddr: 0x1A210, symBinAddr: 0x10001BB90, symSize: 0x6E0 }
  - { offsetInCU: 0xDE59, offset: 0xDE59, size: 0x8, addend: 0x0, symName: __ZNSt3__19use_facetB7v160006INS_5ctypeIcEEEERKT_RKNS_6localeE, symObjAddr: 0x1B170, symBinAddr: 0x10001CAF0, symSize: 0x30 }
  - { offsetInCU: 0xE7A2, offset: 0xE7A2, size: 0x8, addend: 0x0, symName: __ZSt28__throw_bad_array_new_lengthB7v160006v, symObjAddr: 0x2F20, symBinAddr: 0x1000048A0, symSize: 0x40 }
  - { offsetInCU: 0x1137D, offset: 0x1137D, size: 0x8, addend: 0x0, symName: _main, symObjAddr: 0x0, symBinAddr: 0x100001980, symSize: 0xBA0 }
  - { offsetInCU: 0x113DA, offset: 0x113DA, size: 0x8, addend: 0x0, symName: __ZNSt3__16vectorINS_12basic_stringIcNS_11char_traitsIcEENS_9allocatorIcEEEENS4_IS6_EEEC1B7v160006Ev, symObjAddr: 0xBA0, symBinAddr: 0x100002520, symSize: 0x20 }
  - { offsetInCU: 0x11404, offset: 0x11404, size: 0x8, addend: 0x0, symName: __ZNSt3__112basic_stringIcNS_11char_traitsIcEENS_9allocatorIcEEEC1B7v160006Ev, symObjAddr: 0xBC0, symBinAddr: 0x100002540, symSize: 0x20 }
  - { offsetInCU: 0x11433, offset: 0x11433, size: 0x8, addend: 0x0, symName: __ZNSt3__112basic_stringIcNS_11char_traitsIcEENS_9allocatorIcEEEC1B7v160006IDnEEPKc, symObjAddr: 0xBE0, symBinAddr: 0x100002560, symSize: 0x30 }
  - { offsetInCU: 0x11471, offset: 0x11471, size: 0x8, addend: 0x0, symName: __ZNSt3__16vectorINS_12basic_stringIcNS_11char_traitsIcEENS_9allocatorIcEEEENS4_IS6_EEEaSB7v160006ESt16initializer_listIS6_E, symObjAddr: 0xC10, symBinAddr: 0x100002590, symSize: 0x1F0 }
  - { offsetInCU: 0x11597, offset: 0x11597, size: 0x8, addend: 0x0, symName: __ZN5Codec9serializeEP8TreeNode, symObjAddr: 0xE00, symBinAddr: 0x100002780, symSize: 0x40 }
  - { offsetInCU: 0x115CB, offset: 0x115CB, size: 0x8, addend: 0x0, symName: __ZNSt3__112basic_stringIcNS_11char_traitsIcEENS_9allocatorIcEEEaSB7v160006EOS5_, symObjAddr: 0xE40, symBinAddr: 0x1000027C0, symSize: 0x30 }
  - { offsetInCU: 0x11600, offset: 0x11600, size: 0x8, addend: 0x0, symName: __ZNSt3__113basic_ostreamIcNS_11char_traitsIcEEElsB7v160006EPFRS3_S4_E, symObjAddr: 0xEC0, symBinAddr: 0x100002840, symSize: 0x20 }
  - { offsetInCU: 0x11634, offset: 0x11634, size: 0x8, addend: 0x0, symName: __ZN5Codec11deserializeENSt3__112basic_stringIcNS0_11char_traitsIcEENS0_9allocatorIcEEEE, symObjAddr: 0xF90, symBinAddr: 0x100002910, symSize: 0x490 }
  - { offsetInCU: 0x116A3, offset: 0x116A3, size: 0x8, addend: 0x0, symName: __ZNSt16initializer_listINSt3__112basic_stringIcNS0_11char_traitsIcEENS0_9allocatorIcEEEEEC1B7v160006Ev, symObjAddr: 0x1420, symBinAddr: 0x100002DA0, symSize: 0x20 }
  - { offsetInCU: 0x116CD, offset: 0x116CD, size: 0x8, addend: 0x0, symName: __ZNSt3__16vectorINS_12basic_stringIcNS_11char_traitsIcEENS_9allocatorIcEEEENS4_IS6_EEED1B7v160006Ev, symObjAddr: 0x1440, symBinAddr: 0x100002DC0, symSize: 0x20 }
  - { offsetInCU: 0x116F7, offset: 0x116F7, size: 0x8, addend: 0x0, symName: __ZN5Codec3dfsEP8TreeNode, symObjAddr: 0x1460, symBinAddr: 0x100002DE0, symSize: 0x570 }
  - { offsetInCU: 0x1172D, offset: 0x1172D, size: 0x8, addend: 0x0, symName: __ZNSt3__112basic_stringIcNS_11char_traitsIcEENS_9allocatorIcEEE6appendB7v160006ERKS5_, symObjAddr: 0x1CB0, symBinAddr: 0x100003630, symSize: 0x50 }
  - { offsetInCU: 0x11762, offset: 0x11762, size: 0x8, addend: 0x0, symName: __ZNSt3__112basic_stringIcNS_11char_traitsIcEENS_9allocatorIcEEEC1B7v160006EOS5_, symObjAddr: 0x1D00, symBinAddr: 0x100003680, symSize: 0x30 }
  - { offsetInCU: 0x1179B, offset: 0x1179B, size: 0x8, addend: 0x0, symName: __ZNKSt3__112basic_stringIcNS_11char_traitsIcEENS_9allocatorIcEEE4dataB7v160006Ev, symObjAddr: 0x1D30, symBinAddr: 0x1000036B0, symSize: 0x30 }
  - { offsetInCU: 0x117C1, offset: 0x117C1, size: 0x8, addend: 0x0, symName: __ZNKSt3__112basic_stringIcNS_11char_traitsIcEENS_9allocatorIcEEE4sizeB7v160006Ev, symObjAddr: 0x1D60, symBinAddr: 0x1000036E0, symSize: 0x50 }
  - { offsetInCU: 0x117E7, offset: 0x117E7, size: 0x8, addend: 0x0, symName: __ZNKSt3__112basic_stringIcNS_11char_traitsIcEENS_9allocatorIcEEE13__get_pointerB7v160006Ev, symObjAddr: 0x1DC0, symBinAddr: 0x100003740, symSize: 0x50 }
  - { offsetInCU: 0x1180D, offset: 0x1180D, size: 0x8, addend: 0x0, symName: __ZNKSt3__112basic_stringIcNS_11char_traitsIcEENS_9allocatorIcEEE9__is_longB7v160006Ev, symObjAddr: 0x1E10, symBinAddr: 0x100003790, symSize: 0x70 }
  - { offsetInCU: 0x11833, offset: 0x11833, size: 0x8, addend: 0x0, symName: __ZNKSt3__112basic_stringIcNS_11char_traitsIcEENS_9allocatorIcEEE18__get_long_pointerB7v160006Ev, symObjAddr: 0x1E80, symBinAddr: 0x100003800, symSize: 0x50 }
  - { offsetInCU: 0x11859, offset: 0x11859, size: 0x8, addend: 0x0, symName: __ZNKSt3__112basic_stringIcNS_11char_traitsIcEENS_9allocatorIcEEE19__get_short_pointerB7v160006Ev, symObjAddr: 0x1ED0, symBinAddr: 0x100003850, symSize: 0x30 }
  - { offsetInCU: 0x1187F, offset: 0x1187F, size: 0x8, addend: 0x0, symName: __ZNKSt3__117__compressed_pairINS_12basic_stringIcNS_11char_traitsIcEENS_9allocatorIcEEE5__repES5_E5firstB7v160006Ev, symObjAddr: 0x1F00, symBinAddr: 0x100003880, symSize: 0x20 }
  - { offsetInCU: 0x118A5, offset: 0x118A5, size: 0x8, addend: 0x0, symName: __ZNKSt3__122__compressed_pair_elemINS_12basic_stringIcNS_11char_traitsIcEENS_9allocatorIcEEE5__repELi0ELb0EE5__getB7v160006Ev, symObjAddr: 0x1F20, symBinAddr: 0x1000038A0, symSize: 0x10 }
  - { offsetInCU: 0x118CB, offset: 0x118CB, size: 0x8, addend: 0x0, symName: __ZNSt3__114pointer_traitsIPKcE10pointer_toB7v160006ERS1_, symObjAddr: 0x1F30, symBinAddr: 0x1000038B0, symSize: 0x10 }
  - { offsetInCU: 0x118EE, offset: 0x118EE, size: 0x8, addend: 0x0, symName: __ZNKSt3__112basic_stringIcNS_11char_traitsIcEENS_9allocatorIcEEE15__get_long_sizeB7v160006Ev, symObjAddr: 0x1F40, symBinAddr: 0x1000038C0, symSize: 0x50 }
  - { offsetInCU: 0x11914, offset: 0x11914, size: 0x8, addend: 0x0, symName: __ZNKSt3__112basic_stringIcNS_11char_traitsIcEENS_9allocatorIcEEE16__get_short_sizeB7v160006Ev, symObjAddr: 0x1F90, symBinAddr: 0x100003910, symSize: 0x70 }
  - { offsetInCU: 0x1193A, offset: 0x1193A, size: 0x8, addend: 0x0, symName: __ZNSt3__112basic_stringIcNS_11char_traitsIcEENS_9allocatorIcEEEC2B7v160006EOS5_, symObjAddr: 0x2000, symBinAddr: 0x100003980, symSize: 0x90 }
  - { offsetInCU: 0x11973, offset: 0x11973, size: 0x8, addend: 0x0, symName: __ZNSt3__112basic_stringIcNS_11char_traitsIcEENS_9allocatorIcEEE14__default_initB7v160006Ev, symObjAddr: 0x2090, symBinAddr: 0x100003A10, symSize: 0x1A0 }
  - { offsetInCU: 0x1199A, offset: 0x1199A, size: 0x8, addend: 0x0, symName: __ZNSt3__117__compressed_pairINS_12basic_stringIcNS_11char_traitsIcEENS_9allocatorIcEEE5__repES5_E5firstB7v160006Ev, symObjAddr: 0x2260, symBinAddr: 0x100003BE0, symSize: 0x20 }
  - { offsetInCU: 0x119C0, offset: 0x119C0, size: 0x8, addend: 0x0, symName: __ZNSt3__122__compressed_pair_elemINS_12basic_stringIcNS_11char_traitsIcEENS_9allocatorIcEEE5__repELi0ELb0EE5__getB7v160006Ev, symObjAddr: 0x2280, symBinAddr: 0x100003C00, symSize: 0x10 }
  - { offsetInCU: 0x119F0, offset: 0x119F0, size: 0x8, addend: 0x0, symName: __ZNSt3__116allocator_traitsINS_9allocatorIcEEE37select_on_container_copy_constructionB7v160006IS2_vvEES2_RKS2_, symObjAddr: 0x2290, symBinAddr: 0x100003C10, symSize: 0x10 }
  - { offsetInCU: 0x11A1F, offset: 0x11A1F, size: 0x8, addend: 0x0, symName: __ZNKSt3__112basic_stringIcNS_11char_traitsIcEENS_9allocatorIcEEE13get_allocatorB7v160006Ev, symObjAddr: 0x22A0, symBinAddr: 0x100003C20, symSize: 0x20 }
  - { offsetInCU: 0x11A45, offset: 0x11A45, size: 0x8, addend: 0x0, symName: __ZNSt3__112basic_stringIcNS_11char_traitsIcEENS_9allocatorIcEEEC1B7v160006ENS_24__uninitialized_size_tagEmRKS4_, symObjAddr: 0x22C0, symBinAddr: 0x100003C40, symSize: 0x30 }
  - { offsetInCU: 0x11A99, offset: 0x11A99, size: 0x8, addend: 0x0, symName: __ZNSt3__112basic_stringIcNS_11char_traitsIcEENS_9allocatorIcEEE13__get_pointerB7v160006Ev, symObjAddr: 0x2300, symBinAddr: 0x100003C80, symSize: 0x50 }
  - { offsetInCU: 0x11ABF, offset: 0x11ABF, size: 0x8, addend: 0x0, symName: __ZNSt3__111char_traitsIcE4copyEPcPKcm, symObjAddr: 0x2350, symBinAddr: 0x100003CD0, symSize: 0x80 }
  - { offsetInCU: 0x11AFE, offset: 0x11AFE, size: 0x8, addend: 0x0, symName: __ZNSt3__111char_traitsIcE6assignEPcmc, symObjAddr: 0x23D0, symBinAddr: 0x100003D50, symSize: 0x1C0 }
  - { offsetInCU: 0x11B43, offset: 0x11B43, size: 0x8, addend: 0x0, symName: __ZNKSt3__112basic_stringIcNS_11char_traitsIcEENS_9allocatorIcEEE7__allocB7v160006Ev, symObjAddr: 0x2590, symBinAddr: 0x100003F10, symSize: 0x20 }
  - { offsetInCU: 0x11B69, offset: 0x11B69, size: 0x8, addend: 0x0, symName: __ZNKSt3__117__compressed_pairINS_12basic_stringIcNS_11char_traitsIcEENS_9allocatorIcEEE5__repES5_E6secondB7v160006Ev, symObjAddr: 0x25B0, symBinAddr: 0x100003F30, symSize: 0x20 }
  - { offsetInCU: 0x11B8F, offset: 0x11B8F, size: 0x8, addend: 0x0, symName: __ZNKSt3__122__compressed_pair_elemINS_9allocatorIcEELi1ELb1EE5__getB7v160006Ev, symObjAddr: 0x25D0, symBinAddr: 0x100003F50, symSize: 0x10 }
  - { offsetInCU: 0x11BB5, offset: 0x11BB5, size: 0x8, addend: 0x0, symName: __ZNSt3__112basic_stringIcNS_11char_traitsIcEENS_9allocatorIcEEEC2B7v160006ENS_24__uninitialized_size_tagEmRKS4_, symObjAddr: 0x25E0, symBinAddr: 0x100003F60, symSize: 0x290 }
  - { offsetInCU: 0x11C40, offset: 0x11C40, size: 0x8, addend: 0x0, symName: __ZNSt3__117__compressed_pairINS_12basic_stringIcNS_11char_traitsIcEENS_9allocatorIcEEE5__repES5_EC1B7v160006INS_18__default_init_tagERKS5_EEOT_OT0_, symObjAddr: 0x2870, symBinAddr: 0x1000041F0, symSize: 0x30 }
  - { offsetInCU: 0x11C98, offset: 0x11C98, size: 0x8, addend: 0x0, symName: __ZNKSt3__112basic_stringIcNS_11char_traitsIcEENS_9allocatorIcEEE8max_sizeB7v160006Ev, symObjAddr: 0x28A0, symBinAddr: 0x100004220, symSize: 0xB0 }
  - { offsetInCU: 0x11CEA, offset: 0x11CEA, size: 0x8, addend: 0x0, symName: __ZNKSt3__112basic_stringIcNS_11char_traitsIcEENS_9allocatorIcEEE20__throw_length_errorB7v160006Ev, symObjAddr: 0x2950, symBinAddr: 0x1000042D0, symSize: 0x20 }
  - { offsetInCU: 0x11D10, offset: 0x11D10, size: 0x8, addend: 0x0, symName: __ZNSt3__112basic_stringIcNS_11char_traitsIcEENS_9allocatorIcEEE13__fits_in_ssoB7v160006Em, symObjAddr: 0x2970, symBinAddr: 0x1000042F0, symSize: 0x20 }
  - { offsetInCU: 0x11D34, offset: 0x11D34, size: 0x8, addend: 0x0, symName: __ZNSt3__112basic_stringIcNS_11char_traitsIcEENS_9allocatorIcEEE16__set_short_sizeB7v160006Em, symObjAddr: 0x2990, symBinAddr: 0x100004310, symSize: 0xE0 }
  - { offsetInCU: 0x11D69, offset: 0x11D69, size: 0x8, addend: 0x0, symName: __ZNSt3__112basic_stringIcNS_11char_traitsIcEENS_9allocatorIcEEE11__recommendB7v160006Em, symObjAddr: 0x2A70, symBinAddr: 0x1000043F0, symSize: 0x70 }
  - { offsetInCU: 0x11D9C, offset: 0x11D9C, size: 0x8, addend: 0x0, symName: __ZNSt3__116allocator_traitsINS_9allocatorIcEEE8allocateB7v160006ERS2_m, symObjAddr: 0x2AE0, symBinAddr: 0x100004460, symSize: 0x30 }
  - { offsetInCU: 0x11DCF, offset: 0x11DCF, size: 0x8, addend: 0x0, symName: __ZNSt3__112basic_stringIcNS_11char_traitsIcEENS_9allocatorIcEEE7__allocB7v160006Ev, symObjAddr: 0x2B10, symBinAddr: 0x100004490, symSize: 0x20 }
  - { offsetInCU: 0x11DF5, offset: 0x11DF5, size: 0x8, addend: 0x0, symName: __ZNSt3__112basic_stringIcNS_11char_traitsIcEENS_9allocatorIcEEE16__begin_lifetimeB7v160006EPcm, symObjAddr: 0x2B30, symBinAddr: 0x1000044B0, symSize: 0x10 }
  - { offsetInCU: 0x11E28, offset: 0x11E28, size: 0x8, addend: 0x0, symName: __ZNSt3__112basic_stringIcNS_11char_traitsIcEENS_9allocatorIcEEE14__set_long_capB7v160006Em, symObjAddr: 0x2B40, symBinAddr: 0x1000044C0, symSize: 0xD0 }
  - { offsetInCU: 0x11E5D, offset: 0x11E5D, size: 0x8, addend: 0x0, symName: __ZNSt3__112basic_stringIcNS_11char_traitsIcEENS_9allocatorIcEEE18__set_long_pointerB7v160006EPc, symObjAddr: 0x2C10, symBinAddr: 0x100004590, symSize: 0x60 }
  - { offsetInCU: 0x11E92, offset: 0x11E92, size: 0x8, addend: 0x0, symName: __ZNSt3__112basic_stringIcNS_11char_traitsIcEENS_9allocatorIcEEE15__set_long_sizeB7v160006Em, symObjAddr: 0x2C70, symBinAddr: 0x1000045F0, symSize: 0x60 }
  - { offsetInCU: 0x11EC7, offset: 0x11EC7, size: 0x8, addend: 0x0, symName: __ZNSt3__117__compressed_pairINS_12basic_stringIcNS_11char_traitsIcEENS_9allocatorIcEEE5__repES5_EC2B7v160006INS_18__default_init_tagERKS5_EEOT_OT0_, symObjAddr: 0x2CD0, symBinAddr: 0x100004650, symSize: 0x40 }
  - { offsetInCU: 0x11F1F, offset: 0x11F1F, size: 0x8, addend: 0x0, symName: __ZNSt3__122__compressed_pair_elemINS_12basic_stringIcNS_11char_traitsIcEENS_9allocatorIcEEE5__repELi0ELb0EEC2B7v160006ENS_18__default_init_tagE, symObjAddr: 0x2D10, symBinAddr: 0x100004690, symSize: 0x10 }
  - { offsetInCU: 0x11F53, offset: 0x11F53, size: 0x8, addend: 0x0, symName: __ZNSt3__122__compressed_pair_elemINS_9allocatorIcEELi1ELb1EEC2B7v160006IRKS2_vEEOT_, symObjAddr: 0x2D20, symBinAddr: 0x1000046A0, symSize: 0x10 }
  - { offsetInCU: 0x11F95, offset: 0x11F95, size: 0x8, addend: 0x0, symName: __ZNSt3__116allocator_traitsINS_9allocatorIcEEE8max_sizeB7v160006IS2_vEEmRKS2_, symObjAddr: 0x2D30, symBinAddr: 0x1000046B0, symSize: 0x20 }
  - { offsetInCU: 0x11FC3, offset: 0x11FC3, size: 0x8, addend: 0x0, symName: __ZNSt3__114numeric_limitsImE3maxB7v160006Ev, symObjAddr: 0x2D50, symBinAddr: 0x1000046D0, symSize: 0x10 }
  - { offsetInCU: 0x11FD7, offset: 0x11FD7, size: 0x8, addend: 0x0, symName: __ZNKSt3__19allocatorIcE8max_sizeB7v160006Ev, symObjAddr: 0x2D60, symBinAddr: 0x1000046E0, symSize: 0x20 }
  - { offsetInCU: 0x11FFD, offset: 0x11FFD, size: 0x8, addend: 0x0, symName: __ZNSt3__123__libcpp_numeric_limitsImLb1EE3maxB7v160006Ev, symObjAddr: 0x2D80, symBinAddr: 0x100004700, symSize: 0x10 }
  - { offsetInCU: 0x12011, offset: 0x12011, size: 0x8, addend: 0x0, symName: __ZNSt12length_errorC1B7v160006EPKc, symObjAddr: 0x2E00, symBinAddr: 0x100004780, symSize: 0x30 }
  - { offsetInCU: 0x12049, offset: 0x12049, size: 0x8, addend: 0x0, symName: __ZNSt12length_errorC2B7v160006EPKc, symObjAddr: 0x2E30, symBinAddr: 0x1000047B0, symSize: 0x70 }
  - { offsetInCU: 0x12081, offset: 0x12081, size: 0x8, addend: 0x0, symName: __ZNSt3__112basic_stringIcNS_11char_traitsIcEENS_9allocatorIcEEE10__align_itB7v160006ILm16EEEmm, symObjAddr: 0x2EA0, symBinAddr: 0x100004820, symSize: 0x20 }
  - { offsetInCU: 0x120AF, offset: 0x120AF, size: 0x8, addend: 0x0, symName: __ZNSt3__19allocatorIcE8allocateB7v160006Em, symObjAddr: 0x2EC0, symBinAddr: 0x100004840, symSize: 0x60 }
  - { offsetInCU: 0x120E3, offset: 0x120E3, size: 0x8, addend: 0x0, symName: __ZNSt3__117__compressed_pairINS_12basic_stringIcNS_11char_traitsIcEENS_9allocatorIcEEE5__repES5_E6secondB7v160006Ev, symObjAddr: 0x2FA0, symBinAddr: 0x100004920, symSize: 0x20 }
  - { offsetInCU: 0x12109, offset: 0x12109, size: 0x8, addend: 0x0, symName: __ZNSt3__122__compressed_pair_elemINS_9allocatorIcEELi1ELb1EE5__getB7v160006Ev, symObjAddr: 0x2FC0, symBinAddr: 0x100004940, symSize: 0x10 }
  - { offsetInCU: 0x1212F, offset: 0x1212F, size: 0x8, addend: 0x0, symName: __ZNSt3__112basic_stringIcNS_11char_traitsIcEENS_9allocatorIcEEE18__get_long_pointerB7v160006Ev, symObjAddr: 0x2FD0, symBinAddr: 0x100004950, symSize: 0x50 }
  - { offsetInCU: 0x12155, offset: 0x12155, size: 0x8, addend: 0x0, symName: __ZNSt3__112basic_stringIcNS_11char_traitsIcEENS_9allocatorIcEEE19__get_short_pointerB7v160006Ev, symObjAddr: 0x3020, symBinAddr: 0x1000049A0, symSize: 0x30 }
  - { offsetInCU: 0x1217B, offset: 0x1217B, size: 0x8, addend: 0x0, symName: __ZNSt3__114pointer_traitsIPcE10pointer_toB7v160006ERc, symObjAddr: 0x3050, symBinAddr: 0x1000049D0, symSize: 0x10 }
  - { offsetInCU: 0x121C1, offset: 0x121C1, size: 0x8, addend: 0x0, symName: __ZNKSt3__114__copy_trivialclB7v160006IKccLi0EEENS_4pairIPT_PT0_EES5_S5_S7_, symObjAddr: 0x4030, symBinAddr: 0x1000059B0, symSize: 0x210 }
  - { offsetInCU: 0x1224B, offset: 0x1224B, size: 0x8, addend: 0x0, symName: __ZNSt3__14pairIPKcS2_EC1B7v160006IS2_S2_LPv0EEEOT_OT0_, symObjAddr: 0x4620, symBinAddr: 0x100005FA0, symSize: 0x30 }
  - { offsetInCU: 0x122A9, offset: 0x122A9, size: 0x8, addend: 0x0, symName: __ZNSt3__14pairIPKcS2_EC2B7v160006IS2_S2_LPv0EEEOT_OT0_, symObjAddr: 0x4650, symBinAddr: 0x100005FD0, symSize: 0x110 }
  - { offsetInCU: 0x12307, offset: 0x12307, size: 0x8, addend: 0x0, symName: __ZNSt3__118__unwrap_iter_implIPKcLb1EE8__unwrapB7v160006ES2_, symObjAddr: 0x4760, symBinAddr: 0x1000060E0, symSize: 0x20 }
  - { offsetInCU: 0x12334, offset: 0x12334, size: 0x8, addend: 0x0, symName: __ZNSt3__14pairIPKcPcEC1B7v160006IRS2_S3_LPv0EEEOT_OT0_, symObjAddr: 0x4C50, symBinAddr: 0x1000065D0, symSize: 0x30 }
  - { offsetInCU: 0x12392, offset: 0x12392, size: 0x8, addend: 0x0, symName: __ZNSt3__14pairIPKcPcEC2B7v160006IRS2_S3_LPv0EEEOT_OT0_, symObjAddr: 0x4C80, symBinAddr: 0x100006600, symSize: 0x110 }
  - { offsetInCU: 0x123F0, offset: 0x123F0, size: 0x8, addend: 0x0, symName: __ZNSt3__118__unwrap_iter_implIPcLb1EE8__unwrapB7v160006ES1_, symObjAddr: 0x4D90, symBinAddr: 0x100006710, symSize: 0x20 }
  - { offsetInCU: 0x12413, offset: 0x12413, size: 0x8, addend: 0x0, symName: __ZNSt3__14pairIPKcPcEC1B7v160006IS2_S3_LPv0EEEOT_OT0_, symObjAddr: 0x4DB0, symBinAddr: 0x100006730, symSize: 0x30 }
  - { offsetInCU: 0x12471, offset: 0x12471, size: 0x8, addend: 0x0, symName: __ZNSt3__14pairIPKcPcEC2B7v160006IS2_S3_LPv0EEEOT_OT0_, symObjAddr: 0x4DE0, symBinAddr: 0x100006760, symSize: 0x110 }
  - { offsetInCU: 0x124CF, offset: 0x124CF, size: 0x8, addend: 0x0, symName: __ZNSt3__118__unwrap_iter_implIPKcLb1EE8__rewrapB7v160006ES2_S2_, symObjAddr: 0x4F40, symBinAddr: 0x1000068C0, symSize: 0x40 }
  - { offsetInCU: 0x12500, offset: 0x12500, size: 0x8, addend: 0x0, symName: __ZNSt3__118__unwrap_iter_implIPcLb1EE8__rewrapB7v160006ES1_S1_, symObjAddr: 0x4F80, symBinAddr: 0x100006900, symSize: 0x40 }
  - { offsetInCU: 0x12531, offset: 0x12531, size: 0x8, addend: 0x0, symName: __ZNSt3__119basic_istringstreamIcNS_11char_traitsIcEENS_9allocatorIcEEEC1B7v160006ERKNS_12basic_stringIcS2_S4_EEj, symObjAddr: 0x50F0, symBinAddr: 0x100006A70, symSize: 0x1B0 }
  - { offsetInCU: 0x12579, offset: 0x12579, size: 0x8, addend: 0x0, symName: __ZNSt3__15dequeINS_12basic_stringIcNS_11char_traitsIcEENS_9allocatorIcEEEENS4_IS6_EEEC1B7v160006Ev, symObjAddr: 0x52A0, symBinAddr: 0x100006C20, symSize: 0x20 }
  - { offsetInCU: 0x125A3, offset: 0x125A3, size: 0x8, addend: 0x0, symName: __ZNKSt3__19basic_iosIcNS_11char_traitsIcEEEcvbB7v160006Ev, symObjAddr: 0x5930, symBinAddr: 0x1000072B0, symSize: 0x30 }
  - { offsetInCU: 0x125C9, offset: 0x125C9, size: 0x8, addend: 0x0, symName: __ZNSt3__15dequeINS_12basic_stringIcNS_11char_traitsIcEENS_9allocatorIcEEEENS4_IS6_EEE9push_backERKS6_, symObjAddr: 0x5960, symBinAddr: 0x1000072E0, symSize: 0x260 }
  - { offsetInCU: 0x12612, offset: 0x12612, size: 0x8, addend: 0x0, symName: __ZN5Codec5buildERNSt3__15dequeINS0_12basic_stringIcNS0_11char_traitsIcEENS0_9allocatorIcEEEENS5_IS7_EEEE, symObjAddr: 0x5BC0, symBinAddr: 0x100007540, symSize: 0x430 }
  - { offsetInCU: 0x12669, offset: 0x12669, size: 0x8, addend: 0x0, symName: __ZNSt3__15dequeINS_12basic_stringIcNS_11char_traitsIcEENS_9allocatorIcEEEENS4_IS6_EEED1B7v160006Ev, symObjAddr: 0x5FF0, symBinAddr: 0x100007970, symSize: 0x20 }
  - { offsetInCU: 0x12698, offset: 0x12698, size: 0x8, addend: 0x0, symName: __ZNSt3__119basic_istringstreamIcNS_11char_traitsIcEENS_9allocatorIcEEED1Ev, symObjAddr: 0x6010, symBinAddr: 0x100007990, symSize: 0x40 }
  - { offsetInCU: 0x126C5, offset: 0x126C5, size: 0x8, addend: 0x0, symName: __ZNSt3__19basic_iosIcNS_11char_traitsIcEEEC2B7v160006Ev, symObjAddr: 0x6050, symBinAddr: 0x1000079D0, symSize: 0x60 }
  - { offsetInCU: 0x126EF, offset: 0x126EF, size: 0x8, addend: 0x0, symName: __ZNSt3__113basic_istreamIcNS_11char_traitsIcEEEC2B7v160006EPNS_15basic_streambufIcS2_EE, symObjAddr: 0x60B0, symBinAddr: 0x100007A30, symSize: 0x1D0 }
  - { offsetInCU: 0x12734, offset: 0x12734, size: 0x8, addend: 0x0, symName: __ZNSt3__115basic_stringbufIcNS_11char_traitsIcEENS_9allocatorIcEEEC1B7v160006ERKNS_12basic_stringIcS2_S4_EEj, symObjAddr: 0x6280, symBinAddr: 0x100007C00, symSize: 0x30 }
  - { offsetInCU: 0x1277A, offset: 0x1277A, size: 0x8, addend: 0x0, symName: __ZNSt3__18ios_baseC2B7v160006Ev, symObjAddr: 0x62B0, symBinAddr: 0x100007C30, symSize: 0x60 }
  - { offsetInCU: 0x127A4, offset: 0x127A4, size: 0x8, addend: 0x0, symName: __ZNSt3__19basic_iosIcNS_11char_traitsIcEEE4initB7v160006EPNS_15basic_streambufIcS2_EE, symObjAddr: 0x6310, symBinAddr: 0x100007C90, symSize: 0xD0 }
  - { offsetInCU: 0x127DB, offset: 0x127DB, size: 0x8, addend: 0x0, symName: __ZNSt3__111char_traitsIcE3eofEv, symObjAddr: 0x63E0, symBinAddr: 0x100007D60, symSize: 0x10 }
  - { offsetInCU: 0x127EF, offset: 0x127EF, size: 0x8, addend: 0x0, symName: __ZNSt3__115basic_stringbufIcNS_11char_traitsIcEENS_9allocatorIcEEEC2B7v160006ERKNS_12basic_stringIcS2_S4_EEj, symObjAddr: 0x63F0, symBinAddr: 0x100007D70, symSize: 0x2F0 }
  - { offsetInCU: 0x12838, offset: 0x12838, size: 0x8, addend: 0x0, symName: __ZNSt3__112basic_stringIcNS_11char_traitsIcEENS_9allocatorIcEEEC1B7v160006ERKS4_, symObjAddr: 0x66E0, symBinAddr: 0x100008060, symSize: 0x30 }
  - { offsetInCU: 0x12871, offset: 0x12871, size: 0x8, addend: 0x0, symName: __ZNSt3__112basic_stringIcNS_11char_traitsIcEENS_9allocatorIcEEEC2B7v160006ERKS4_, symObjAddr: 0x6710, symBinAddr: 0x100008090, symSize: 0x180 }
  - { offsetInCU: 0x128AC, offset: 0x128AC, size: 0x8, addend: 0x0, symName: __ZNSt3__15dequeINS_12basic_stringIcNS_11char_traitsIcEENS_9allocatorIcEEEENS4_IS6_EEEC2B7v160006Ev, symObjAddr: 0x6890, symBinAddr: 0x100008210, symSize: 0x230 }
  - { offsetInCU: 0x128D7, offset: 0x128D7, size: 0x8, addend: 0x0, symName: __ZNSt3__114__split_bufferIPNS_12basic_stringIcNS_11char_traitsIcEENS_9allocatorIcEEEENS4_IS7_EEEC1Ev, symObjAddr: 0x6AC0, symBinAddr: 0x100008440, symSize: 0x20 }
  - { offsetInCU: 0x12908, offset: 0x12908, size: 0x8, addend: 0x0, symName: __ZNSt3__117__compressed_pairImNS_9allocatorINS_12basic_stringIcNS_11char_traitsIcEENS1_IcEEEEEEEC1B7v160006IiNS_18__default_init_tagEEEOT_OT0_, symObjAddr: 0x6AE0, symBinAddr: 0x100008460, symSize: 0x30 }
  - { offsetInCU: 0x12960, offset: 0x12960, size: 0x8, addend: 0x0, symName: __ZNSt3__114__split_bufferIPNS_12basic_stringIcNS_11char_traitsIcEENS_9allocatorIcEEEENS4_IS7_EEEC2Ev, symObjAddr: 0x6B10, symBinAddr: 0x100008490, symSize: 0x290 }
  - { offsetInCU: 0x12992, offset: 0x12992, size: 0x8, addend: 0x0, symName: __ZNSt3__117__compressed_pairIPPNS_12basic_stringIcNS_11char_traitsIcEENS_9allocatorIcEEEENS4_IS7_EEEC1B7v160006IDnNS_18__default_init_tagEEEOT_OT0_, symObjAddr: 0x6DA0, symBinAddr: 0x100008720, symSize: 0x30 }
  - { offsetInCU: 0x129EA, offset: 0x129EA, size: 0x8, addend: 0x0, symName: __ZNSt3__117__compressed_pairIPPNS_12basic_stringIcNS_11char_traitsIcEENS_9allocatorIcEEEENS4_IS7_EEEC2B7v160006IDnNS_18__default_init_tagEEEOT_OT0_, symObjAddr: 0x6DD0, symBinAddr: 0x100008750, symSize: 0x40 }
  - { offsetInCU: 0x12A42, offset: 0x12A42, size: 0x8, addend: 0x0, symName: __ZNSt3__122__compressed_pair_elemIPPNS_12basic_stringIcNS_11char_traitsIcEENS_9allocatorIcEEEELi0ELb0EEC2B7v160006IDnvEEOT_, symObjAddr: 0x6E10, symBinAddr: 0x100008790, symSize: 0x50 }
  - { offsetInCU: 0x12A84, offset: 0x12A84, size: 0x8, addend: 0x0, symName: __ZNSt3__122__compressed_pair_elemINS_9allocatorIPNS_12basic_stringIcNS_11char_traitsIcEENS1_IcEEEEEELi1ELb1EEC2B7v160006ENS_18__default_init_tagE, symObjAddr: 0x6E60, symBinAddr: 0x1000087E0, symSize: 0x20 }
  - { offsetInCU: 0x12AB8, offset: 0x12AB8, size: 0x8, addend: 0x0, symName: __ZNSt3__19allocatorIPNS_12basic_stringIcNS_11char_traitsIcEENS0_IcEEEEEC2B7v160006Ev, symObjAddr: 0x6E80, symBinAddr: 0x100008800, symSize: 0x20 }
  - { offsetInCU: 0x12AE2, offset: 0x12AE2, size: 0x8, addend: 0x0, symName: __ZNSt3__116__non_trivial_ifILb1ENS_9allocatorIPNS_12basic_stringIcNS_11char_traitsIcEENS1_IcEEEEEEEC2B7v160006Ev, symObjAddr: 0x6EA0, symBinAddr: 0x100008820, symSize: 0x10 }
  - { offsetInCU: 0x12B0C, offset: 0x12B0C, size: 0x8, addend: 0x0, symName: __ZNSt3__117__compressed_pairImNS_9allocatorINS_12basic_stringIcNS_11char_traitsIcEENS1_IcEEEEEEEC2B7v160006IiNS_18__default_init_tagEEEOT_OT0_, symObjAddr: 0x6EB0, symBinAddr: 0x100008830, symSize: 0x40 }
  - { offsetInCU: 0x12B64, offset: 0x12B64, size: 0x8, addend: 0x0, symName: __ZNSt3__122__compressed_pair_elemImLi0ELb0EEC2B7v160006IivEEOT_, symObjAddr: 0x6EF0, symBinAddr: 0x100008870, symSize: 0xB0 }
  - { offsetInCU: 0x12BA6, offset: 0x12BA6, size: 0x8, addend: 0x0, symName: __ZNSt3__122__compressed_pair_elemINS_9allocatorINS_12basic_stringIcNS_11char_traitsIcEENS1_IcEEEEEELi1ELb1EEC2B7v160006ENS_18__default_init_tagE, symObjAddr: 0x6FA0, symBinAddr: 0x100008920, symSize: 0x20 }
  - { offsetInCU: 0x12BDA, offset: 0x12BDA, size: 0x8, addend: 0x0, symName: __ZNSt3__19allocatorINS_12basic_stringIcNS_11char_traitsIcEENS0_IcEEEEEC2B7v160006Ev, symObjAddr: 0x6FC0, symBinAddr: 0x100008940, symSize: 0x20 }
  - { offsetInCU: 0x12C04, offset: 0x12C04, size: 0x8, addend: 0x0, symName: __ZNSt3__116__non_trivial_ifILb1ENS_9allocatorINS_12basic_stringIcNS_11char_traitsIcEENS1_IcEEEEEEEC2B7v160006Ev, symObjAddr: 0x6FE0, symBinAddr: 0x100008960, symSize: 0x10 }
  - { offsetInCU: 0x12C4C, offset: 0x12C4C, size: 0x8, addend: 0x0, symName: __ZNKSt3__113basic_istreamIcNS_11char_traitsIcEEE6sentrycvbB7v160006Ev, symObjAddr: 0x6FF0, symBinAddr: 0x100008970, symSize: 0x70 }
  - { offsetInCU: 0x12C72, offset: 0x12C72, size: 0x8, addend: 0x0, symName: __ZNSt3__112basic_stringIcNS_11char_traitsIcEENS_9allocatorIcEEE5clearB7v160006Ev, symObjAddr: 0x7060, symBinAddr: 0x1000089E0, symSize: 0x280 }
  - { offsetInCU: 0x12C9B, offset: 0x12C9B, size: 0x8, addend: 0x0, symName: __ZNKSt3__19basic_iosIcNS_11char_traitsIcEEE5rdbufB7v160006Ev, symObjAddr: 0x72E0, symBinAddr: 0x100008C60, symSize: 0x20 }
  - { offsetInCU: 0x12CC3, offset: 0x12CC3, size: 0x8, addend: 0x0, symName: __ZNSt3__115basic_streambufIcNS_11char_traitsIcEEE6sbumpcB7v160006Ev, symObjAddr: 0x7300, symBinAddr: 0x100008C80, symSize: 0x1A0 }
  - { offsetInCU: 0x12CE9, offset: 0x12CE9, size: 0x8, addend: 0x0, symName: __ZNSt3__111char_traitsIcE11eq_int_typeEii, symObjAddr: 0x74A0, symBinAddr: 0x100008E20, symSize: 0x20 }
  - { offsetInCU: 0x12D1A, offset: 0x12D1A, size: 0x8, addend: 0x0, symName: __ZNSt3__111char_traitsIcE12to_char_typeEi, symObjAddr: 0x74C0, symBinAddr: 0x100008E40, symSize: 0x10 }
  - { offsetInCU: 0x12D3D, offset: 0x12D3D, size: 0x8, addend: 0x0, symName: __ZNSt3__111char_traitsIcE2eqEcc, symObjAddr: 0x74D0, symBinAddr: 0x100008E50, symSize: 0x30 }
  - { offsetInCU: 0x12D6E, offset: 0x12D6E, size: 0x8, addend: 0x0, symName: __ZNSt3__18ios_base18__setstate_nothrowB7v160006Ej, symObjAddr: 0x7500, symBinAddr: 0x100008E80, symSize: 0x120 }
  - { offsetInCU: 0x12DA3, offset: 0x12DA3, size: 0x8, addend: 0x0, symName: __ZNKSt3__19basic_iosIcNS_11char_traitsIcEEE10exceptionsB7v160006Ev, symObjAddr: 0x7620, symBinAddr: 0x100008FA0, symSize: 0x20 }
  - { offsetInCU: 0x12DC9, offset: 0x12DC9, size: 0x8, addend: 0x0, symName: __ZNSt3__19basic_iosIcNS_11char_traitsIcEEE8setstateB7v160006Ej, symObjAddr: 0x7640, symBinAddr: 0x100008FC0, symSize: 0x30 }
  - { offsetInCU: 0x12DFE, offset: 0x12DFE, size: 0x8, addend: 0x0, symName: __ZNSt3__111char_traitsIcE6assignERcRKc, symObjAddr: 0x7680, symBinAddr: 0x100009000, symSize: 0xB0 }
  - { offsetInCU: 0x12E2F, offset: 0x12E2F, size: 0x8, addend: 0x0, symName: __ZNKSt3__18ios_base5rdbufB7v160006Ev, symObjAddr: 0x7730, symBinAddr: 0x1000090B0, symSize: 0x50 }
  - { offsetInCU: 0x12E55, offset: 0x12E55, size: 0x8, addend: 0x0, symName: __ZNSt3__111char_traitsIcE11to_int_typeEc, symObjAddr: 0x7780, symBinAddr: 0x100009100, symSize: 0x10 }
  - { offsetInCU: 0x12E78, offset: 0x12E78, size: 0x8, addend: 0x0, symName: __ZNKSt3__18ios_base10exceptionsB7v160006Ev, symObjAddr: 0x7790, symBinAddr: 0x100009110, symSize: 0x70 }
  - { offsetInCU: 0x12EA0, offset: 0x12EA0, size: 0x8, addend: 0x0, symName: __ZNSt3__18ios_base8setstateB7v160006Ej, symObjAddr: 0x7800, symBinAddr: 0x100009180, symSize: 0x80 }
  - { offsetInCU: 0x12ED7, offset: 0x12ED7, size: 0x8, addend: 0x0, symName: __ZNKSt3__19basic_iosIcNS_11char_traitsIcEEE4failB7v160006Ev, symObjAddr: 0x7880, symBinAddr: 0x100009200, symSize: 0x20 }
  - { offsetInCU: 0x12EFD, offset: 0x12EFD, size: 0x8, addend: 0x0, symName: __ZNKSt3__18ios_base4failB7v160006Ev, symObjAddr: 0x78A0, symBinAddr: 0x100009220, symSize: 0x80 }
  - { offsetInCU: 0x12F25, offset: 0x12F25, size: 0x8, addend: 0x0, symName: __ZNSt3__15dequeINS_12basic_stringIcNS_11char_traitsIcEENS_9allocatorIcEEEENS4_IS6_EEE7__allocB7v160006Ev, symObjAddr: 0x7920, symBinAddr: 0x1000092A0, symSize: 0x20 }
  - { offsetInCU: 0x12F4B, offset: 0x12F4B, size: 0x8, addend: 0x0, symName: __ZNKSt3__15dequeINS_12basic_stringIcNS_11char_traitsIcEENS_9allocatorIcEEEENS4_IS6_EEE12__back_spareB7v160006Ev, symObjAddr: 0x7940, symBinAddr: 0x1000092C0, symSize: 0x80 }
  - { offsetInCU: 0x12F71, offset: 0x12F71, size: 0x8, addend: 0x0, symName: __ZNSt3__15dequeINS_12basic_stringIcNS_11char_traitsIcEENS_9allocatorIcEEEENS4_IS6_EEE19__add_back_capacityEv, symObjAddr: 0x79C0, symBinAddr: 0x100009340, symSize: 0xA20 }
  - { offsetInCU: 0x13031, offset: 0x13031, size: 0x8, addend: 0x0, symName: __ZNSt3__116allocator_traitsINS_9allocatorINS_12basic_stringIcNS_11char_traitsIcEENS1_IcEEEEEEE9constructB7v160006IS6_JRKS6_EvEEvRS7_PT_DpOT0_, symObjAddr: 0x83E0, symBinAddr: 0x100009D60, symSize: 0x30 }
  - { offsetInCU: 0x13088, offset: 0x13088, size: 0x8, addend: 0x0, symName: __ZNSt3__15dequeINS_12basic_stringIcNS_11char_traitsIcEENS_9allocatorIcEEEENS4_IS6_EEE3endB7v160006Ev, symObjAddr: 0x8410, symBinAddr: 0x100009D90, symSize: 0x2F0 }
  - { offsetInCU: 0x130CF, offset: 0x130CF, size: 0x8, addend: 0x0, symName: __ZNKSt3__116__deque_iteratorINS_12basic_stringIcNS_11char_traitsIcEENS_9allocatorIcEEEEPS6_RS6_PS7_lLl170EEdeB7v160006Ev, symObjAddr: 0x8700, symBinAddr: 0x10000A080, symSize: 0x50 }
  - { offsetInCU: 0x130F5, offset: 0x130F5, size: 0x8, addend: 0x0, symName: __ZNSt3__15dequeINS_12basic_stringIcNS_11char_traitsIcEENS_9allocatorIcEEEENS4_IS6_EEE6__sizeB7v160006Ev, symObjAddr: 0x8750, symBinAddr: 0x10000A0D0, symSize: 0x20 }
  - { offsetInCU: 0x1311B, offset: 0x1311B, size: 0x8, addend: 0x0, symName: __ZNSt3__117__compressed_pairImNS_9allocatorINS_12basic_stringIcNS_11char_traitsIcEENS1_IcEEEEEEE6secondB7v160006Ev, symObjAddr: 0x8770, symBinAddr: 0x10000A0F0, symSize: 0x20 }
  - { offsetInCU: 0x13141, offset: 0x13141, size: 0x8, addend: 0x0, symName: __ZNSt3__122__compressed_pair_elemINS_9allocatorINS_12basic_stringIcNS_11char_traitsIcEENS1_IcEEEEEELi1ELb1EE5__getB7v160006Ev, symObjAddr: 0x8790, symBinAddr: 0x10000A110, symSize: 0x10 }
  - { offsetInCU: 0x13167, offset: 0x13167, size: 0x8, addend: 0x0, symName: __ZNKSt3__15dequeINS_12basic_stringIcNS_11char_traitsIcEENS_9allocatorIcEEEENS4_IS6_EEE10__capacityB7v160006Ev, symObjAddr: 0x87A0, symBinAddr: 0x10000A120, symSize: 0x50 }
  - { offsetInCU: 0x1318D, offset: 0x1318D, size: 0x8, addend: 0x0, symName: __ZNKSt3__15dequeINS_12basic_stringIcNS_11char_traitsIcEENS_9allocatorIcEEEENS4_IS6_EEE4sizeB7v160006Ev, symObjAddr: 0x87F0, symBinAddr: 0x10000A170, symSize: 0x50 }
  - { offsetInCU: 0x131B3, offset: 0x131B3, size: 0x8, addend: 0x0, symName: __ZNKSt3__114__split_bufferIPNS_12basic_stringIcNS_11char_traitsIcEENS_9allocatorIcEEEENS4_IS7_EEE4sizeB7v160006Ev, symObjAddr: 0x8840, symBinAddr: 0x10000A1C0, symSize: 0xA0 }
  - { offsetInCU: 0x131D9, offset: 0x131D9, size: 0x8, addend: 0x0, symName: __ZNKSt3__15dequeINS_12basic_stringIcNS_11char_traitsIcEENS_9allocatorIcEEEENS4_IS6_EEE6__sizeB7v160006Ev, symObjAddr: 0x88E0, symBinAddr: 0x10000A260, symSize: 0x20 }
  - { offsetInCU: 0x131FF, offset: 0x131FF, size: 0x8, addend: 0x0, symName: __ZNKSt3__117__compressed_pairImNS_9allocatorINS_12basic_stringIcNS_11char_traitsIcEENS1_IcEEEEEEE5firstB7v160006Ev, symObjAddr: 0x8900, symBinAddr: 0x10000A280, symSize: 0x20 }
  - { offsetInCU: 0x13225, offset: 0x13225, size: 0x8, addend: 0x0, symName: __ZNKSt3__122__compressed_pair_elemImLi0ELb0EE5__getB7v160006Ev, symObjAddr: 0x8920, symBinAddr: 0x10000A2A0, symSize: 0x10 }
  - { offsetInCU: 0x1324B, offset: 0x1324B, size: 0x8, addend: 0x0, symName: __ZNKSt3__15dequeINS_12basic_stringIcNS_11char_traitsIcEENS_9allocatorIcEEEENS4_IS6_EEE13__front_spareB7v160006Ev, symObjAddr: 0x8930, symBinAddr: 0x10000A2B0, symSize: 0x50 }
  - { offsetInCU: 0x13271, offset: 0x13271, size: 0x8, addend: 0x0, symName: __ZNSt3__114__split_bufferIPNS_12basic_stringIcNS_11char_traitsIcEENS_9allocatorIcEEEENS4_IS7_EEE5frontB7v160006Ev, symObjAddr: 0x8980, symBinAddr: 0x10000A300, symSize: 0x50 }
  - { offsetInCU: 0x13297, offset: 0x13297, size: 0x8, addend: 0x0, symName: __ZNSt3__114__split_bufferIPNS_12basic_stringIcNS_11char_traitsIcEENS_9allocatorIcEEEENS4_IS7_EEE9pop_frontB7v160006Ev, symObjAddr: 0x89D0, symBinAddr: 0x10000A350, symSize: 0x60 }
  - { offsetInCU: 0x132BD, offset: 0x132BD, size: 0x8, addend: 0x0, symName: __ZNSt3__114__split_bufferIPNS_12basic_stringIcNS_11char_traitsIcEENS_9allocatorIcEEEENS4_IS7_EEE9push_backB7v160006ERKS7_, symObjAddr: 0x8A30, symBinAddr: 0x10000A3B0, symSize: 0xAC0 }
  - { offsetInCU: 0x1333C, offset: 0x1333C, size: 0x8, addend: 0x0, symName: __ZNKSt3__114__split_bufferIPNS_12basic_stringIcNS_11char_traitsIcEENS_9allocatorIcEEEENS4_IS7_EEE8capacityB7v160006Ev, symObjAddr: 0x94F0, symBinAddr: 0x10000AE70, symSize: 0x90 }
  - { offsetInCU: 0x13362, offset: 0x13362, size: 0x8, addend: 0x0, symName: __ZNKSt3__114__split_bufferIPNS_12basic_stringIcNS_11char_traitsIcEENS_9allocatorIcEEEENS4_IS7_EEE12__back_spareB7v160006Ev, symObjAddr: 0x9580, symBinAddr: 0x10000AF00, symSize: 0xA0 }
  - { offsetInCU: 0x13388, offset: 0x13388, size: 0x8, addend: 0x0, symName: __ZNSt3__114__split_bufferIPNS_12basic_stringIcNS_11char_traitsIcEENS_9allocatorIcEEEENS4_IS7_EEE9push_backEOS7_, symObjAddr: 0x9620, symBinAddr: 0x10000AFA0, symSize: 0xAC0 }
  - { offsetInCU: 0x13407, offset: 0x13407, size: 0x8, addend: 0x0, symName: __ZNSt3__116allocator_traitsINS_9allocatorINS_12basic_stringIcNS_11char_traitsIcEENS1_IcEEEEEEE8allocateB7v160006ERS7_m, symObjAddr: 0xA0E0, symBinAddr: 0x10000BA60, symSize: 0x30 }
  - { offsetInCU: 0x1343A, offset: 0x1343A, size: 0x8, addend: 0x0, symName: __ZNSt3__114__split_bufferIPNS_12basic_stringIcNS_11char_traitsIcEENS_9allocatorIcEEEENS4_IS7_EEE10push_frontEOS7_, symObjAddr: 0xA110, symBinAddr: 0x10000BA90, symSize: 0xAE0 }
  - { offsetInCU: 0x134B9, offset: 0x134B9, size: 0x8, addend: 0x0, symName: __ZNSt3__114__split_bufferIPNS_12basic_stringIcNS_11char_traitsIcEENS_9allocatorIcEEEENS4_IS7_EEE7__allocB7v160006Ev, symObjAddr: 0xAC20, symBinAddr: 0x10000C5A0, symSize: 0x20 }
  - { offsetInCU: 0x134DF, offset: 0x134DF, size: 0x8, addend: 0x0, symName: __ZNSt3__114__split_bufferIPNS_12basic_stringIcNS_11char_traitsIcEENS_9allocatorIcEEEERNS4_IS7_EEEC1EmmS9_, symObjAddr: 0xAC40, symBinAddr: 0x10000C5C0, symSize: 0x40 }
  - { offsetInCU: 0x1353A, offset: 0x1353A, size: 0x8, addend: 0x0, symName: __ZNSt3__122__allocator_destructorINS_9allocatorINS_12basic_stringIcNS_11char_traitsIcEENS1_IcEEEEEEEC1B7v160006ERS7_m, symObjAddr: 0xAC80, symBinAddr: 0x10000C600, symSize: 0x30 }
  - { offsetInCU: 0x135E9, offset: 0x135E9, size: 0x8, addend: 0x0, symName: __ZNSt3__110unique_ptrIPNS_12basic_stringIcNS_11char_traitsIcEENS_9allocatorIcEEEENS_22__allocator_destructorINS4_IS6_EEEEEC1B7v160006ILb1EvEES7_NS_16__dependent_typeINS_27__unique_ptr_deleter_sfinaeISA_EEXT_EE20__good_rval_ref_typeE, symObjAddr: 0xACB0, symBinAddr: 0x10000C630, symSize: 0x30 }
  - { offsetInCU: 0x1363A, offset: 0x1363A, size: 0x8, addend: 0x0, symName: __ZNSt3__114__split_bufferIPNS_12basic_stringIcNS_11char_traitsIcEENS_9allocatorIcEEEERNS4_IS7_EEE9push_backEOS7_, symObjAddr: 0xACE0, symBinAddr: 0x10000C660, symSize: 0xAC0 }
  - { offsetInCU: 0x136B9, offset: 0x136B9, size: 0x8, addend: 0x0, symName: __ZNKSt3__110unique_ptrIPNS_12basic_stringIcNS_11char_traitsIcEENS_9allocatorIcEEEENS_22__allocator_destructorINS4_IS6_EEEEE3getB7v160006Ev, symObjAddr: 0xB7A0, symBinAddr: 0x10000D120, symSize: 0x50 }
  - { offsetInCU: 0x136DF, offset: 0x136DF, size: 0x8, addend: 0x0, symName: __ZNSt3__110unique_ptrIPNS_12basic_stringIcNS_11char_traitsIcEENS_9allocatorIcEEEENS_22__allocator_destructorINS4_IS6_EEEEE7releaseB7v160006Ev, symObjAddr: 0xB7F0, symBinAddr: 0x10000D170, symSize: 0xA0 }
  - { offsetInCU: 0x13714, offset: 0x13714, size: 0x8, addend: 0x0, symName: __ZNSt3__114__split_bufferIPNS_12basic_stringIcNS_11char_traitsIcEENS_9allocatorIcEEEENS4_IS7_EEE3endB7v160006Ev, symObjAddr: 0xB890, symBinAddr: 0x10000D210, symSize: 0x50 }
  - { offsetInCU: 0x1373A, offset: 0x1373A, size: 0x8, addend: 0x0, symName: __ZNSt3__114__split_bufferIPNS_12basic_stringIcNS_11char_traitsIcEENS_9allocatorIcEEEENS4_IS7_EEE5beginB7v160006Ev, symObjAddr: 0xB8E0, symBinAddr: 0x10000D260, symSize: 0x50 }
  - { offsetInCU: 0x13760, offset: 0x13760, size: 0x8, addend: 0x0, symName: __ZNSt3__114__split_bufferIPNS_12basic_stringIcNS_11char_traitsIcEENS_9allocatorIcEEEERNS4_IS7_EEE10push_frontERKS7_, symObjAddr: 0xB930, symBinAddr: 0x10000D2B0, symSize: 0xAE0 }
  - { offsetInCU: 0x137DF, offset: 0x137DF, size: 0x8, addend: 0x0, symName: __ZNSt3__114__split_bufferIPNS_12basic_stringIcNS_11char_traitsIcEENS_9allocatorIcEEEENS4_IS7_EEE9__end_capB7v160006Ev, symObjAddr: 0xC510, symBinAddr: 0x10000DE90, symSize: 0x20 }
  - { offsetInCU: 0x13805, offset: 0x13805, size: 0x8, addend: 0x0, symName: __ZNSt3__114__split_bufferIPNS_12basic_stringIcNS_11char_traitsIcEENS_9allocatorIcEEEERNS4_IS7_EEE9__end_capB7v160006Ev, symObjAddr: 0xC530, symBinAddr: 0x10000DEB0, symSize: 0x20 }
  - { offsetInCU: 0x1382B, offset: 0x1382B, size: 0x8, addend: 0x0, symName: __ZNSt3__110unique_ptrIPNS_12basic_stringIcNS_11char_traitsIcEENS_9allocatorIcEEEENS_22__allocator_destructorINS4_IS6_EEEEED1B7v160006Ev, symObjAddr: 0xC550, symBinAddr: 0x10000DED0, symSize: 0x20 }
  - { offsetInCU: 0x13855, offset: 0x13855, size: 0x8, addend: 0x0, symName: __ZNSt3__114__split_bufferIPNS_12basic_stringIcNS_11char_traitsIcEENS_9allocatorIcEEEERNS4_IS7_EEED1Ev, symObjAddr: 0xC570, symBinAddr: 0x10000DEF0, symSize: 0x20 }
  - { offsetInCU: 0x13881, offset: 0x13881, size: 0x8, addend: 0x0, symName: __ZNSt3__114__split_bufferIPNS_12basic_stringIcNS_11char_traitsIcEENS_9allocatorIcEEEENS4_IS7_EEE19__destruct_at_beginB7v160006EPS7_, symObjAddr: 0xC590, symBinAddr: 0x10000DF10, symSize: 0x30 }
  - { offsetInCU: 0x138B5, offset: 0x138B5, size: 0x8, addend: 0x0, symName: __ZNSt3__114__split_bufferIPNS_12basic_stringIcNS_11char_traitsIcEENS_9allocatorIcEEEENS4_IS7_EEE19__destruct_at_beginEPS7_NS_17integral_constantIbLb1EEE, symObjAddr: 0xC5C0, symBinAddr: 0x10000DF40, symSize: 0x60 }
  - { offsetInCU: 0x138F5, offset: 0x138F5, size: 0x8, addend: 0x0, symName: __ZNSt3__114__split_bufferIPNS_12basic_stringIcNS_11char_traitsIcEENS_9allocatorIcEEEERNS4_IS7_EEE18__construct_at_endINS_13move_iteratorIPS7_EEEENS_9enable_ifIXsr27__is_cpp17_forward_iteratorIT_EE5valueEvE4typeESG_SG_, symObjAddr: 0xC840, symBinAddr: 0x10000E1C0, symSize: 0x590 }
  - { offsetInCU: 0x1395E, offset: 0x1395E, size: 0x8, addend: 0x0, symName: __ZNSt3__113move_iteratorIPPNS_12basic_stringIcNS_11char_traitsIcEENS_9allocatorIcEEEEEC1B7v160006ES8_, symObjAddr: 0xCDD0, symBinAddr: 0x10000E750, symSize: 0x30 }
  - { offsetInCU: 0x1399B, offset: 0x1399B, size: 0x8, addend: 0x0, symName: __ZNSt3__116allocator_traitsINS_9allocatorIPNS_12basic_stringIcNS_11char_traitsIcEENS1_IcEEEEEEE9constructB7v160006IS7_JRKS7_EvEEvRS8_PT_DpOT0_, symObjAddr: 0xCE00, symBinAddr: 0x10000E780, symSize: 0x30 }
  - { offsetInCU: 0x13A15, offset: 0x13A15, size: 0x8, addend: 0x0, symName: __ZNKSt3__114__move_trivialclB7v160006IPNS_12basic_stringIcNS_11char_traitsIcEENS_9allocatorIcEEEES8_Li0EEENS_4pairIPT_PT0_EESB_SB_SD_, symObjAddr: 0xDBB0, symBinAddr: 0x10000F530, symSize: 0x210 }
  - { offsetInCU: 0x13A86, offset: 0x13A86, size: 0x8, addend: 0x0, symName: __ZNSt3__14pairIPPNS_12basic_stringIcNS_11char_traitsIcEENS_9allocatorIcEEEES8_EC1B7v160006IRS8_S8_LPv0EEEOT_OT0_, symObjAddr: 0xE4D0, symBinAddr: 0x10000FE50, symSize: 0x30 }
  - { offsetInCU: 0x13AE4, offset: 0x13AE4, size: 0x8, addend: 0x0, symName: __ZNSt3__14pairIPPNS_12basic_stringIcNS_11char_traitsIcEENS_9allocatorIcEEEES8_EC2B7v160006IRS8_S8_LPv0EEEOT_OT0_, symObjAddr: 0xE500, symBinAddr: 0x10000FE80, symSize: 0x110 }
  - { offsetInCU: 0x13B42, offset: 0x13B42, size: 0x8, addend: 0x0, symName: __ZNSt3__118__unwrap_iter_implIPPNS_12basic_stringIcNS_11char_traitsIcEENS_9allocatorIcEEEELb1EE8__unwrapB7v160006ES8_, symObjAddr: 0xE610, symBinAddr: 0x10000FF90, symSize: 0x20 }
  - { offsetInCU: 0x13B65, offset: 0x13B65, size: 0x8, addend: 0x0, symName: __ZNSt3__14pairIPPNS_12basic_stringIcNS_11char_traitsIcEENS_9allocatorIcEEEES8_EC1B7v160006IS8_S8_LPv0EEEOT_OT0_, symObjAddr: 0xE630, symBinAddr: 0x10000FFB0, symSize: 0x30 }
  - { offsetInCU: 0x13BC3, offset: 0x13BC3, size: 0x8, addend: 0x0, symName: __ZNSt3__14pairIPPNS_12basic_stringIcNS_11char_traitsIcEENS_9allocatorIcEEEES8_EC2B7v160006IS8_S8_LPv0EEEOT_OT0_, symObjAddr: 0xE660, symBinAddr: 0x10000FFE0, symSize: 0x110 }
  - { offsetInCU: 0x13C21, offset: 0x13C21, size: 0x8, addend: 0x0, symName: __ZNSt3__118__unwrap_iter_implIPPNS_12basic_stringIcNS_11char_traitsIcEENS_9allocatorIcEEEELb1EE8__rewrapB7v160006ES8_S8_, symObjAddr: 0xE770, symBinAddr: 0x1000100F0, symSize: 0x50 }
  - { offsetInCU: 0x13C5C, offset: 0x13C5C, size: 0x8, addend: 0x0, symName: __ZNSt3__114__split_bufferIPNS_12basic_stringIcNS_11char_traitsIcEENS_9allocatorIcEEEERNS4_IS7_EEE21_ConstructTransactionC1B7v160006EPPS7_m, symObjAddr: 0xEA80, symBinAddr: 0x100010400, symSize: 0x30 }
  - { offsetInCU: 0x13CA2, offset: 0x13CA2, size: 0x8, addend: 0x0, symName: __ZNSt3__116allocator_traitsINS_9allocatorIPNS_12basic_stringIcNS_11char_traitsIcEENS1_IcEEEEEEE9constructB7v160006IS7_JS7_EvEEvRS8_PT_DpOT0_, symObjAddr: 0xEAB0, symBinAddr: 0x100010430, symSize: 0x30 }
  - { offsetInCU: 0x13CF9, offset: 0x13CF9, size: 0x8, addend: 0x0, symName: __ZNSt3__114__split_bufferIPNS_12basic_stringIcNS_11char_traitsIcEENS_9allocatorIcEEEERNS4_IS7_EEE7__allocB7v160006Ev, symObjAddr: 0xEAE0, symBinAddr: 0x100010460, symSize: 0x20 }
  - { offsetInCU: 0x13D1F, offset: 0x13D1F, size: 0x8, addend: 0x0, symName: __ZNKSt3__113move_iteratorIPPNS_12basic_stringIcNS_11char_traitsIcEENS_9allocatorIcEEEEEdeB7v160006Ev, symObjAddr: 0xEB00, symBinAddr: 0x100010480, symSize: 0x50 }
  - { offsetInCU: 0x13D45, offset: 0x13D45, size: 0x8, addend: 0x0, symName: __ZNSt3__113move_iteratorIPPNS_12basic_stringIcNS_11char_traitsIcEENS_9allocatorIcEEEEEppB7v160006Ev, symObjAddr: 0xEB50, symBinAddr: 0x1000104D0, symSize: 0x50 }
  - { offsetInCU: 0x13D6B, offset: 0x13D6B, size: 0x8, addend: 0x0, symName: __ZNSt3__114__split_bufferIPNS_12basic_stringIcNS_11char_traitsIcEENS_9allocatorIcEEEERNS4_IS7_EEE21_ConstructTransactionD1B7v160006Ev, symObjAddr: 0xEBA0, symBinAddr: 0x100010520, symSize: 0x20 }
  - { offsetInCU: 0x13D95, offset: 0x13D95, size: 0x8, addend: 0x0, symName: __ZNKSt3__113move_iteratorIPPNS_12basic_stringIcNS_11char_traitsIcEENS_9allocatorIcEEEEE4baseB7v160006Ev, symObjAddr: 0xEDE0, symBinAddr: 0x100010760, symSize: 0x50 }
  - { offsetInCU: 0x13DBB, offset: 0x13DBB, size: 0x8, addend: 0x0, symName: __ZNSt3__114__split_bufferIPNS_12basic_stringIcNS_11char_traitsIcEENS_9allocatorIcEEEERNS4_IS7_EEE21_ConstructTransactionC2B7v160006EPPS7_m, symObjAddr: 0xEE30, symBinAddr: 0x1000107B0, symSize: 0x160 }
  - { offsetInCU: 0x13E01, offset: 0x13E01, size: 0x8, addend: 0x0, symName: __ZNSt3__19allocatorIPNS_12basic_stringIcNS_11char_traitsIcEENS0_IcEEEEE9constructB7v160006IS6_JS6_EEEvPT_DpOT0_, symObjAddr: 0xEF90, symBinAddr: 0x100010910, symSize: 0x90 }
  - { offsetInCU: 0x13E57, offset: 0x13E57, size: 0x8, addend: 0x0, symName: __ZNSt3__117__compressed_pairIPPNS_12basic_stringIcNS_11char_traitsIcEENS_9allocatorIcEEEERNS4_IS7_EEE6secondB7v160006Ev, symObjAddr: 0xF020, symBinAddr: 0x1000109A0, symSize: 0x20 }
  - { offsetInCU: 0x13E7D, offset: 0x13E7D, size: 0x8, addend: 0x0, symName: __ZNSt3__122__compressed_pair_elemIRNS_9allocatorIPNS_12basic_stringIcNS_11char_traitsIcEENS1_IcEEEEEELi1ELb0EE5__getB7v160006Ev, symObjAddr: 0xF040, symBinAddr: 0x1000109C0, symSize: 0x50 }
  - { offsetInCU: 0x13EA3, offset: 0x13EA3, size: 0x8, addend: 0x0, symName: __ZNSt3__114__split_bufferIPNS_12basic_stringIcNS_11char_traitsIcEENS_9allocatorIcEEEERNS4_IS7_EEE21_ConstructTransactionD2B7v160006Ev, symObjAddr: 0xF090, symBinAddr: 0x100010A10, symSize: 0xC0 }
  - { offsetInCU: 0x13ECD, offset: 0x13ECD, size: 0x8, addend: 0x0, symName: __ZNSt3__113move_iteratorIPPNS_12basic_stringIcNS_11char_traitsIcEENS_9allocatorIcEEEEEC2B7v160006ES8_, symObjAddr: 0xF150, symBinAddr: 0x100010AD0, symSize: 0x60 }
  - { offsetInCU: 0x13F05, offset: 0x13F05, size: 0x8, addend: 0x0, symName: __ZNSt3__19allocatorIPNS_12basic_stringIcNS_11char_traitsIcEENS0_IcEEEEE9constructB7v160006IS6_JRKS6_EEEvPT_DpOT0_, symObjAddr: 0xF1B0, symBinAddr: 0x100010B30, symSize: 0x90 }
  - { offsetInCU: 0x13F5B, offset: 0x13F5B, size: 0x8, addend: 0x0, symName: __ZNKSt3__114__split_bufferIPNS_12basic_stringIcNS_11char_traitsIcEENS_9allocatorIcEEEENS4_IS7_EEE9__end_capB7v160006Ev, symObjAddr: 0xF240, symBinAddr: 0x100010BC0, symSize: 0x20 }
  - { offsetInCU: 0x13F81, offset: 0x13F81, size: 0x8, addend: 0x0, symName: __ZNKSt3__117__compressed_pairIPPNS_12basic_stringIcNS_11char_traitsIcEENS_9allocatorIcEEEENS4_IS7_EEE5firstB7v160006Ev, symObjAddr: 0xF260, symBinAddr: 0x100010BE0, symSize: 0x20 }
  - { offsetInCU: 0x13FA7, offset: 0x13FA7, size: 0x8, addend: 0x0, symName: __ZNKSt3__122__compressed_pair_elemIPPNS_12basic_stringIcNS_11char_traitsIcEENS_9allocatorIcEEEELi0ELb0EE5__getB7v160006Ev, symObjAddr: 0xF280, symBinAddr: 0x100010C00, symSize: 0x10 }
  - { offsetInCU: 0x13FCD, offset: 0x13FCD, size: 0x8, addend: 0x0, symName: __ZNSt3__19allocatorINS_12basic_stringIcNS_11char_traitsIcEENS0_IcEEEEE8allocateB7v160006Em, symObjAddr: 0xF290, symBinAddr: 0x100010C10, symSize: 0x50 }
  - { offsetInCU: 0x1400B, offset: 0x1400B, size: 0x8, addend: 0x0, symName: __ZNSt3__116allocator_traitsINS_9allocatorINS_12basic_stringIcNS_11char_traitsIcEENS1_IcEEEEEEE8max_sizeB7v160006IS7_vEEmRKS7_, symObjAddr: 0xF2E0, symBinAddr: 0x100010C60, symSize: 0x20 }
  - { offsetInCU: 0x14039, offset: 0x14039, size: 0x8, addend: 0x0, symName: __ZNKSt3__19allocatorINS_12basic_stringIcNS_11char_traitsIcEENS0_IcEEEEE8max_sizeB7v160006Ev, symObjAddr: 0xF300, symBinAddr: 0x100010C80, symSize: 0x20 }
  - { offsetInCU: 0x14069, offset: 0x14069, size: 0x8, addend: 0x0, symName: __ZNKSt3__123__move_backward_trivialclB7v160006IPNS_12basic_stringIcNS_11char_traitsIcEENS_9allocatorIcEEEES8_Li0EEENS_4pairIPT_PT0_EESB_SB_SD_, symObjAddr: 0xFFB0, symBinAddr: 0x100011930, symSize: 0x210 }
  - { offsetInCU: 0x140D5, offset: 0x140D5, size: 0x8, addend: 0x0, symName: __ZNSt3__14pairIPPNS_12basic_stringIcNS_11char_traitsIcEENS_9allocatorIcEEEES8_EC1B7v160006IRS8_SB_LPv0EEEOT_OT0_, symObjAddr: 0x106C0, symBinAddr: 0x100012040, symSize: 0x30 }
  - { offsetInCU: 0x14133, offset: 0x14133, size: 0x8, addend: 0x0, symName: __ZNSt3__14pairIPPNS_12basic_stringIcNS_11char_traitsIcEENS_9allocatorIcEEEES8_EC2B7v160006IRS8_SB_LPv0EEEOT_OT0_, symObjAddr: 0x106F0, symBinAddr: 0x100012070, symSize: 0x110 }
  - { offsetInCU: 0x1419B, offset: 0x1419B, size: 0x8, addend: 0x0, symName: __ZNKSt3__16__lessImmEclB7v160006ERKmS3_, symObjAddr: 0x10970, symBinAddr: 0x1000122F0, symSize: 0xA0 }
  - { offsetInCU: 0x141DD, offset: 0x141DD, size: 0x8, addend: 0x0, symName: __ZNSt3__117__compressed_pairIPPNS_12basic_stringIcNS_11char_traitsIcEENS_9allocatorIcEEEENS4_IS7_EEE6secondB7v160006Ev, symObjAddr: 0x10A10, symBinAddr: 0x100012390, symSize: 0x20 }
  - { offsetInCU: 0x14203, offset: 0x14203, size: 0x8, addend: 0x0, symName: __ZNSt3__122__compressed_pair_elemINS_9allocatorIPNS_12basic_stringIcNS_11char_traitsIcEENS1_IcEEEEEELi1ELb1EE5__getB7v160006Ev, symObjAddr: 0x10A30, symBinAddr: 0x1000123B0, symSize: 0x10 }
  - { offsetInCU: 0x14229, offset: 0x14229, size: 0x8, addend: 0x0, symName: __ZNSt3__114__split_bufferIPNS_12basic_stringIcNS_11char_traitsIcEENS_9allocatorIcEEEERNS4_IS7_EEEC2EmmS9_, symObjAddr: 0x10A40, symBinAddr: 0x1000123C0, symSize: 0x4C0 }
  - { offsetInCU: 0x142A4, offset: 0x142A4, size: 0x8, addend: 0x0, symName: __ZNSt3__117__compressed_pairIPPNS_12basic_stringIcNS_11char_traitsIcEENS_9allocatorIcEEEERNS4_IS7_EEEC1B7v160006IDnSA_EEOT_OT0_, symObjAddr: 0x10F00, symBinAddr: 0x100012880, symSize: 0x30 }
  - { offsetInCU: 0x142FC, offset: 0x142FC, size: 0x8, addend: 0x0, symName: __ZNSt3__117__compressed_pairIPPNS_12basic_stringIcNS_11char_traitsIcEENS_9allocatorIcEEEERNS4_IS7_EEEC2B7v160006IDnSA_EEOT_OT0_, symObjAddr: 0x11140, symBinAddr: 0x100012AC0, symSize: 0x40 }
  - { offsetInCU: 0x14354, offset: 0x14354, size: 0x8, addend: 0x0, symName: __ZNSt3__122__compressed_pair_elemIRNS_9allocatorIPNS_12basic_stringIcNS_11char_traitsIcEENS1_IcEEEEEELi1ELb0EEC2B7v160006IS9_vEEOT_, symObjAddr: 0x11180, symBinAddr: 0x100012B00, symSize: 0x60 }
  - { offsetInCU: 0x14396, offset: 0x14396, size: 0x8, addend: 0x0, symName: __ZNSt3__19allocatorIPNS_12basic_stringIcNS_11char_traitsIcEENS0_IcEEEEE8allocateB7v160006Em, symObjAddr: 0x111E0, symBinAddr: 0x100012B60, symSize: 0x60 }
  - { offsetInCU: 0x143D4, offset: 0x143D4, size: 0x8, addend: 0x0, symName: __ZNSt3__116allocator_traitsINS_9allocatorIPNS_12basic_stringIcNS_11char_traitsIcEENS1_IcEEEEEEE8max_sizeB7v160006IS8_vEEmRKS8_, symObjAddr: 0x11240, symBinAddr: 0x100012BC0, symSize: 0x20 }
  - { offsetInCU: 0x14402, offset: 0x14402, size: 0x8, addend: 0x0, symName: __ZNKSt3__19allocatorIPNS_12basic_stringIcNS_11char_traitsIcEENS0_IcEEEEE8max_sizeB7v160006Ev, symObjAddr: 0x11260, symBinAddr: 0x100012BE0, symSize: 0x20 }
  - { offsetInCU: 0x14428, offset: 0x14428, size: 0x8, addend: 0x0, symName: __ZNSt3__122__allocator_destructorINS_9allocatorINS_12basic_stringIcNS_11char_traitsIcEENS1_IcEEEEEEEC2B7v160006ERS7_m, symObjAddr: 0x11280, symBinAddr: 0x100012C00, symSize: 0xA0 }
  - { offsetInCU: 0x1446E, offset: 0x1446E, size: 0x8, addend: 0x0, symName: __ZNSt3__110unique_ptrIPNS_12basic_stringIcNS_11char_traitsIcEENS_9allocatorIcEEEENS_22__allocator_destructorINS4_IS6_EEEEEC2B7v160006ILb1EvEES7_NS_16__dependent_typeINS_27__unique_ptr_deleter_sfinaeISA_EEXT_EE20__good_rval_ref_typeE, symObjAddr: 0x11320, symBinAddr: 0x100012CA0, symSize: 0x1A0 }
  - { offsetInCU: 0x144C5, offset: 0x144C5, size: 0x8, addend: 0x0, symName: __ZNSt3__117__compressed_pairIPNS_12basic_stringIcNS_11char_traitsIcEENS_9allocatorIcEEEENS_22__allocator_destructorINS4_IS6_EEEEEC1B7v160006IRS7_SA_EEOT_OT0_, symObjAddr: 0x114C0, symBinAddr: 0x100012E40, symSize: 0x30 }
  - { offsetInCU: 0x1451D, offset: 0x1451D, size: 0x8, addend: 0x0, symName: __ZNSt3__117__compressed_pairIPNS_12basic_stringIcNS_11char_traitsIcEENS_9allocatorIcEEEENS_22__allocator_destructorINS4_IS6_EEEEEC2B7v160006IRS7_SA_EEOT_OT0_, symObjAddr: 0x114F0, symBinAddr: 0x100012E70, symSize: 0x40 }
  - { offsetInCU: 0x14575, offset: 0x14575, size: 0x8, addend: 0x0, symName: __ZNSt3__122__compressed_pair_elemIPNS_12basic_stringIcNS_11char_traitsIcEENS_9allocatorIcEEEELi0ELb0EEC2B7v160006IRS7_vEEOT_, symObjAddr: 0x11530, symBinAddr: 0x100012EB0, symSize: 0x90 }
  - { offsetInCU: 0x145B7, offset: 0x145B7, size: 0x8, addend: 0x0, symName: __ZNSt3__122__compressed_pair_elemINS_22__allocator_destructorINS_9allocatorINS_12basic_stringIcNS_11char_traitsIcEENS2_IcEEEEEEEELi1ELb0EEC2B7v160006IS9_vEEOT_, symObjAddr: 0x115C0, symBinAddr: 0x100012F40, symSize: 0x30 }
  - { offsetInCU: 0x145F9, offset: 0x145F9, size: 0x8, addend: 0x0, symName: __ZNKSt3__117__compressed_pairIPNS_12basic_stringIcNS_11char_traitsIcEENS_9allocatorIcEEEENS_22__allocator_destructorINS4_IS6_EEEEE5firstB7v160006Ev, symObjAddr: 0x115F0, symBinAddr: 0x100012F70, symSize: 0x20 }
  - { offsetInCU: 0x1461F, offset: 0x1461F, size: 0x8, addend: 0x0, symName: __ZNKSt3__122__compressed_pair_elemIPNS_12basic_stringIcNS_11char_traitsIcEENS_9allocatorIcEEEELi0ELb0EE5__getB7v160006Ev, symObjAddr: 0x11610, symBinAddr: 0x100012F90, symSize: 0x10 }
  - { offsetInCU: 0x14645, offset: 0x14645, size: 0x8, addend: 0x0, symName: __ZNSt3__117__compressed_pairIPNS_12basic_stringIcNS_11char_traitsIcEENS_9allocatorIcEEEENS_22__allocator_destructorINS4_IS6_EEEEE5firstB7v160006Ev, symObjAddr: 0x11620, symBinAddr: 0x100012FA0, symSize: 0x20 }
  - { offsetInCU: 0x1466B, offset: 0x1466B, size: 0x8, addend: 0x0, symName: __ZNSt3__122__compressed_pair_elemIPNS_12basic_stringIcNS_11char_traitsIcEENS_9allocatorIcEEEELi0ELb0EE5__getB7v160006Ev, symObjAddr: 0x11640, symBinAddr: 0x100012FC0, symSize: 0x10 }
  - { offsetInCU: 0x14691, offset: 0x14691, size: 0x8, addend: 0x0, symName: __ZNSt3__117__compressed_pairIPPNS_12basic_stringIcNS_11char_traitsIcEENS_9allocatorIcEEEENS4_IS7_EEE5firstB7v160006Ev, symObjAddr: 0x11650, symBinAddr: 0x100012FD0, symSize: 0x20 }
  - { offsetInCU: 0x146B7, offset: 0x146B7, size: 0x8, addend: 0x0, symName: __ZNSt3__122__compressed_pair_elemIPPNS_12basic_stringIcNS_11char_traitsIcEENS_9allocatorIcEEEELi0ELb0EE5__getB7v160006Ev, symObjAddr: 0x11670, symBinAddr: 0x100012FF0, symSize: 0x10 }
  - { offsetInCU: 0x146DD, offset: 0x146DD, size: 0x8, addend: 0x0, symName: __ZNSt3__117__compressed_pairIPPNS_12basic_stringIcNS_11char_traitsIcEENS_9allocatorIcEEEERNS4_IS7_EEE5firstB7v160006Ev, symObjAddr: 0x11680, symBinAddr: 0x100013000, symSize: 0x20 }
  - { offsetInCU: 0x14703, offset: 0x14703, size: 0x8, addend: 0x0, symName: __ZNSt3__110unique_ptrIPNS_12basic_stringIcNS_11char_traitsIcEENS_9allocatorIcEEEENS_22__allocator_destructorINS4_IS6_EEEEED2B7v160006Ev, symObjAddr: 0x116A0, symBinAddr: 0x100013020, symSize: 0x20 }
  - { offsetInCU: 0x1472D, offset: 0x1472D, size: 0x8, addend: 0x0, symName: __ZNSt3__110unique_ptrIPNS_12basic_stringIcNS_11char_traitsIcEENS_9allocatorIcEEEENS_22__allocator_destructorINS4_IS6_EEEEE5resetB7v160006ES7_, symObjAddr: 0x116C0, symBinAddr: 0x100013040, symSize: 0xC0 }
  - { offsetInCU: 0x14771, offset: 0x14771, size: 0x8, addend: 0x0, symName: __ZNSt3__117__compressed_pairIPNS_12basic_stringIcNS_11char_traitsIcEENS_9allocatorIcEEEENS_22__allocator_destructorINS4_IS6_EEEEE6secondB7v160006Ev, symObjAddr: 0x11780, symBinAddr: 0x100013100, symSize: 0x20 }
  - { offsetInCU: 0x14797, offset: 0x14797, size: 0x8, addend: 0x0, symName: __ZNSt3__122__allocator_destructorINS_9allocatorINS_12basic_stringIcNS_11char_traitsIcEENS1_IcEEEEEEEclB7v160006EPS6_, symObjAddr: 0x117A0, symBinAddr: 0x100013120, symSize: 0xA0 }
  - { offsetInCU: 0x147CB, offset: 0x147CB, size: 0x8, addend: 0x0, symName: __ZNSt3__122__compressed_pair_elemINS_22__allocator_destructorINS_9allocatorINS_12basic_stringIcNS_11char_traitsIcEENS2_IcEEEEEEEELi1ELb0EE5__getB7v160006Ev, symObjAddr: 0x11840, symBinAddr: 0x1000131C0, symSize: 0x10 }
  - { offsetInCU: 0x147F1, offset: 0x147F1, size: 0x8, addend: 0x0, symName: __ZNSt3__116allocator_traitsINS_9allocatorINS_12basic_stringIcNS_11char_traitsIcEENS1_IcEEEEEEE10deallocateB7v160006ERS7_PS6_m, symObjAddr: 0x11850, symBinAddr: 0x1000131D0, symSize: 0x30 }
  - { offsetInCU: 0x14833, offset: 0x14833, size: 0x8, addend: 0x0, symName: __ZNSt3__19allocatorINS_12basic_stringIcNS_11char_traitsIcEENS0_IcEEEEE10deallocateB7v160006EPS5_m, symObjAddr: 0x11880, symBinAddr: 0x100013200, symSize: 0x50 }
  - { offsetInCU: 0x14875, offset: 0x14875, size: 0x8, addend: 0x0, symName: __ZNSt3__114__split_bufferIPNS_12basic_stringIcNS_11char_traitsIcEENS_9allocatorIcEEEERNS4_IS7_EEED2Ev, symObjAddr: 0x11940, symBinAddr: 0x1000132C0, symSize: 0xD0 }
  - { offsetInCU: 0x148A1, offset: 0x148A1, size: 0x8, addend: 0x0, symName: __ZNSt3__114__split_bufferIPNS_12basic_stringIcNS_11char_traitsIcEENS_9allocatorIcEEEERNS4_IS7_EEE5clearB7v160006Ev, symObjAddr: 0x11A10, symBinAddr: 0x100013390, symSize: 0x60 }
  - { offsetInCU: 0x148C7, offset: 0x148C7, size: 0x8, addend: 0x0, symName: __ZNSt3__116allocator_traitsINS_9allocatorIPNS_12basic_stringIcNS_11char_traitsIcEENS1_IcEEEEEEE10deallocateB7v160006ERS8_PS7_m, symObjAddr: 0x11A70, symBinAddr: 0x1000133F0, symSize: 0x30 }
  - { offsetInCU: 0x14909, offset: 0x14909, size: 0x8, addend: 0x0, symName: __ZNKSt3__114__split_bufferIPNS_12basic_stringIcNS_11char_traitsIcEENS_9allocatorIcEEEERNS4_IS7_EEE8capacityB7v160006Ev, symObjAddr: 0x11AA0, symBinAddr: 0x100013420, symSize: 0x90 }
  - { offsetInCU: 0x1492F, offset: 0x1492F, size: 0x8, addend: 0x0, symName: __ZNSt3__114__split_bufferIPNS_12basic_stringIcNS_11char_traitsIcEENS_9allocatorIcEEEERNS4_IS7_EEE17__destruct_at_endB7v160006EPS7_, symObjAddr: 0x11B30, symBinAddr: 0x1000134B0, symSize: 0x30 }
  - { offsetInCU: 0x14963, offset: 0x14963, size: 0x8, addend: 0x0, symName: __ZNSt3__114__split_bufferIPNS_12basic_stringIcNS_11char_traitsIcEENS_9allocatorIcEEEERNS4_IS7_EEE17__destruct_at_endB7v160006EPS7_NS_17integral_constantIbLb0EEE, symObjAddr: 0x11B60, symBinAddr: 0x1000134E0, symSize: 0xF0 }
  - { offsetInCU: 0x149A3, offset: 0x149A3, size: 0x8, addend: 0x0, symName: __ZNSt3__116allocator_traitsINS_9allocatorIPNS_12basic_stringIcNS_11char_traitsIcEENS1_IcEEEEEEE7destroyB7v160006IS7_vEEvRS8_PT_, symObjAddr: 0x11C50, symBinAddr: 0x1000135D0, symSize: 0x30 }
  - { offsetInCU: 0x149E0, offset: 0x149E0, size: 0x8, addend: 0x0, symName: __ZNSt3__19allocatorIPNS_12basic_stringIcNS_11char_traitsIcEENS0_IcEEEEE7destroyB7v160006EPS6_, symObjAddr: 0x11C80, symBinAddr: 0x100013600, symSize: 0x10 }
  - { offsetInCU: 0x14A14, offset: 0x14A14, size: 0x8, addend: 0x0, symName: __ZNSt3__19allocatorIPNS_12basic_stringIcNS_11char_traitsIcEENS0_IcEEEEE10deallocateB7v160006EPS6_m, symObjAddr: 0x11C90, symBinAddr: 0x100013610, symSize: 0x50 }
  - { offsetInCU: 0x14A56, offset: 0x14A56, size: 0x8, addend: 0x0, symName: __ZNKSt3__114__split_bufferIPNS_12basic_stringIcNS_11char_traitsIcEENS_9allocatorIcEEEERNS4_IS7_EEE9__end_capB7v160006Ev, symObjAddr: 0x11CE0, symBinAddr: 0x100013660, symSize: 0x20 }
  - { offsetInCU: 0x14A7C, offset: 0x14A7C, size: 0x8, addend: 0x0, symName: __ZNKSt3__117__compressed_pairIPPNS_12basic_stringIcNS_11char_traitsIcEENS_9allocatorIcEEEERNS4_IS7_EEE5firstB7v160006Ev, symObjAddr: 0x11D00, symBinAddr: 0x100013680, symSize: 0x20 }
  - { offsetInCU: 0x14AA2, offset: 0x14AA2, size: 0x8, addend: 0x0, symName: __ZNSt3__19allocatorINS_12basic_stringIcNS_11char_traitsIcEENS0_IcEEEEE9constructB7v160006IS5_JRKS5_EEEvPT_DpOT0_, symObjAddr: 0x11D20, symBinAddr: 0x1000136A0, symSize: 0x30 }
  - { offsetInCU: 0x14AF8, offset: 0x14AF8, size: 0x8, addend: 0x0, symName: __ZNKSt3__114__split_bufferIPNS_12basic_stringIcNS_11char_traitsIcEENS_9allocatorIcEEEENS4_IS7_EEE5emptyB7v160006Ev, symObjAddr: 0x11D50, symBinAddr: 0x1000136D0, symSize: 0xA0 }
  - { offsetInCU: 0x14B1E, offset: 0x14B1E, size: 0x8, addend: 0x0, symName: __ZNSt3__116__deque_iteratorINS_12basic_stringIcNS_11char_traitsIcEENS_9allocatorIcEEEEPS6_RS6_PS7_lLl170EEC1B7v160006ES9_S7_, symObjAddr: 0x11DF0, symBinAddr: 0x100013770, symSize: 0x30 }
  - { offsetInCU: 0x14B66, offset: 0x14B66, size: 0x8, addend: 0x0, symName: __ZNSt3__116__deque_iteratorINS_12basic_stringIcNS_11char_traitsIcEENS_9allocatorIcEEEEPS6_RS6_PS7_lLl170EEC2B7v160006ES9_S7_, symObjAddr: 0x11E20, symBinAddr: 0x1000137A0, symSize: 0xA0 }
  - { offsetInCU: 0x14BAE, offset: 0x14BAE, size: 0x8, addend: 0x0, symName: __ZNSt3__117__compressed_pairImNS_9allocatorINS_12basic_stringIcNS_11char_traitsIcEENS1_IcEEEEEEE5firstB7v160006Ev, symObjAddr: 0x11EC0, symBinAddr: 0x100013840, symSize: 0x20 }
  - { offsetInCU: 0x14BD4, offset: 0x14BD4, size: 0x8, addend: 0x0, symName: __ZNSt3__122__compressed_pair_elemImLi0ELb0EE5__getB7v160006Ev, symObjAddr: 0x11EE0, symBinAddr: 0x100013860, symSize: 0x10 }
  - { offsetInCU: 0x14BFA, offset: 0x14BFA, size: 0x8, addend: 0x0, symName: __ZNKSt3__15dequeINS_12basic_stringIcNS_11char_traitsIcEENS_9allocatorIcEEEENS4_IS6_EEE5emptyB7v160006Ev, symObjAddr: 0x11EF0, symBinAddr: 0x100013870, symSize: 0x30 }
  - { offsetInCU: 0x14C20, offset: 0x14C20, size: 0x8, addend: 0x0, symName: __ZNSt3__15dequeINS_12basic_stringIcNS_11char_traitsIcEENS_9allocatorIcEEEENS4_IS6_EEE5frontEv, symObjAddr: 0x11F20, symBinAddr: 0x1000138A0, symSize: 0x100 }
  - { offsetInCU: 0x14C48, offset: 0x14C48, size: 0x8, addend: 0x0, symName: __ZNSt3__15dequeINS_12basic_stringIcNS_11char_traitsIcEENS_9allocatorIcEEEENS4_IS6_EEE9pop_frontEv, symObjAddr: 0x12020, symBinAddr: 0x1000139A0, symSize: 0x1B0 }
  - { offsetInCU: 0x14C7F, offset: 0x14C7F, size: 0x8, addend: 0x0, symName: __ZN8TreeNodeC1Ei, symObjAddr: 0x12280, symBinAddr: 0x100013C00, symSize: 0x30 }
  - { offsetInCU: 0x14CB7, offset: 0x14CB7, size: 0x8, addend: 0x0, symName: __ZNSt3__116allocator_traitsINS_9allocatorINS_12basic_stringIcNS_11char_traitsIcEENS1_IcEEEEEEE7destroyB7v160006IS6_vEEvRS7_PT_, symObjAddr: 0x122B0, symBinAddr: 0x100013C30, symSize: 0x30 }
  - { offsetInCU: 0x14CF4, offset: 0x14CF4, size: 0x8, addend: 0x0, symName: __ZNSt3__15dequeINS_12basic_stringIcNS_11char_traitsIcEENS_9allocatorIcEEEENS4_IS6_EEE26__maybe_remove_front_spareB7v160006Eb, symObjAddr: 0x122F0, symBinAddr: 0x100013C70, symSize: 0x110 }
  - { offsetInCU: 0x14D29, offset: 0x14D29, size: 0x8, addend: 0x0, symName: __ZNSt3__19allocatorINS_12basic_stringIcNS_11char_traitsIcEENS0_IcEEEEE7destroyB7v160006EPS5_, symObjAddr: 0x12400, symBinAddr: 0x100013D80, symSize: 0x20 }
  - { offsetInCU: 0x14D5D, offset: 0x14D5D, size: 0x8, addend: 0x0, symName: __ZNKSt3__15dequeINS_12basic_stringIcNS_11char_traitsIcEENS_9allocatorIcEEEENS4_IS6_EEE20__front_spare_blocksB7v160006Ev, symObjAddr: 0x12420, symBinAddr: 0x100013DA0, symSize: 0x30 }
  - { offsetInCU: 0x14D83, offset: 0x14D83, size: 0x8, addend: 0x0, symName: __ZNSt3__111char_traitsIcE6lengthEPKc, symObjAddr: 0x12450, symBinAddr: 0x100013DD0, symSize: 0x40 }
  - { offsetInCU: 0x14DA6, offset: 0x14DA6, size: 0x8, addend: 0x0, symName: __ZN8TreeNodeC2Ei, symObjAddr: 0x124B0, symBinAddr: 0x100013E30, symSize: 0xE0 }
  - { offsetInCU: 0x14DDE, offset: 0x14DDE, size: 0x8, addend: 0x0, symName: __ZNSt3__15dequeINS_12basic_stringIcNS_11char_traitsIcEENS_9allocatorIcEEEENS4_IS6_EEED2B7v160006Ev, symObjAddr: 0x12590, symBinAddr: 0x100013F10, symSize: 0xB0 }
  - { offsetInCU: 0x14E34, offset: 0x14E34, size: 0x8, addend: 0x0, symName: __ZNSt3__15dequeINS_12basic_stringIcNS_11char_traitsIcEENS_9allocatorIcEEEENS4_IS6_EEE5clearEv, symObjAddr: 0x12640, symBinAddr: 0x100013FC0, symSize: 0x500 }
  - { offsetInCU: 0x14E99, offset: 0x14E99, size: 0x8, addend: 0x0, symName: __ZNSt3__114__split_bufferIPNS_12basic_stringIcNS_11char_traitsIcEENS_9allocatorIcEEEENS4_IS7_EEED1Ev, symObjAddr: 0x12B40, symBinAddr: 0x1000144C0, symSize: 0x20 }
  - { offsetInCU: 0x14EC5, offset: 0x14EC5, size: 0x8, addend: 0x0, symName: __ZNSt3__15dequeINS_12basic_stringIcNS_11char_traitsIcEENS_9allocatorIcEEEENS4_IS6_EEE5beginB7v160006Ev, symObjAddr: 0x12B60, symBinAddr: 0x1000144E0, symSize: 0x2D0 }
  - { offsetInCU: 0x14EFC, offset: 0x14EFC, size: 0x8, addend: 0x0, symName: __ZNSt3__116__deque_iteratorINS_12basic_stringIcNS_11char_traitsIcEENS_9allocatorIcEEEEPS6_RS6_PS7_lLl170EEppB7v160006Ev, symObjAddr: 0x12E60, symBinAddr: 0x1000147E0, symSize: 0x1B0 }
  - { offsetInCU: 0x14F22, offset: 0x14F22, size: 0x8, addend: 0x0, symName: __ZNSt3__114__split_bufferIPNS_12basic_stringIcNS_11char_traitsIcEENS_9allocatorIcEEEENS4_IS7_EEED2Ev, symObjAddr: 0x130B0, symBinAddr: 0x100014A30, symSize: 0xB0 }
  - { offsetInCU: 0x14F4E, offset: 0x14F4E, size: 0x8, addend: 0x0, symName: __ZNSt3__114__split_bufferIPNS_12basic_stringIcNS_11char_traitsIcEENS_9allocatorIcEEEENS4_IS7_EEE5clearB7v160006Ev, symObjAddr: 0x13160, symBinAddr: 0x100014AE0, symSize: 0x60 }
  - { offsetInCU: 0x14F74, offset: 0x14F74, size: 0x8, addend: 0x0, symName: __ZNSt3__114__split_bufferIPNS_12basic_stringIcNS_11char_traitsIcEENS_9allocatorIcEEEENS4_IS7_EEE17__destruct_at_endB7v160006EPS7_, symObjAddr: 0x131C0, symBinAddr: 0x100014B40, symSize: 0x30 }
  - { offsetInCU: 0x14FA8, offset: 0x14FA8, size: 0x8, addend: 0x0, symName: __ZNSt3__114__split_bufferIPNS_12basic_stringIcNS_11char_traitsIcEENS_9allocatorIcEEEENS4_IS7_EEE17__destruct_at_endB7v160006EPS7_NS_17integral_constantIbLb0EEE, symObjAddr: 0x131F0, symBinAddr: 0x100014B70, symSize: 0xF0 }
  - { offsetInCU: 0x14FE8, offset: 0x14FE8, size: 0x8, addend: 0x0, symName: __ZNSt3__119basic_istringstreamIcNS_11char_traitsIcEENS_9allocatorIcEEED2Ev, symObjAddr: 0x132E0, symBinAddr: 0x100014C60, symSize: 0x160 }
  - { offsetInCU: 0x15022, offset: 0x15022, size: 0x8, addend: 0x0, symName: __ZTv0_n24_NSt3__119basic_istringstreamIcNS_11char_traitsIcEENS_9allocatorIcEEED1Ev, symObjAddr: 0x13440, symBinAddr: 0x100014DC0, symSize: 0x90 }
  - { offsetInCU: 0x1503E, offset: 0x1503E, size: 0x8, addend: 0x0, symName: __ZNSt3__115basic_stringbufIcNS_11char_traitsIcEENS_9allocatorIcEEED1Ev, symObjAddr: 0x134D0, symBinAddr: 0x100014E50, symSize: 0x20 }
  - { offsetInCU: 0x1506B, offset: 0x1506B, size: 0x8, addend: 0x0, symName: __ZNSt3__115basic_stringbufIcNS_11char_traitsIcEENS_9allocatorIcEEED2Ev, symObjAddr: 0x134F0, symBinAddr: 0x100014E70, symSize: 0x70 }
  - { offsetInCU: 0x15098, offset: 0x15098, size: 0x8, addend: 0x0, symName: __ZNSt3__112basic_stringIcNS_11char_traitsIcEENS_9allocatorIcEEEC2B7v160006IDnEEPKc, symObjAddr: 0x13560, symBinAddr: 0x100014EE0, symSize: 0x190 }
  - { offsetInCU: 0x150D8, offset: 0x150D8, size: 0x8, addend: 0x0, symName: __ZNSt3__117__compressed_pairINS_12basic_stringIcNS_11char_traitsIcEENS_9allocatorIcEEE5__repES5_EC1B7v160006INS_18__default_init_tagESA_EEOT_OT0_, symObjAddr: 0x136F0, symBinAddr: 0x100015070, symSize: 0x30 }
  - { offsetInCU: 0x15130, offset: 0x15130, size: 0x8, addend: 0x0, symName: __ZNSt3__117__compressed_pairINS_12basic_stringIcNS_11char_traitsIcEENS_9allocatorIcEEE5__repES5_EC2B7v160006INS_18__default_init_tagESA_EEOT_OT0_, symObjAddr: 0x13720, symBinAddr: 0x1000150A0, symSize: 0x30 }
  - { offsetInCU: 0x15188, offset: 0x15188, size: 0x8, addend: 0x0, symName: __ZNSt3__122__compressed_pair_elemINS_9allocatorIcEELi1ELb1EEC2B7v160006ENS_18__default_init_tagE, symObjAddr: 0x13750, symBinAddr: 0x1000150D0, symSize: 0x20 }
  - { offsetInCU: 0x151BC, offset: 0x151BC, size: 0x8, addend: 0x0, symName: __ZNSt3__19allocatorIcEC2B7v160006Ev, symObjAddr: 0x13770, symBinAddr: 0x1000150F0, symSize: 0x20 }
  - { offsetInCU: 0x151E6, offset: 0x151E6, size: 0x8, addend: 0x0, symName: __ZNSt3__116__non_trivial_ifILb1ENS_9allocatorIcEEEC2B7v160006Ev, symObjAddr: 0x13790, symBinAddr: 0x100015110, symSize: 0x10 }
  - { offsetInCU: 0x15210, offset: 0x15210, size: 0x8, addend: 0x0, symName: __ZNSt3__112basic_stringIcNS_11char_traitsIcEENS_9allocatorIcEEEC2B7v160006Ev, symObjAddr: 0x137A0, symBinAddr: 0x100015120, symSize: 0x190 }
  - { offsetInCU: 0x1523B, offset: 0x1523B, size: 0x8, addend: 0x0, symName: __ZNSt3__16vectorINS_12basic_stringIcNS_11char_traitsIcEENS_9allocatorIcEEEENS4_IS6_EEEC2B7v160006Ev, symObjAddr: 0x13930, symBinAddr: 0x1000152B0, symSize: 0x260 }
  - { offsetInCU: 0x15266, offset: 0x15266, size: 0x8, addend: 0x0, symName: __ZNSt3__117__compressed_pairIPNS_12basic_stringIcNS_11char_traitsIcEENS_9allocatorIcEEEENS4_IS6_EEEC1B7v160006IDnNS_18__default_init_tagEEEOT_OT0_, symObjAddr: 0x13B90, symBinAddr: 0x100015510, symSize: 0x30 }
  - { offsetInCU: 0x152BE, offset: 0x152BE, size: 0x8, addend: 0x0, symName: __ZNSt3__117__compressed_pairIPNS_12basic_stringIcNS_11char_traitsIcEENS_9allocatorIcEEEENS4_IS6_EEEC2B7v160006IDnNS_18__default_init_tagEEEOT_OT0_, symObjAddr: 0x13BD0, symBinAddr: 0x100015550, symSize: 0x40 }
  - { offsetInCU: 0x15316, offset: 0x15316, size: 0x8, addend: 0x0, symName: __ZNSt3__122__compressed_pair_elemIPNS_12basic_stringIcNS_11char_traitsIcEENS_9allocatorIcEEEELi0ELb0EEC2B7v160006IDnvEEOT_, symObjAddr: 0x13C10, symBinAddr: 0x100015590, symSize: 0x50 }
  - { offsetInCU: 0x15358, offset: 0x15358, size: 0x8, addend: 0x0, symName: __ZNSt3__16vectorINS_12basic_stringIcNS_11char_traitsIcEENS_9allocatorIcEEEENS4_IS6_EEED2B7v160006Ev, symObjAddr: 0x13C60, symBinAddr: 0x1000155E0, symSize: 0x170 }
  - { offsetInCU: 0x15383, offset: 0x15383, size: 0x8, addend: 0x0, symName: __ZNSt3__16vectorINS_12basic_stringIcNS_11char_traitsIcEENS_9allocatorIcEEEENS4_IS6_EEE16__destroy_vectorC1ERS8_, symObjAddr: 0x13DD0, symBinAddr: 0x100015750, symSize: 0x30 }
  - { offsetInCU: 0x153BC, offset: 0x153BC, size: 0x8, addend: 0x0, symName: __ZNSt3__16vectorINS_12basic_stringIcNS_11char_traitsIcEENS_9allocatorIcEEEENS4_IS6_EEE16__destroy_vectorclB7v160006Ev, symObjAddr: 0x13E00, symBinAddr: 0x100015780, symSize: 0x210 }
  - { offsetInCU: 0x153E2, offset: 0x153E2, size: 0x8, addend: 0x0, symName: __ZNSt3__16vectorINS_12basic_stringIcNS_11char_traitsIcEENS_9allocatorIcEEEENS4_IS6_EEE16__destroy_vectorC2ERS8_, symObjAddr: 0x14010, symBinAddr: 0x100015990, symSize: 0x60 }
  - { offsetInCU: 0x1541B, offset: 0x1541B, size: 0x8, addend: 0x0, symName: __ZNKSt3__16vectorINS_12basic_stringIcNS_11char_traitsIcEENS_9allocatorIcEEEENS4_IS6_EEE17__annotate_deleteB7v160006Ev, symObjAddr: 0x14070, symBinAddr: 0x1000159F0, symSize: 0xD0 }
  - { offsetInCU: 0x15441, offset: 0x15441, size: 0x8, addend: 0x0, symName: __ZNSt3__16vectorINS_12basic_stringIcNS_11char_traitsIcEENS_9allocatorIcEEEENS4_IS6_EEE7__clearB7v160006Ev, symObjAddr: 0x14150, symBinAddr: 0x100015AD0, symSize: 0x50 }
  - { offsetInCU: 0x15467, offset: 0x15467, size: 0x8, addend: 0x0, symName: __ZNSt3__16vectorINS_12basic_stringIcNS_11char_traitsIcEENS_9allocatorIcEEEENS4_IS6_EEE7__allocB7v160006Ev, symObjAddr: 0x141A0, symBinAddr: 0x100015B20, symSize: 0x20 }
  - { offsetInCU: 0x1548D, offset: 0x1548D, size: 0x8, addend: 0x0, symName: __ZNKSt3__16vectorINS_12basic_stringIcNS_11char_traitsIcEENS_9allocatorIcEEEENS4_IS6_EEE8capacityB7v160006Ev, symObjAddr: 0x141C0, symBinAddr: 0x100015B40, symSize: 0xA0 }
  - { offsetInCU: 0x154B3, offset: 0x154B3, size: 0x8, addend: 0x0, symName: __ZNKSt3__16vectorINS_12basic_stringIcNS_11char_traitsIcEENS_9allocatorIcEEEENS4_IS6_EEE31__annotate_contiguous_containerEPKvSA_SA_SA_, symObjAddr: 0x14260, symBinAddr: 0x100015BE0, symSize: 0x50 }
  - { offsetInCU: 0x15515, offset: 0x15515, size: 0x8, addend: 0x0, symName: __ZNKSt3__16vectorINS_12basic_stringIcNS_11char_traitsIcEENS_9allocatorIcEEEENS4_IS6_EEE4dataB7v160006Ev, symObjAddr: 0x142B0, symBinAddr: 0x100015C30, symSize: 0x50 }
  - { offsetInCU: 0x1553B, offset: 0x1553B, size: 0x8, addend: 0x0, symName: __ZNKSt3__16vectorINS_12basic_stringIcNS_11char_traitsIcEENS_9allocatorIcEEEENS4_IS6_EEE4sizeB7v160006Ev, symObjAddr: 0x14300, symBinAddr: 0x100015C80, symSize: 0xA0 }
  - { offsetInCU: 0x15561, offset: 0x15561, size: 0x8, addend: 0x0, symName: __ZNSt3__16vectorINS_12basic_stringIcNS_11char_traitsIcEENS_9allocatorIcEEEENS4_IS6_EEE22__base_destruct_at_endB7v160006EPS6_, symObjAddr: 0x143A0, symBinAddr: 0x100015D20, symSize: 0xF0 }
  - { offsetInCU: 0x155A5, offset: 0x155A5, size: 0x8, addend: 0x0, symName: __ZNSt3__117__compressed_pairIPNS_12basic_stringIcNS_11char_traitsIcEENS_9allocatorIcEEEENS4_IS6_EEE6secondB7v160006Ev, symObjAddr: 0x14490, symBinAddr: 0x100015E10, symSize: 0x20 }
  - { offsetInCU: 0x155CB, offset: 0x155CB, size: 0x8, addend: 0x0, symName: __ZNKSt3__16vectorINS_12basic_stringIcNS_11char_traitsIcEENS_9allocatorIcEEEENS4_IS6_EEE9__end_capB7v160006Ev, symObjAddr: 0x144B0, symBinAddr: 0x100015E30, symSize: 0x20 }
  - { offsetInCU: 0x155F1, offset: 0x155F1, size: 0x8, addend: 0x0, symName: __ZNKSt3__117__compressed_pairIPNS_12basic_stringIcNS_11char_traitsIcEENS_9allocatorIcEEEENS4_IS6_EEE5firstB7v160006Ev, symObjAddr: 0x144D0, symBinAddr: 0x100015E50, symSize: 0x20 }
  - { offsetInCU: 0x15617, offset: 0x15617, size: 0x8, addend: 0x0, symName: __ZNSt3__16vectorINS_12basic_stringIcNS_11char_traitsIcEENS_9allocatorIcEEEENS4_IS6_EEE6assignIPKS6_Li0EEEvT_SC_, symObjAddr: 0x144F0, symBinAddr: 0x100015E70, symSize: 0x3E0 }
  - { offsetInCU: 0x156B8, offset: 0x156B8, size: 0x8, addend: 0x0, symName: __ZNKSt16initializer_listINSt3__112basic_stringIcNS0_11char_traitsIcEENS0_9allocatorIcEEEEE5beginB7v160006Ev, symObjAddr: 0x148D0, symBinAddr: 0x100016250, symSize: 0x50 }
  - { offsetInCU: 0x156DE, offset: 0x156DE, size: 0x8, addend: 0x0, symName: __ZNKSt16initializer_listINSt3__112basic_stringIcNS0_11char_traitsIcEENS0_9allocatorIcEEEEE3endB7v160006Ev, symObjAddr: 0x14920, symBinAddr: 0x1000162A0, symSize: 0x90 }
  - { offsetInCU: 0x15704, offset: 0x15704, size: 0x8, addend: 0x0, symName: __ZNSt3__16vectorINS_12basic_stringIcNS_11char_traitsIcEENS_9allocatorIcEEEENS4_IS6_EEE18__construct_at_endIPKS6_Li0EEEvT_SC_m, symObjAddr: 0x14C50, symBinAddr: 0x1000165D0, symSize: 0x300 }
  - { offsetInCU: 0x1577F, offset: 0x1577F, size: 0x8, addend: 0x0, symName: __ZNSt3__16vectorINS_12basic_stringIcNS_11char_traitsIcEENS_9allocatorIcEEEENS4_IS6_EEE17__destruct_at_endB7v160006EPS6_, symObjAddr: 0x14F50, symBinAddr: 0x1000168D0, symSize: 0x70 }
  - { offsetInCU: 0x157C3, offset: 0x157C3, size: 0x8, addend: 0x0, symName: __ZNSt3__16vectorINS_12basic_stringIcNS_11char_traitsIcEENS_9allocatorIcEEEENS4_IS6_EEE13__vdeallocateEv, symObjAddr: 0x14FC0, symBinAddr: 0x100016940, symSize: 0x160 }
  - { offsetInCU: 0x157EB, offset: 0x157EB, size: 0x8, addend: 0x0, symName: __ZNSt3__16vectorINS_12basic_stringIcNS_11char_traitsIcEENS_9allocatorIcEEEENS4_IS6_EEE11__vallocateB7v160006Em, symObjAddr: 0x15120, symBinAddr: 0x100016AA0, symSize: 0x400 }
  - { offsetInCU: 0x15835, offset: 0x15835, size: 0x8, addend: 0x0, symName: __ZNKSt3__16vectorINS_12basic_stringIcNS_11char_traitsIcEENS_9allocatorIcEEEENS4_IS6_EEE11__recommendB7v160006Em, symObjAddr: 0x15520, symBinAddr: 0x100016EA0, symSize: 0x2F0 }
  - { offsetInCU: 0x158B4, offset: 0x158B4, size: 0x8, addend: 0x0, symName: __ZNKSt3__111__copy_loopINS_17_ClassicAlgPolicyEEclB7v160006IPKNS_12basic_stringIcNS_11char_traitsIcEENS_9allocatorIcEEEESB_PS9_EENS_4pairIT_T1_EESE_T0_SF_, symObjAddr: 0x16620, symBinAddr: 0x100017FA0, symSize: 0x3F0 }
  - { offsetInCU: 0x15947, offset: 0x15947, size: 0x8, addend: 0x0, symName: __ZNSt3__14pairIPKNS_12basic_stringIcNS_11char_traitsIcEENS_9allocatorIcEEEES8_EC1B7v160006IS8_S8_LPv0EEEOT_OT0_, symObjAddr: 0x16DF0, symBinAddr: 0x100018770, symSize: 0x30 }
  - { offsetInCU: 0x159A5, offset: 0x159A5, size: 0x8, addend: 0x0, symName: __ZNSt3__14pairIPKNS_12basic_stringIcNS_11char_traitsIcEENS_9allocatorIcEEEES8_EC2B7v160006IS8_S8_LPv0EEEOT_OT0_, symObjAddr: 0x16E20, symBinAddr: 0x1000187A0, symSize: 0x110 }
  - { offsetInCU: 0x15A03, offset: 0x15A03, size: 0x8, addend: 0x0, symName: __ZNSt3__118__unwrap_iter_implIPKNS_12basic_stringIcNS_11char_traitsIcEENS_9allocatorIcEEEELb1EE8__unwrapB7v160006ES8_, symObjAddr: 0x16F30, symBinAddr: 0x1000188B0, symSize: 0x20 }
  - { offsetInCU: 0x15A26, offset: 0x15A26, size: 0x8, addend: 0x0, symName: __ZNSt3__118__unwrap_iter_implIPNS_12basic_stringIcNS_11char_traitsIcEENS_9allocatorIcEEEELb1EE8__unwrapB7v160006ES7_, symObjAddr: 0x16F60, symBinAddr: 0x1000188E0, symSize: 0x20 }
  - { offsetInCU: 0x15A49, offset: 0x15A49, size: 0x8, addend: 0x0, symName: __ZNSt3__14pairIPKNS_12basic_stringIcNS_11char_traitsIcEENS_9allocatorIcEEEEPS6_EC1B7v160006IS8_S9_LPv0EEEOT_OT0_, symObjAddr: 0x16F80, symBinAddr: 0x100018900, symSize: 0x30 }
  - { offsetInCU: 0x15AA7, offset: 0x15AA7, size: 0x8, addend: 0x0, symName: __ZNSt3__14pairIPKNS_12basic_stringIcNS_11char_traitsIcEENS_9allocatorIcEEEEPS6_EC2B7v160006IS8_S9_LPv0EEEOT_OT0_, symObjAddr: 0x16FB0, symBinAddr: 0x100018930, symSize: 0x110 }
  - { offsetInCU: 0x15B05, offset: 0x15B05, size: 0x8, addend: 0x0, symName: __ZNSt3__118__unwrap_iter_implIPKNS_12basic_stringIcNS_11char_traitsIcEENS_9allocatorIcEEEELb1EE8__rewrapB7v160006ES8_S8_, symObjAddr: 0x17110, symBinAddr: 0x100018A90, symSize: 0x60 }
  - { offsetInCU: 0x15B36, offset: 0x15B36, size: 0x8, addend: 0x0, symName: __ZNSt3__118__unwrap_iter_implIPNS_12basic_stringIcNS_11char_traitsIcEENS_9allocatorIcEEEELb1EE8__rewrapB7v160006ES7_S7_, symObjAddr: 0x17170, symBinAddr: 0x100018AF0, symSize: 0x60 }
  - { offsetInCU: 0x15B80, offset: 0x15B80, size: 0x8, addend: 0x0, symName: __ZNSt3__16vectorINS_12basic_stringIcNS_11char_traitsIcEENS_9allocatorIcEEEENS4_IS6_EEE21_ConstructTransactionC1B7v160006ERS8_m, symObjAddr: 0x171D0, symBinAddr: 0x100018B50, symSize: 0x30 }
  - { offsetInCU: 0x15BC8, offset: 0x15BC8, size: 0x8, addend: 0x0, symName: __ZNSt3__16vectorINS_12basic_stringIcNS_11char_traitsIcEENS_9allocatorIcEEEENS4_IS6_EEE21_ConstructTransactionD1B7v160006Ev, symObjAddr: 0x17750, symBinAddr: 0x1000190D0, symSize: 0x20 }
  - { offsetInCU: 0x15BF2, offset: 0x15BF2, size: 0x8, addend: 0x0, symName: __ZNSt3__16vectorINS_12basic_stringIcNS_11char_traitsIcEENS_9allocatorIcEEEENS4_IS6_EEE21_ConstructTransactionC2B7v160006ERS8_m, symObjAddr: 0x17770, symBinAddr: 0x1000190F0, symSize: 0x190 }
  - { offsetInCU: 0x15C3A, offset: 0x15C3A, size: 0x8, addend: 0x0, symName: __ZNKSt3__16vectorINS_12basic_stringIcNS_11char_traitsIcEENS_9allocatorIcEEEENS4_IS6_EEE19__annotate_increaseB7v160006Em, symObjAddr: 0x17900, symBinAddr: 0x100019280, symSize: 0xE0 }
  - { offsetInCU: 0x15C6F, offset: 0x15C6F, size: 0x8, addend: 0x0, symName: __ZNSt3__129_AllocatorDestroyRangeReverseINS_9allocatorINS_12basic_stringIcNS_11char_traitsIcEENS1_IcEEEEEEPS6_EC1B7v160006ERS7_RS8_SB_, symObjAddr: 0x17C80, symBinAddr: 0x100019600, symSize: 0x40 }
  - { offsetInCU: 0x15CC6, offset: 0x15CC6, size: 0x8, addend: 0x0, symName: __ZNSt3__128__exception_guard_exceptionsINS_29_AllocatorDestroyRangeReverseINS_9allocatorINS_12basic_stringIcNS_11char_traitsIcEENS2_IcEEEEEEPS7_EEE10__completeB7v160006Ev, symObjAddr: 0x17CC0, symBinAddr: 0x100019640, symSize: 0x70 }
  - { offsetInCU: 0x15CEC, offset: 0x15CEC, size: 0x8, addend: 0x0, symName: __ZNSt3__128__exception_guard_exceptionsINS_29_AllocatorDestroyRangeReverseINS_9allocatorINS_12basic_stringIcNS_11char_traitsIcEENS2_IcEEEEEEPS7_EEED1B7v160006Ev, symObjAddr: 0x17D30, symBinAddr: 0x1000196B0, symSize: 0x20 }
  - { offsetInCU: 0x15D16, offset: 0x15D16, size: 0x8, addend: 0x0, symName: __ZNSt3__128__exception_guard_exceptionsINS_29_AllocatorDestroyRangeReverseINS_9allocatorINS_12basic_stringIcNS_11char_traitsIcEENS2_IcEEEEEEPS7_EEEC1B7v160006ESA_, symObjAddr: 0x17D50, symBinAddr: 0x1000196D0, symSize: 0x250 }
  - { offsetInCU: 0x15D53, offset: 0x15D53, size: 0x8, addend: 0x0, symName: __ZNSt3__128__exception_guard_exceptionsINS_29_AllocatorDestroyRangeReverseINS_9allocatorINS_12basic_stringIcNS_11char_traitsIcEENS2_IcEEEEEEPS7_EEEC2B7v160006ESA_, symObjAddr: 0x17FA0, symBinAddr: 0x100019920, symSize: 0x1E0 }
  - { offsetInCU: 0x15D90, offset: 0x15D90, size: 0x8, addend: 0x0, symName: __ZNSt3__129_AllocatorDestroyRangeReverseINS_9allocatorINS_12basic_stringIcNS_11char_traitsIcEENS1_IcEEEEEEPS6_EC2B7v160006ERS7_RS8_SB_, symObjAddr: 0x18180, symBinAddr: 0x100019B00, symSize: 0xF0 }
  - { offsetInCU: 0x15DE7, offset: 0x15DE7, size: 0x8, addend: 0x0, symName: __ZNSt3__128__exception_guard_exceptionsINS_29_AllocatorDestroyRangeReverseINS_9allocatorINS_12basic_stringIcNS_11char_traitsIcEENS2_IcEEEEEEPS7_EEED2B7v160006Ev, symObjAddr: 0x18270, symBinAddr: 0x100019BF0, symSize: 0x90 }
  - { offsetInCU: 0x15E11, offset: 0x15E11, size: 0x8, addend: 0x0, symName: __ZNKSt3__129_AllocatorDestroyRangeReverseINS_9allocatorINS_12basic_stringIcNS_11char_traitsIcEENS1_IcEEEEEEPS6_EclB7v160006Ev, symObjAddr: 0x18300, symBinAddr: 0x100019C80, symSize: 0x380 }
  - { offsetInCU: 0x15E38, offset: 0x15E38, size: 0x8, addend: 0x0, symName: __ZNSt3__116reverse_iteratorIPNS_12basic_stringIcNS_11char_traitsIcEENS_9allocatorIcEEEEEC1B7v160006ES7_, symObjAddr: 0x18930, symBinAddr: 0x10001A2B0, symSize: 0x30 }
  - { offsetInCU: 0x15E70, offset: 0x15E70, size: 0x8, addend: 0x0, symName: __ZNSt3__116reverse_iteratorIPNS_12basic_stringIcNS_11char_traitsIcEENS_9allocatorIcEEEEEppB7v160006Ev, symObjAddr: 0x189C0, symBinAddr: 0x10001A340, symSize: 0x60 }
  - { offsetInCU: 0x15E96, offset: 0x15E96, size: 0x8, addend: 0x0, symName: __ZNKSt3__116reverse_iteratorIPNS_12basic_stringIcNS_11char_traitsIcEENS_9allocatorIcEEEEE4baseB7v160006Ev, symObjAddr: 0x18A20, symBinAddr: 0x10001A3A0, symSize: 0x50 }
  - { offsetInCU: 0x15EC1, offset: 0x15EC1, size: 0x8, addend: 0x0, symName: __ZNSt3__119__to_address_helperINS_16reverse_iteratorIPNS_12basic_stringIcNS_11char_traitsIcEENS_9allocatorIcEEEEEEvE6__callB7v160006ERKS9_, symObjAddr: 0x18A70, symBinAddr: 0x10001A3F0, symSize: 0x40 }
  - { offsetInCU: 0x15EE4, offset: 0x15EE4, size: 0x8, addend: 0x0, symName: __ZNKSt3__116reverse_iteratorIPNS_12basic_stringIcNS_11char_traitsIcEENS_9allocatorIcEEEEEptB7v160006Ev, symObjAddr: 0x18AB0, symBinAddr: 0x10001A430, symSize: 0x20 }
  - { offsetInCU: 0x15F0A, offset: 0x15F0A, size: 0x8, addend: 0x0, symName: __ZNKSt3__116reverse_iteratorIPNS_12basic_stringIcNS_11char_traitsIcEENS_9allocatorIcEEEEEdeB7v160006Ev, symObjAddr: 0x18AD0, symBinAddr: 0x10001A450, symSize: 0x60 }
  - { offsetInCU: 0x15F3E, offset: 0x15F3E, size: 0x8, addend: 0x0, symName: __ZNSt3__116reverse_iteratorIPNS_12basic_stringIcNS_11char_traitsIcEENS_9allocatorIcEEEEEC2B7v160006ES7_, symObjAddr: 0x18B30, symBinAddr: 0x10001A4B0, symSize: 0xA0 }
  - { offsetInCU: 0x15F76, offset: 0x15F76, size: 0x8, addend: 0x0, symName: __ZNSt3__16vectorINS_12basic_stringIcNS_11char_traitsIcEENS_9allocatorIcEEEENS4_IS6_EEE21_ConstructTransactionD2B7v160006Ev, symObjAddr: 0x18BD0, symBinAddr: 0x10001A550, symSize: 0x230 }
  - { offsetInCU: 0x15FA0, offset: 0x15FA0, size: 0x8, addend: 0x0, symName: __ZNKSt3__16vectorINS_12basic_stringIcNS_11char_traitsIcEENS_9allocatorIcEEEENS4_IS6_EEE17__annotate_shrinkB7v160006Em, symObjAddr: 0x18E00, symBinAddr: 0x10001A780, symSize: 0xC0 }
  - { offsetInCU: 0x15FD5, offset: 0x15FD5, size: 0x8, addend: 0x0, symName: __ZNSt3__16vectorINS_12basic_stringIcNS_11char_traitsIcEENS_9allocatorIcEEEENS4_IS6_EEE27__invalidate_iterators_pastB7v160006EPS6_, symObjAddr: 0x18EC0, symBinAddr: 0x10001A840, symSize: 0x10 }
  - { offsetInCU: 0x1600C, offset: 0x1600C, size: 0x8, addend: 0x0, symName: __ZNSt3__16vectorINS_12basic_stringIcNS_11char_traitsIcEENS_9allocatorIcEEEENS4_IS6_EEE5clearB7v160006Ev, symObjAddr: 0x18ED0, symBinAddr: 0x10001A850, symSize: 0x60 }
  - { offsetInCU: 0x16041, offset: 0x16041, size: 0x8, addend: 0x0, symName: __ZNSt3__16vectorINS_12basic_stringIcNS_11char_traitsIcEENS_9allocatorIcEEEENS4_IS6_EEE9__end_capB7v160006Ev, symObjAddr: 0x18F30, symBinAddr: 0x10001A8B0, symSize: 0x20 }
  - { offsetInCU: 0x16067, offset: 0x16067, size: 0x8, addend: 0x0, symName: __ZNSt3__117__compressed_pairIPNS_12basic_stringIcNS_11char_traitsIcEENS_9allocatorIcEEEENS4_IS6_EEE5firstB7v160006Ev, symObjAddr: 0x18F50, symBinAddr: 0x10001A8D0, symSize: 0x20 }
  - { offsetInCU: 0x1608D, offset: 0x1608D, size: 0x8, addend: 0x0, symName: __ZNKSt3__16vectorINS_12basic_stringIcNS_11char_traitsIcEENS_9allocatorIcEEEENS4_IS6_EEE8max_sizeEv, symObjAddr: 0x18F70, symBinAddr: 0x10001A8F0, symSize: 0x260 }
  - { offsetInCU: 0x160B6, offset: 0x160B6, size: 0x8, addend: 0x0, symName: __ZNKSt3__16vectorINS_12basic_stringIcNS_11char_traitsIcEENS_9allocatorIcEEEENS4_IS6_EEE20__throw_length_errorB7v160006Ev, symObjAddr: 0x191D0, symBinAddr: 0x10001AB50, symSize: 0x20 }
  - { offsetInCU: 0x160DC, offset: 0x160DC, size: 0x8, addend: 0x0, symName: __ZNKSt3__16vectorINS_12basic_stringIcNS_11char_traitsIcEENS_9allocatorIcEEEENS4_IS6_EEE14__annotate_newB7v160006Em, symObjAddr: 0x19400, symBinAddr: 0x10001AD80, symSize: 0xC0 }
  - { offsetInCU: 0x16111, offset: 0x16111, size: 0x8, addend: 0x0, symName: __ZNKSt3__16vectorINS_12basic_stringIcNS_11char_traitsIcEENS_9allocatorIcEEEENS4_IS6_EEE7__allocB7v160006Ev, symObjAddr: 0x194F0, symBinAddr: 0x10001AE70, symSize: 0x20 }
  - { offsetInCU: 0x16137, offset: 0x16137, size: 0x8, addend: 0x0, symName: __ZNSt3__114numeric_limitsIlE3maxB7v160006Ev, symObjAddr: 0x19510, symBinAddr: 0x10001AE90, symSize: 0x10 }
  - { offsetInCU: 0x1614B, offset: 0x1614B, size: 0x8, addend: 0x0, symName: __ZNKSt3__117__compressed_pairIPNS_12basic_stringIcNS_11char_traitsIcEENS_9allocatorIcEEEENS4_IS6_EEE6secondB7v160006Ev, symObjAddr: 0x19690, symBinAddr: 0x10001B010, symSize: 0x20 }
  - { offsetInCU: 0x16171, offset: 0x16171, size: 0x8, addend: 0x0, symName: __ZNKSt3__122__compressed_pair_elemINS_9allocatorINS_12basic_stringIcNS_11char_traitsIcEENS1_IcEEEEEELi1ELb1EE5__getB7v160006Ev, symObjAddr: 0x196B0, symBinAddr: 0x10001B030, symSize: 0x10 }
  - { offsetInCU: 0x16197, offset: 0x16197, size: 0x8, addend: 0x0, symName: __ZNSt3__123__libcpp_numeric_limitsIlLb1EE3maxB7v160006Ev, symObjAddr: 0x196C0, symBinAddr: 0x10001B040, symSize: 0x10 }
  - { offsetInCU: 0x161AB, offset: 0x161AB, size: 0x8, addend: 0x0, symName: __ZNSt3__112basic_stringIcNS_11char_traitsIcEENS_9allocatorIcEEE13__move_assignB7v160006ERS5_NS_17integral_constantIbLb1EEE, symObjAddr: 0x196D0, symBinAddr: 0x10001B050, symSize: 0x240 }
  - { offsetInCU: 0x161F1, offset: 0x161F1, size: 0x8, addend: 0x0, symName: __ZNSt3__116allocator_traitsINS_9allocatorIcEEE10deallocateB7v160006ERS2_Pcm, symObjAddr: 0x19910, symBinAddr: 0x10001B290, symSize: 0x30 }
  - { offsetInCU: 0x16233, offset: 0x16233, size: 0x8, addend: 0x0, symName: __ZNKSt3__112basic_stringIcNS_11char_traitsIcEENS_9allocatorIcEEE14__get_long_capB7v160006Ev, symObjAddr: 0x19940, symBinAddr: 0x10001B2C0, symSize: 0x60 }
  - { offsetInCU: 0x16259, offset: 0x16259, size: 0x8, addend: 0x0, symName: __ZNSt3__112basic_stringIcNS_11char_traitsIcEENS_9allocatorIcEEE19__move_assign_allocB7v160006ERS5_, symObjAddr: 0x199A0, symBinAddr: 0x10001B320, symSize: 0x30 }
  - { offsetInCU: 0x1628E, offset: 0x1628E, size: 0x8, addend: 0x0, symName: __ZNSt3__19allocatorIcE10deallocateB7v160006EPcm, symObjAddr: 0x199D0, symBinAddr: 0x10001B350, symSize: 0x50 }
  - { offsetInCU: 0x162D0, offset: 0x162D0, size: 0x8, addend: 0x0, symName: __ZNSt3__112basic_stringIcNS_11char_traitsIcEENS_9allocatorIcEEE19__move_assign_allocB7v160006ERS5_NS_17integral_constantIbLb1EEE, symObjAddr: 0x19A20, symBinAddr: 0x10001B3A0, symSize: 0x30 }
  - { offsetInCU: 0x1632F, offset: 0x1632F, size: 0x8, addend: 0x0, symName: __ZNKSt3__113basic_ostreamIcNS_11char_traitsIcEEE6sentrycvbB7v160006Ev, symObjAddr: 0x1A1A0, symBinAddr: 0x10001BB20, symSize: 0x70 }
  - { offsetInCU: 0x16355, offset: 0x16355, size: 0x8, addend: 0x0, symName: __ZNSt3__119ostreambuf_iteratorIcNS_11char_traitsIcEEEC1B7v160006ERNS_13basic_ostreamIcS2_EE, symObjAddr: 0x1A8F0, symBinAddr: 0x10001C270, symSize: 0x30 }
  - { offsetInCU: 0x1638D, offset: 0x1638D, size: 0x8, addend: 0x0, symName: __ZNKSt3__18ios_base5flagsB7v160006Ev, symObjAddr: 0x1A920, symBinAddr: 0x10001C2A0, symSize: 0x70 }
  - { offsetInCU: 0x163B5, offset: 0x163B5, size: 0x8, addend: 0x0, symName: __ZNKSt3__19basic_iosIcNS_11char_traitsIcEEE4fillB7v160006Ev, symObjAddr: 0x1A990, symBinAddr: 0x10001C310, symSize: 0x160 }
  - { offsetInCU: 0x163DD, offset: 0x163DD, size: 0x8, addend: 0x0, symName: __ZNKSt3__119ostreambuf_iteratorIcNS_11char_traitsIcEEE6failedB7v160006Ev, symObjAddr: 0x1AAF0, symBinAddr: 0x10001C470, symSize: 0x50 }
  - { offsetInCU: 0x16403, offset: 0x16403, size: 0x8, addend: 0x0, symName: __ZNKSt3__18ios_base5widthB7v160006Ev, symObjAddr: 0x1AB40, symBinAddr: 0x10001C4C0, symSize: 0x50 }
  - { offsetInCU: 0x1642B, offset: 0x1642B, size: 0x8, addend: 0x0, symName: __ZNSt3__115basic_streambufIcNS_11char_traitsIcEEE5sputnB7v160006EPKcl, symObjAddr: 0x1AB90, symBinAddr: 0x10001C510, symSize: 0xA0 }
  - { offsetInCU: 0x1646D, offset: 0x1646D, size: 0x8, addend: 0x0, symName: __ZNSt3__112basic_stringIcNS_11char_traitsIcEENS_9allocatorIcEEEC1B7v160006Emc, symObjAddr: 0x1AC30, symBinAddr: 0x10001C5B0, symSize: 0x30 }
  - { offsetInCU: 0x164B5, offset: 0x164B5, size: 0x8, addend: 0x0, symName: __ZNSt3__18ios_base5widthB7v160006El, symObjAddr: 0x1AC60, symBinAddr: 0x10001C5E0, symSize: 0xA0 }
  - { offsetInCU: 0x164FB, offset: 0x164FB, size: 0x8, addend: 0x0, symName: __ZNSt3__112basic_stringIcNS_11char_traitsIcEENS_9allocatorIcEEEC2B7v160006Emc, symObjAddr: 0x1AD00, symBinAddr: 0x10001C680, symSize: 0x180 }
  - { offsetInCU: 0x16546, offset: 0x16546, size: 0x8, addend: 0x0, symName: __ZNSt3__119ostreambuf_iteratorIcNS_11char_traitsIcEEEC2B7v160006ERNS_13basic_ostreamIcS2_EE, symObjAddr: 0x1AE80, symBinAddr: 0x10001C800, symSize: 0xF0 }
  - { offsetInCU: 0x1657E, offset: 0x1657E, size: 0x8, addend: 0x0, symName: __ZNKSt3__19basic_iosIcNS_11char_traitsIcEEE5widenB7v160006Ec, symObjAddr: 0x1AF70, symBinAddr: 0x10001C8F0, symSize: 0x200 }
  - { offsetInCU: 0x165EE, offset: 0x165EE, size: 0x8, addend: 0x0, symName: __ZNKSt3__15ctypeIcE5widenB7v160006Ec, symObjAddr: 0x1B1A0, symBinAddr: 0x10001CB20, symSize: 0xA0 }
  - { offsetInCU: 0x16623, offset: 0x16623, size: 0x8, addend: 0x0, symName: __ZNSt16initializer_listINSt3__112basic_stringIcNS0_11char_traitsIcEENS0_9allocatorIcEEEEEC2B7v160006Ev, symObjAddr: 0x1B240, symBinAddr: 0x10001CBC0, symSize: 0x90 }
  - { offsetInCU: 0x3B, offset: 0x167FE, size: 0x8, addend: 0x0, symName: _.str, symObjAddr: 0xF9E0, symBinAddr: 0x10002AD00, symSize: 0x0 }
  - { offsetInCU: 0x6B, offset: 0x1682E, size: 0x8, addend: 0x0, symName: _.str.1, symObjAddr: 0xFA00, symBinAddr: 0x10002AD20, symSize: 0x0 }
  - { offsetInCU: 0x88, offset: 0x1684B, size: 0x8, addend: 0x0, symName: _.str.2, symObjAddr: 0xFA20, symBinAddr: 0x10002AD40, symSize: 0x0 }
  - { offsetInCU: 0xA5, offset: 0x16868, size: 0x8, addend: 0x0, symName: _.str.3, symObjAddr: 0xFA40, symBinAddr: 0x10002AD60, symSize: 0x0 }
  - { offsetInCU: 0x6E59, offset: 0x1D61C, size: 0x8, addend: 0x0, symName: __ZNSt3__1neB7v160006IcNS_11char_traitsIcEENS_9allocatorIcEEEEbRKNS_12basic_stringIT_T0_T1_EEPKS6_, symObjAddr: 0xB50, symBinAddr: 0x10001D6A0, symSize: 0x30 }
  - { offsetInCU: 0x6EB1, offset: 0x1D674, size: 0x8, addend: 0x0, symName: __ZNSt3__1lsB7v160006INS_11char_traitsIcEEEERNS_13basic_ostreamIcT_EES6_PKc, symObjAddr: 0x1210, symBinAddr: 0x10001DD60, symSize: 0x40 }
  - { offsetInCU: 0x6EF7, offset: 0x1D6BA, size: 0x8, addend: 0x0, symName: __ZNSt3__1neB7v160006ERKNS_16__deque_iteratorIP8TreeNodePS2_RS2_PS3_lLl512EEES8_, symObjAddr: 0x2200, symBinAddr: 0x10001EBA0, symSize: 0x30 }
  - { offsetInCU: 0x6F34, offset: 0x1D6F7, size: 0x8, addend: 0x0, symName: __ZNSt3__1eqB7v160006ERKNS_16__deque_iteratorIP8TreeNodePS2_RS2_PS3_lLl512EEES8_, symObjAddr: 0x27F0, symBinAddr: 0x10001F170, symSize: 0xA0 }
  - { offsetInCU: 0x6F71, offset: 0x1D734, size: 0x8, addend: 0x0, symName: __ZNSt3__112__to_addressB7v160006IPP8TreeNodeEEPT_S5_, symObjAddr: 0x2DB0, symBinAddr: 0x10001F6B0, symSize: 0x10 }
  - { offsetInCU: 0x73FF, offset: 0x1DBC2, size: 0x8, addend: 0x0, symName: __ZNSt3__14swapB7v160006IPPP8TreeNodeEENS_9enable_ifIXaasr21is_move_constructibleIT_EE5valuesr18is_move_assignableIS6_EE5valueEvE4typeERS6_S9_, symObjAddr: 0x7EB0, symBinAddr: 0x1000244C0, symSize: 0x100 }
  - { offsetInCU: 0x7450, offset: 0x1DC13, size: 0x8, addend: 0x0, symName: __ZNSt3__14moveB7v160006IPPP8TreeNodeS4_EET0_T_S6_S5_, symObjAddr: 0x8030, symBinAddr: 0x100024640, symSize: 0x220 }
  - { offsetInCU: 0x74AD, offset: 0x1DC70, size: 0x8, addend: 0x0, symName: __ZNSt3__16__moveB7v160006INS_17_ClassicAlgPolicyEPPP8TreeNodeS5_S5_EENS_4pairIT0_T2_EES7_T1_S8_, symObjAddr: 0x8840, symBinAddr: 0x100024E50, symSize: 0x210 }
  - { offsetInCU: 0x751C, offset: 0x1DCDF, size: 0x8, addend: 0x0, symName: __ZNSt3__123__dispatch_copy_or_moveB7v160006INS_17_ClassicAlgPolicyENS_11__move_loopIS1_EENS_14__move_trivialEPPP8TreeNodeS8_S8_EENS_4pairIT2_T4_EESA_T3_SB_, symObjAddr: 0x8A50, symBinAddr: 0x100025060, symSize: 0x210 }
  - { offsetInCU: 0x759D, offset: 0x1DD60, size: 0x8, addend: 0x0, symName: __ZNSt3__121__unwrap_and_dispatchB7v160006INS_10__overloadINS_11__move_loopINS_17_ClassicAlgPolicyEEENS_14__move_trivialEEEPPP8TreeNodeSA_SA_Li0EEENS_4pairIT0_T2_EESC_T1_SD_, symObjAddr: 0x8C60, symBinAddr: 0x100025270, symSize: 0x650 }
  - { offsetInCU: 0x7636, offset: 0x1DDF9, size: 0x8, addend: 0x0, symName: __ZNSt3__114__unwrap_rangeB7v160006IPPP8TreeNodeS4_EENS_4pairIT0_S6_EET_S8_, symObjAddr: 0x92B0, symBinAddr: 0x1000258C0, symSize: 0x300 }
  - { offsetInCU: 0x77FC, offset: 0x1DFBF, size: 0x8, addend: 0x0, symName: __ZNSt3__113__unwrap_iterB7v160006IPPP8TreeNodeNS_18__unwrap_iter_implIS4_Lb1EEELi0EEEDTclsrT0_8__unwrapclsr3stdE7declvalIT_EEEES8_, symObjAddr: 0x97C0, symBinAddr: 0x100025DD0, symSize: 0x20 }
  - { offsetInCU: 0x7840, offset: 0x1E003, size: 0x8, addend: 0x0, symName: __ZNSt3__19make_pairB7v160006IPPP8TreeNodeS4_EENS_4pairINS_18__unwrap_ref_decayIT_E4typeENS6_IT0_E4typeEEEOS7_OSA_, symObjAddr: 0x97E0, symBinAddr: 0x100025DF0, symSize: 0x190 }
  - { offsetInCU: 0x7891, offset: 0x1E054, size: 0x8, addend: 0x0, symName: __ZNSt3__114__rewrap_rangeB7v160006IPPP8TreeNodeS4_EET_S5_T0_, symObjAddr: 0x9970, symBinAddr: 0x100025F80, symSize: 0x30 }
  - { offsetInCU: 0x78DD, offset: 0x1E0A0, size: 0x8, addend: 0x0, symName: __ZNSt3__113__rewrap_iterB7v160006IPPP8TreeNodeS4_NS_18__unwrap_iter_implIS4_Lb1EEEEET_S7_T0_, symObjAddr: 0x99A0, symBinAddr: 0x100025FB0, symSize: 0x50 }
  - { offsetInCU: 0x7932, offset: 0x1E0F5, size: 0x8, addend: 0x0, symName: __ZNSt3__119__copy_trivial_implB7v160006IPP8TreeNodeS3_EENS_4pairIPT_PT0_EES6_S6_S8_, symObjAddr: 0x99F0, symBinAddr: 0x100026000, symSize: 0x350 }
  - { offsetInCU: 0x79A1, offset: 0x1E164, size: 0x8, addend: 0x0, symName: __ZNSt3__19make_pairB7v160006IRPPP8TreeNodeS4_EENS_4pairINS_18__unwrap_ref_decayIT_E4typeENS7_IT0_E4typeEEEOS8_OSB_, symObjAddr: 0x9D40, symBinAddr: 0x100026350, symSize: 0x190 }
  - { offsetInCU: 0x7A45, offset: 0x1E208, size: 0x8, addend: 0x0, symName: __ZNSt3__18distanceB7v160006INS_13move_iteratorIPPP8TreeNodeEEEENS_15iterator_traitsIT_E15difference_typeES8_S8_, symObjAddr: 0xA1C0, symBinAddr: 0x1000267D0, symSize: 0x2C0 }
  - { offsetInCU: 0x7A90, offset: 0x1E253, size: 0x8, addend: 0x0, symName: __ZNSt3__110__distanceB7v160006INS_13move_iteratorIPPP8TreeNodeEEEENS_15iterator_traitsIT_E15difference_typeES8_S8_NS_26random_access_iterator_tagE, symObjAddr: 0xA5C0, symBinAddr: 0x100026BD0, symSize: 0x1E0 }
  - { offsetInCU: 0x7AE6, offset: 0x1E2A9, size: 0x8, addend: 0x0, symName: __ZNSt3__1miB7v160006IPPP8TreeNodeS4_EEDTmicldtfp_4baseEcldtfp0_4baseEERKNS_13move_iteratorIT_EERKNS6_IT0_EE, symObjAddr: 0xA7A0, symBinAddr: 0x100026DB0, symSize: 0x40 }
  - { offsetInCU: 0x7B35, offset: 0x1E2F8, size: 0x8, addend: 0x0, symName: __ZNSt3__113move_backwardB7v160006IPPP8TreeNodeS4_EET0_T_S6_S5_, symObjAddr: 0xAD60, symBinAddr: 0x1000272F0, symSize: 0x220 }
  - { offsetInCU: 0x7B92, offset: 0x1E355, size: 0x8, addend: 0x0, symName: __ZNSt3__115__move_backwardB7v160006INS_17_ClassicAlgPolicyEPPP8TreeNodeS5_S5_EENS_4pairIT0_T2_EES7_T1_S8_, symObjAddr: 0xAF80, symBinAddr: 0x100027510, symSize: 0x210 }
  - { offsetInCU: 0x7C01, offset: 0x1E3C4, size: 0x8, addend: 0x0, symName: __ZNSt3__123__dispatch_copy_or_moveB7v160006INS_17_ClassicAlgPolicyENS_20__move_backward_loopIS1_EENS_23__move_backward_trivialEPPP8TreeNodeS8_S8_EENS_4pairIT2_T4_EESA_T3_SB_, symObjAddr: 0xB190, symBinAddr: 0x100027720, symSize: 0x210 }
  - { offsetInCU: 0x7C82, offset: 0x1E445, size: 0x8, addend: 0x0, symName: __ZNSt3__121__unwrap_and_dispatchB7v160006INS_10__overloadINS_20__move_backward_loopINS_17_ClassicAlgPolicyEEENS_23__move_backward_trivialEEEPPP8TreeNodeSA_SA_Li0EEENS_4pairIT0_T2_EESC_T1_SD_, symObjAddr: 0xB3A0, symBinAddr: 0x100027930, symSize: 0x650 }
  - { offsetInCU: 0x7D61, offset: 0x1E524, size: 0x8, addend: 0x0, symName: __ZNSt3__128__copy_backward_trivial_implB7v160006IPP8TreeNodeS3_EENS_4pairIPT_PT0_EES6_S6_S8_, symObjAddr: 0xBC00, symBinAddr: 0x100028190, symSize: 0x370 }
  - { offsetInCU: 0x7DD3, offset: 0x1E596, size: 0x8, addend: 0x0, symName: __ZNSt3__19make_pairB7v160006IRPPP8TreeNodeS5_EENS_4pairINS_18__unwrap_ref_decayIT_E4typeENS7_IT0_E4typeEEEOS8_OSB_, symObjAddr: 0xBF70, symBinAddr: 0x100028500, symSize: 0x190 }
  - { offsetInCU: 0x7E24, offset: 0x1E5E7, size: 0x8, addend: 0x0, symName: __ZNSt3__119__allocate_at_leastB7v160006INS_9allocatorIPP8TreeNodeEEEENS_19__allocation_resultINS_16allocator_traitsIT_E7pointerEEERS8_m, symObjAddr: 0xC940, symBinAddr: 0x100028CC0, symSize: 0x210 }
  - { offsetInCU: 0x7E69, offset: 0x1E62C, size: 0x8, addend: 0x0, symName: __ZNSt3__112__to_addressB7v160006IP8TreeNodeEEPT_S4_, symObjAddr: 0xD8D0, symBinAddr: 0x100029C50, symSize: 0x10 }
  - { offsetInCU: 0xA2BA, offset: 0x20A7D, size: 0x8, addend: 0x0, symName: __Z15buildBinaryTreeRNSt3__16vectorINS_12basic_stringIcNS_11char_traitsIcEENS_9allocatorIcEEEENS4_IS6_EEEE, symObjAddr: 0x0, symBinAddr: 0x10001CCD0, symSize: 0x8C0 }
  - { offsetInCU: 0xA330, offset: 0x20AF3, size: 0x8, addend: 0x0, symName: __ZNSt3__16vectorINS_12basic_stringIcNS_11char_traitsIcEENS_9allocatorIcEEEENS4_IS6_EEEixB7v160006Em, symObjAddr: 0xA10, symBinAddr: 0x10001D590, symSize: 0x60 }
  - { offsetInCU: 0xA3A3, offset: 0x20B66, size: 0x8, addend: 0x0, symName: __ZNSt3__15queueIP8TreeNodeNS_5dequeIS2_NS_9allocatorIS2_EEEEEC1B7v160006Ev, symObjAddr: 0xA70, symBinAddr: 0x10001D5F0, symSize: 0x20 }
  - { offsetInCU: 0xA3CD, offset: 0x20B90, size: 0x8, addend: 0x0, symName: __ZNSt3__15queueIP8TreeNodeNS_5dequeIS2_NS_9allocatorIS2_EEEEE4pushB7v160006ERKS2_, symObjAddr: 0xAC0, symBinAddr: 0x10001D610, symSize: 0x30 }
  - { offsetInCU: 0xA402, offset: 0x20BC5, size: 0x8, addend: 0x0, symName: __ZNKSt3__15queueIP8TreeNodeNS_5dequeIS2_NS_9allocatorIS2_EEEEE5emptyB7v160006Ev, symObjAddr: 0xAF0, symBinAddr: 0x10001D640, symSize: 0x20 }
  - { offsetInCU: 0xA428, offset: 0x20BEB, size: 0x8, addend: 0x0, symName: __ZNSt3__15queueIP8TreeNodeNS_5dequeIS2_NS_9allocatorIS2_EEEEE5frontB7v160006Ev, symObjAddr: 0xB10, symBinAddr: 0x10001D660, symSize: 0x20 }
  - { offsetInCU: 0xA44E, offset: 0x20C11, size: 0x8, addend: 0x0, symName: __ZNSt3__15queueIP8TreeNodeNS_5dequeIS2_NS_9allocatorIS2_EEEEE3popB7v160006Ev, symObjAddr: 0xB30, symBinAddr: 0x10001D680, symSize: 0x20 }
  - { offsetInCU: 0xA474, offset: 0x20C37, size: 0x8, addend: 0x0, symName: __ZNSt3__15queueIP8TreeNodeNS_5dequeIS2_NS_9allocatorIS2_EEEEED1Ev, symObjAddr: 0xB80, symBinAddr: 0x10001D6D0, symSize: 0x20 }
  - { offsetInCU: 0xA4A0, offset: 0x20C63, size: 0x8, addend: 0x0, symName: __Z3bfsP8TreeNode, symObjAddr: 0xBA0, symBinAddr: 0x10001D6F0, symSize: 0x650 }
  - { offsetInCU: 0xA53C, offset: 0x20CFF, size: 0x8, addend: 0x0, symName: __ZNKSt3__15queueIP8TreeNodeNS_5dequeIS2_NS_9allocatorIS2_EEEEE4sizeB7v160006Ev, symObjAddr: 0x11F0, symBinAddr: 0x10001DD40, symSize: 0x20 }
  - { offsetInCU: 0xA561, offset: 0x20D24, size: 0x8, addend: 0x0, symName: __Z3dfsP8TreeNodeiPS0_, symObjAddr: 0x1320, symBinAddr: 0x10001DDA0, symSize: 0x150 }
  - { offsetInCU: 0xA5A6, offset: 0x20D69, size: 0x8, addend: 0x0, symName: __ZNSt3__15queueIP8TreeNodeNS_5dequeIS2_NS_9allocatorIS2_EEEEED2Ev, symObjAddr: 0x1550, symBinAddr: 0x10001DEF0, symSize: 0x20 }
  - { offsetInCU: 0xA5D3, offset: 0x20D96, size: 0x8, addend: 0x0, symName: __ZNSt3__15dequeIP8TreeNodeNS_9allocatorIS2_EEED1B7v160006Ev, symObjAddr: 0x1570, symBinAddr: 0x10001DF10, symSize: 0x20 }
  - { offsetInCU: 0xA5FD, offset: 0x20DC0, size: 0x8, addend: 0x0, symName: __ZNSt3__15dequeIP8TreeNodeNS_9allocatorIS2_EEED2B7v160006Ev, symObjAddr: 0x1590, symBinAddr: 0x10001DF30, symSize: 0xB0 }
  - { offsetInCU: 0xA653, offset: 0x20E16, size: 0x8, addend: 0x0, symName: __ZNSt3__15dequeIP8TreeNodeNS_9allocatorIS2_EEE5clearEv, symObjAddr: 0x1640, symBinAddr: 0x10001DFE0, symSize: 0x520 }
  - { offsetInCU: 0xA6B8, offset: 0x20E7B, size: 0x8, addend: 0x0, symName: __ZNSt3__114__split_bufferIPP8TreeNodeNS_9allocatorIS3_EEE5beginB7v160006Ev, symObjAddr: 0x1B60, symBinAddr: 0x10001E500, symSize: 0x50 }
  - { offsetInCU: 0xA6DE, offset: 0x20EA1, size: 0x8, addend: 0x0, symName: __ZNSt3__114__split_bufferIPP8TreeNodeNS_9allocatorIS3_EEE3endB7v160006Ev, symObjAddr: 0x1BB0, symBinAddr: 0x10001E550, symSize: 0x50 }
  - { offsetInCU: 0xA704, offset: 0x20EC7, size: 0x8, addend: 0x0, symName: __ZNSt3__116allocator_traitsINS_9allocatorIP8TreeNodeEEE10deallocateB7v160006ERS4_PS3_m, symObjAddr: 0x1C00, symBinAddr: 0x10001E5A0, symSize: 0x30 }
  - { offsetInCU: 0xA746, offset: 0x20F09, size: 0x8, addend: 0x0, symName: __ZNSt3__15dequeIP8TreeNodeNS_9allocatorIS2_EEE7__allocB7v160006Ev, symObjAddr: 0x1C30, symBinAddr: 0x10001E5D0, symSize: 0x20 }
  - { offsetInCU: 0xA76C, offset: 0x20F2F, size: 0x8, addend: 0x0, symName: __ZNSt3__114__split_bufferIPP8TreeNodeNS_9allocatorIS3_EEED1Ev, symObjAddr: 0x1C50, symBinAddr: 0x10001E5F0, symSize: 0x20 }
  - { offsetInCU: 0xA798, offset: 0x20F5B, size: 0x8, addend: 0x0, symName: __ZNSt3__15dequeIP8TreeNodeNS_9allocatorIS2_EEE5beginB7v160006Ev, symObjAddr: 0x1C70, symBinAddr: 0x10001E610, symSize: 0x300 }
  - { offsetInCU: 0xA7CF, offset: 0x20F92, size: 0x8, addend: 0x0, symName: __ZNSt3__15dequeIP8TreeNodeNS_9allocatorIS2_EEE3endB7v160006Ev, symObjAddr: 0x1F70, symBinAddr: 0x10001E910, symSize: 0x290 }
  - { offsetInCU: 0xA816, offset: 0x20FD9, size: 0x8, addend: 0x0, symName: __ZNSt3__116allocator_traitsINS_9allocatorIP8TreeNodeEEE7destroyB7v160006IS3_vEEvRS4_PT_, symObjAddr: 0x2240, symBinAddr: 0x10001EBD0, symSize: 0x30 }
  - { offsetInCU: 0xA853, offset: 0x21016, size: 0x8, addend: 0x0, symName: __ZNKSt3__116__deque_iteratorIP8TreeNodePS2_RS2_PS3_lLl512EEdeB7v160006Ev, symObjAddr: 0x2270, symBinAddr: 0x10001EC00, symSize: 0x50 }
  - { offsetInCU: 0xA879, offset: 0x2103C, size: 0x8, addend: 0x0, symName: __ZNSt3__116__deque_iteratorIP8TreeNodePS2_RS2_PS3_lLl512EEppB7v160006Ev, symObjAddr: 0x22C0, symBinAddr: 0x10001EC50, symSize: 0x1B0 }
  - { offsetInCU: 0xA89F, offset: 0x21062, size: 0x8, addend: 0x0, symName: __ZNSt3__15dequeIP8TreeNodeNS_9allocatorIS2_EEE6__sizeB7v160006Ev, symObjAddr: 0x2470, symBinAddr: 0x10001EE00, symSize: 0x20 }
  - { offsetInCU: 0xA8C5, offset: 0x21088, size: 0x8, addend: 0x0, symName: __ZNKSt3__114__split_bufferIPP8TreeNodeNS_9allocatorIS3_EEE4sizeB7v160006Ev, symObjAddr: 0x2490, symBinAddr: 0x10001EE20, symSize: 0xA0 }
  - { offsetInCU: 0xA8EB, offset: 0x210AE, size: 0x8, addend: 0x0, symName: __ZNSt3__114__split_bufferIPP8TreeNodeNS_9allocatorIS3_EEE5frontB7v160006Ev, symObjAddr: 0x2530, symBinAddr: 0x10001EEC0, symSize: 0x50 }
  - { offsetInCU: 0xA911, offset: 0x210D4, size: 0x8, addend: 0x0, symName: __ZNSt3__114__split_bufferIPP8TreeNodeNS_9allocatorIS3_EEE9pop_frontB7v160006Ev, symObjAddr: 0x2580, symBinAddr: 0x10001EF10, symSize: 0x60 }
  - { offsetInCU: 0xA937, offset: 0x210FA, size: 0x8, addend: 0x0, symName: __ZNKSt3__114__split_bufferIPP8TreeNodeNS_9allocatorIS3_EEE5emptyB7v160006Ev, symObjAddr: 0x25E0, symBinAddr: 0x10001EF70, symSize: 0xA0 }
  - { offsetInCU: 0xA95D, offset: 0x21120, size: 0x8, addend: 0x0, symName: __ZNSt3__116__deque_iteratorIP8TreeNodePS2_RS2_PS3_lLl512EEC1B7v160006ES5_S3_, symObjAddr: 0x2680, symBinAddr: 0x10001F010, symSize: 0x30 }
  - { offsetInCU: 0xA9A5, offset: 0x21168, size: 0x8, addend: 0x0, symName: __ZNSt3__116__deque_iteratorIP8TreeNodePS2_RS2_PS3_lLl512EEC2B7v160006ES5_S3_, symObjAddr: 0x26B0, symBinAddr: 0x10001F040, symSize: 0xA0 }
  - { offsetInCU: 0xA9ED, offset: 0x211B0, size: 0x8, addend: 0x0, symName: __ZNKSt3__15dequeIP8TreeNodeNS_9allocatorIS2_EEE4sizeB7v160006Ev, symObjAddr: 0x2750, symBinAddr: 0x10001F0E0, symSize: 0x50 }
  - { offsetInCU: 0xAA13, offset: 0x211D6, size: 0x8, addend: 0x0, symName: __ZNKSt3__15dequeIP8TreeNodeNS_9allocatorIS2_EEE6__sizeB7v160006Ev, symObjAddr: 0x27A0, symBinAddr: 0x10001F130, symSize: 0x20 }
  - { offsetInCU: 0xAA39, offset: 0x211FC, size: 0x8, addend: 0x0, symName: __ZNKSt3__117__compressed_pairImNS_9allocatorIP8TreeNodeEEE5firstB7v160006Ev, symObjAddr: 0x27C0, symBinAddr: 0x10001F150, symSize: 0x20 }
  - { offsetInCU: 0xAA5F, offset: 0x21222, size: 0x8, addend: 0x0, symName: __ZNSt3__19allocatorIP8TreeNodeE7destroyB7v160006EPS2_, symObjAddr: 0x2890, symBinAddr: 0x10001F210, symSize: 0x10 }
  - { offsetInCU: 0xAA93, offset: 0x21256, size: 0x8, addend: 0x0, symName: __ZNSt3__117__compressed_pairImNS_9allocatorIP8TreeNodeEEE5firstB7v160006Ev, symObjAddr: 0x28A0, symBinAddr: 0x10001F220, symSize: 0x20 }
  - { offsetInCU: 0xAAB9, offset: 0x2127C, size: 0x8, addend: 0x0, symName: __ZNSt3__114__split_bufferIPP8TreeNodeNS_9allocatorIS3_EEE19__destruct_at_beginB7v160006EPS3_, symObjAddr: 0x28D0, symBinAddr: 0x10001F240, symSize: 0x30 }
  - { offsetInCU: 0xAAED, offset: 0x212B0, size: 0x8, addend: 0x0, symName: __ZNSt3__114__split_bufferIPP8TreeNodeNS_9allocatorIS3_EEE19__destruct_at_beginEPS3_NS_17integral_constantIbLb1EEE, symObjAddr: 0x2900, symBinAddr: 0x10001F270, symSize: 0x60 }
  - { offsetInCU: 0xAB2D, offset: 0x212F0, size: 0x8, addend: 0x0, symName: __ZNSt3__19allocatorIP8TreeNodeE10deallocateB7v160006EPS2_m, symObjAddr: 0x2960, symBinAddr: 0x10001F2D0, symSize: 0x50 }
  - { offsetInCU: 0xAB6F, offset: 0x21332, size: 0x8, addend: 0x0, symName: __ZNSt3__117__compressed_pairImNS_9allocatorIP8TreeNodeEEE6secondB7v160006Ev, symObjAddr: 0x2A20, symBinAddr: 0x10001F320, symSize: 0x20 }
  - { offsetInCU: 0xAB95, offset: 0x21358, size: 0x8, addend: 0x0, symName: __ZNSt3__122__compressed_pair_elemINS_9allocatorIP8TreeNodeEELi1ELb1EE5__getB7v160006Ev, symObjAddr: 0x2A40, symBinAddr: 0x10001F340, symSize: 0x10 }
  - { offsetInCU: 0xABBB, offset: 0x2137E, size: 0x8, addend: 0x0, symName: __ZNSt3__114__split_bufferIPP8TreeNodeNS_9allocatorIS3_EEED2Ev, symObjAddr: 0x2A50, symBinAddr: 0x10001F350, symSize: 0xD0 }
  - { offsetInCU: 0xABE7, offset: 0x213AA, size: 0x8, addend: 0x0, symName: __ZNSt3__114__split_bufferIPP8TreeNodeNS_9allocatorIS3_EEE5clearB7v160006Ev, symObjAddr: 0x2B20, symBinAddr: 0x10001F420, symSize: 0x60 }
  - { offsetInCU: 0xAC0D, offset: 0x213D0, size: 0x8, addend: 0x0, symName: __ZNSt3__116allocator_traitsINS_9allocatorIPP8TreeNodeEEE10deallocateB7v160006ERS5_PS4_m, symObjAddr: 0x2B80, symBinAddr: 0x10001F480, symSize: 0x30 }
  - { offsetInCU: 0xAC4F, offset: 0x21412, size: 0x8, addend: 0x0, symName: __ZNSt3__114__split_bufferIPP8TreeNodeNS_9allocatorIS3_EEE7__allocB7v160006Ev, symObjAddr: 0x2BB0, symBinAddr: 0x10001F4B0, symSize: 0x20 }
  - { offsetInCU: 0xAC75, offset: 0x21438, size: 0x8, addend: 0x0, symName: __ZNKSt3__114__split_bufferIPP8TreeNodeNS_9allocatorIS3_EEE8capacityB7v160006Ev, symObjAddr: 0x2BD0, symBinAddr: 0x10001F4D0, symSize: 0x90 }
  - { offsetInCU: 0xAC9B, offset: 0x2145E, size: 0x8, addend: 0x0, symName: __ZNSt3__114__split_bufferIPP8TreeNodeNS_9allocatorIS3_EEE17__destruct_at_endB7v160006EPS3_, symObjAddr: 0x2C60, symBinAddr: 0x10001F560, symSize: 0x30 }
  - { offsetInCU: 0xACCF, offset: 0x21492, size: 0x8, addend: 0x0, symName: __ZNSt3__114__split_bufferIPP8TreeNodeNS_9allocatorIS3_EEE17__destruct_at_endB7v160006EPS3_NS_17integral_constantIbLb0EEE, symObjAddr: 0x2C90, symBinAddr: 0x10001F590, symSize: 0xF0 }
  - { offsetInCU: 0xAD0F, offset: 0x214D2, size: 0x8, addend: 0x0, symName: __ZNSt3__116allocator_traitsINS_9allocatorIPP8TreeNodeEEE7destroyB7v160006IS4_vEEvRS5_PT_, symObjAddr: 0x2D80, symBinAddr: 0x10001F680, symSize: 0x30 }
  - { offsetInCU: 0xAD4C, offset: 0x2150F, size: 0x8, addend: 0x0, symName: __ZNSt3__19allocatorIPP8TreeNodeE7destroyB7v160006EPS3_, symObjAddr: 0x2DC0, symBinAddr: 0x10001F6C0, symSize: 0x10 }
  - { offsetInCU: 0xAD80, offset: 0x21543, size: 0x8, addend: 0x0, symName: __ZNSt3__19allocatorIPP8TreeNodeE10deallocateB7v160006EPS3_m, symObjAddr: 0x2DD0, symBinAddr: 0x10001F6D0, symSize: 0x50 }
  - { offsetInCU: 0xADC2, offset: 0x21585, size: 0x8, addend: 0x0, symName: __ZNSt3__117__compressed_pairIPPP8TreeNodeNS_9allocatorIS3_EEE6secondB7v160006Ev, symObjAddr: 0x2E20, symBinAddr: 0x10001F720, symSize: 0x20 }
  - { offsetInCU: 0xADE8, offset: 0x215AB, size: 0x8, addend: 0x0, symName: __ZNSt3__122__compressed_pair_elemINS_9allocatorIPP8TreeNodeEELi1ELb1EE5__getB7v160006Ev, symObjAddr: 0x2E40, symBinAddr: 0x10001F740, symSize: 0x10 }
  - { offsetInCU: 0xAE0E, offset: 0x215D1, size: 0x8, addend: 0x0, symName: __ZNKSt3__114__split_bufferIPP8TreeNodeNS_9allocatorIS3_EEE9__end_capB7v160006Ev, symObjAddr: 0x2E50, symBinAddr: 0x10001F750, symSize: 0x20 }
  - { offsetInCU: 0xAE34, offset: 0x215F7, size: 0x8, addend: 0x0, symName: __ZNKSt3__117__compressed_pairIPPP8TreeNodeNS_9allocatorIS3_EEE5firstB7v160006Ev, symObjAddr: 0x2E70, symBinAddr: 0x10001F770, symSize: 0x20 }
  - { offsetInCU: 0xAE5A, offset: 0x2161D, size: 0x8, addend: 0x0, symName: __ZNKSt3__122__compressed_pair_elemIPPP8TreeNodeLi0ELb0EE5__getB7v160006Ev, symObjAddr: 0x2E90, symBinAddr: 0x10001F790, symSize: 0x10 }
  - { offsetInCU: 0xAE80, offset: 0x21643, size: 0x8, addend: 0x0, symName: __ZNSt3__15queueIP8TreeNodeNS_5dequeIS2_NS_9allocatorIS2_EEEEEC2B7v160006Ev, symObjAddr: 0x30B0, symBinAddr: 0x10001F7A0, symSize: 0x20 }
  - { offsetInCU: 0xAEAA, offset: 0x2166D, size: 0x8, addend: 0x0, symName: __ZNSt3__15dequeIP8TreeNodeNS_9allocatorIS2_EEEC1B7v160006Ev, symObjAddr: 0x30D0, symBinAddr: 0x10001F7C0, symSize: 0x20 }
  - { offsetInCU: 0xAED4, offset: 0x21697, size: 0x8, addend: 0x0, symName: __ZNSt3__15dequeIP8TreeNodeNS_9allocatorIS2_EEEC2B7v160006Ev, symObjAddr: 0x30F0, symBinAddr: 0x10001F7E0, symSize: 0x230 }
  - { offsetInCU: 0xAEFF, offset: 0x216C2, size: 0x8, addend: 0x0, symName: __ZNSt3__114__split_bufferIPP8TreeNodeNS_9allocatorIS3_EEEC1Ev, symObjAddr: 0x3320, symBinAddr: 0x10001FA10, symSize: 0x20 }
  - { offsetInCU: 0xAF35, offset: 0x216F8, size: 0x8, addend: 0x0, symName: __ZNSt3__117__compressed_pairImNS_9allocatorIP8TreeNodeEEEC1B7v160006IiNS_18__default_init_tagEEEOT_OT0_, symObjAddr: 0x3340, symBinAddr: 0x10001FA30, symSize: 0x30 }
  - { offsetInCU: 0xAF8D, offset: 0x21750, size: 0x8, addend: 0x0, symName: __ZNSt3__114__split_bufferIPP8TreeNodeNS_9allocatorIS3_EEEC2Ev, symObjAddr: 0x3370, symBinAddr: 0x10001FA60, symSize: 0x290 }
  - { offsetInCU: 0xAFBF, offset: 0x21782, size: 0x8, addend: 0x0, symName: __ZNSt3__117__compressed_pairIPPP8TreeNodeNS_9allocatorIS3_EEEC1B7v160006IDnNS_18__default_init_tagEEEOT_OT0_, symObjAddr: 0x3600, symBinAddr: 0x10001FCF0, symSize: 0x30 }
  - { offsetInCU: 0xB017, offset: 0x217DA, size: 0x8, addend: 0x0, symName: __ZNSt3__117__compressed_pairIPPP8TreeNodeNS_9allocatorIS3_EEEC2B7v160006IDnNS_18__default_init_tagEEEOT_OT0_, symObjAddr: 0x3630, symBinAddr: 0x10001FD20, symSize: 0x40 }
  - { offsetInCU: 0xB06F, offset: 0x21832, size: 0x8, addend: 0x0, symName: __ZNSt3__122__compressed_pair_elemIPPP8TreeNodeLi0ELb0EEC2B7v160006IDnvEEOT_, symObjAddr: 0x3670, symBinAddr: 0x10001FD60, symSize: 0x50 }
  - { offsetInCU: 0xB0B1, offset: 0x21874, size: 0x8, addend: 0x0, symName: __ZNSt3__122__compressed_pair_elemINS_9allocatorIPP8TreeNodeEELi1ELb1EEC2B7v160006ENS_18__default_init_tagE, symObjAddr: 0x36C0, symBinAddr: 0x10001FDB0, symSize: 0x20 }
  - { offsetInCU: 0xB0E5, offset: 0x218A8, size: 0x8, addend: 0x0, symName: __ZNSt3__19allocatorIPP8TreeNodeEC2B7v160006Ev, symObjAddr: 0x36E0, symBinAddr: 0x10001FDD0, symSize: 0x20 }
  - { offsetInCU: 0xB10F, offset: 0x218D2, size: 0x8, addend: 0x0, symName: __ZNSt3__116__non_trivial_ifILb1ENS_9allocatorIPP8TreeNodeEEEC2B7v160006Ev, symObjAddr: 0x3700, symBinAddr: 0x10001FDF0, symSize: 0x10 }
  - { offsetInCU: 0xB139, offset: 0x218FC, size: 0x8, addend: 0x0, symName: __ZNSt3__117__compressed_pairImNS_9allocatorIP8TreeNodeEEEC2B7v160006IiNS_18__default_init_tagEEEOT_OT0_, symObjAddr: 0x3710, symBinAddr: 0x10001FE00, symSize: 0x40 }
  - { offsetInCU: 0xB191, offset: 0x21954, size: 0x8, addend: 0x0, symName: __ZNSt3__122__compressed_pair_elemINS_9allocatorIP8TreeNodeEELi1ELb1EEC2B7v160006ENS_18__default_init_tagE, symObjAddr: 0x3800, symBinAddr: 0x10001FE40, symSize: 0x20 }
  - { offsetInCU: 0xB1C5, offset: 0x21988, size: 0x8, addend: 0x0, symName: __ZNSt3__19allocatorIP8TreeNodeEC2B7v160006Ev, symObjAddr: 0x3820, symBinAddr: 0x10001FE60, symSize: 0x20 }
  - { offsetInCU: 0xB1EF, offset: 0x219B2, size: 0x8, addend: 0x0, symName: __ZNSt3__116__non_trivial_ifILb1ENS_9allocatorIP8TreeNodeEEEC2B7v160006Ev, symObjAddr: 0x3840, symBinAddr: 0x10001FE80, symSize: 0x10 }
  - { offsetInCU: 0xB219, offset: 0x219DC, size: 0x8, addend: 0x0, symName: __ZNSt3__15dequeIP8TreeNodeNS_9allocatorIS2_EEE9push_backERKS2_, symObjAddr: 0x3850, symBinAddr: 0x10001FE90, symSize: 0x260 }
  - { offsetInCU: 0xB262, offset: 0x21A25, size: 0x8, addend: 0x0, symName: __ZNKSt3__15dequeIP8TreeNodeNS_9allocatorIS2_EEE12__back_spareB7v160006Ev, symObjAddr: 0x3AB0, symBinAddr: 0x1000200F0, symSize: 0x80 }
  - { offsetInCU: 0xB288, offset: 0x21A4B, size: 0x8, addend: 0x0, symName: __ZNSt3__15dequeIP8TreeNodeNS_9allocatorIS2_EEE19__add_back_capacityEv, symObjAddr: 0x3B30, symBinAddr: 0x100020170, symSize: 0xA20 }
  - { offsetInCU: 0xB348, offset: 0x21B0B, size: 0x8, addend: 0x0, symName: __ZNSt3__116allocator_traitsINS_9allocatorIP8TreeNodeEEE9constructB7v160006IS3_JRKS3_EvEEvRS4_PT_DpOT0_, symObjAddr: 0x4550, symBinAddr: 0x100020B90, symSize: 0x30 }
  - { offsetInCU: 0xB39F, offset: 0x21B62, size: 0x8, addend: 0x0, symName: __ZNKSt3__15dequeIP8TreeNodeNS_9allocatorIS2_EEE10__capacityB7v160006Ev, symObjAddr: 0x4580, symBinAddr: 0x100020BC0, symSize: 0x50 }
  - { offsetInCU: 0xB3C5, offset: 0x21B88, size: 0x8, addend: 0x0, symName: __ZNKSt3__15dequeIP8TreeNodeNS_9allocatorIS2_EEE13__front_spareB7v160006Ev, symObjAddr: 0x45D0, symBinAddr: 0x100020C10, symSize: 0x50 }
  - { offsetInCU: 0xB3EB, offset: 0x21BAE, size: 0x8, addend: 0x0, symName: __ZNSt3__114__split_bufferIPP8TreeNodeNS_9allocatorIS3_EEE9push_backB7v160006ERKS3_, symObjAddr: 0x4620, symBinAddr: 0x100020C60, symSize: 0xAC0 }
  - { offsetInCU: 0xB46A, offset: 0x21C2D, size: 0x8, addend: 0x0, symName: __ZNKSt3__114__split_bufferIPP8TreeNodeNS_9allocatorIS3_EEE12__back_spareB7v160006Ev, symObjAddr: 0x50E0, symBinAddr: 0x100021720, symSize: 0xA0 }
  - { offsetInCU: 0xB490, offset: 0x21C53, size: 0x8, addend: 0x0, symName: __ZNSt3__114__split_bufferIPP8TreeNodeNS_9allocatorIS3_EEE9push_backEOS3_, symObjAddr: 0x5180, symBinAddr: 0x1000217C0, symSize: 0xAC0 }
  - { offsetInCU: 0xB50F, offset: 0x21CD2, size: 0x8, addend: 0x0, symName: __ZNSt3__116allocator_traitsINS_9allocatorIP8TreeNodeEEE8allocateB7v160006ERS4_m, symObjAddr: 0x5C40, symBinAddr: 0x100022280, symSize: 0x30 }
  - { offsetInCU: 0xB542, offset: 0x21D05, size: 0x8, addend: 0x0, symName: __ZNSt3__114__split_bufferIPP8TreeNodeNS_9allocatorIS3_EEE10push_frontEOS3_, symObjAddr: 0x5C70, symBinAddr: 0x1000222B0, symSize: 0xAE0 }
  - { offsetInCU: 0xB5C1, offset: 0x21D84, size: 0x8, addend: 0x0, symName: __ZNSt3__114__split_bufferIPP8TreeNodeRNS_9allocatorIS3_EEEC1EmmS6_, symObjAddr: 0x6780, symBinAddr: 0x100022D90, symSize: 0x40 }
  - { offsetInCU: 0xB61C, offset: 0x21DDF, size: 0x8, addend: 0x0, symName: __ZNSt3__122__allocator_destructorINS_9allocatorIP8TreeNodeEEEC1B7v160006ERS4_m, symObjAddr: 0x67C0, symBinAddr: 0x100022DD0, symSize: 0x30 }
  - { offsetInCU: 0xB6DF, offset: 0x21EA2, size: 0x8, addend: 0x0, symName: __ZNSt3__110unique_ptrIPP8TreeNodeNS_22__allocator_destructorINS_9allocatorIS2_EEEEEC1B7v160006ILb1EvEES3_NS_16__dependent_typeINS_27__unique_ptr_deleter_sfinaeIS7_EEXT_EE20__good_rval_ref_typeE, symObjAddr: 0x67F0, symBinAddr: 0x100022E00, symSize: 0x30 }
  - { offsetInCU: 0xB730, offset: 0x21EF3, size: 0x8, addend: 0x0, symName: __ZNSt3__114__split_bufferIPP8TreeNodeRNS_9allocatorIS3_EEE9push_backEOS3_, symObjAddr: 0x6820, symBinAddr: 0x100022E30, symSize: 0xAC0 }
  - { offsetInCU: 0xB7AF, offset: 0x21F72, size: 0x8, addend: 0x0, symName: __ZNKSt3__110unique_ptrIPP8TreeNodeNS_22__allocator_destructorINS_9allocatorIS2_EEEEE3getB7v160006Ev, symObjAddr: 0x72E0, symBinAddr: 0x1000238F0, symSize: 0x50 }
  - { offsetInCU: 0xB7D5, offset: 0x21F98, size: 0x8, addend: 0x0, symName: __ZNSt3__110unique_ptrIPP8TreeNodeNS_22__allocator_destructorINS_9allocatorIS2_EEEEE7releaseB7v160006Ev, symObjAddr: 0x7330, symBinAddr: 0x100023940, symSize: 0xA0 }
  - { offsetInCU: 0xB80A, offset: 0x21FCD, size: 0x8, addend: 0x0, symName: __ZNSt3__114__split_bufferIPP8TreeNodeRNS_9allocatorIS3_EEE10push_frontERKS3_, symObjAddr: 0x73D0, symBinAddr: 0x1000239E0, symSize: 0xAE0 }
  - { offsetInCU: 0xB889, offset: 0x2204C, size: 0x8, addend: 0x0, symName: __ZNSt3__114__split_bufferIPP8TreeNodeNS_9allocatorIS3_EEE9__end_capB7v160006Ev, symObjAddr: 0x7FB0, symBinAddr: 0x1000245C0, symSize: 0x20 }
  - { offsetInCU: 0xB8AF, offset: 0x22072, size: 0x8, addend: 0x0, symName: __ZNSt3__114__split_bufferIPP8TreeNodeRNS_9allocatorIS3_EEE9__end_capB7v160006Ev, symObjAddr: 0x7FD0, symBinAddr: 0x1000245E0, symSize: 0x20 }
  - { offsetInCU: 0xB8D5, offset: 0x22098, size: 0x8, addend: 0x0, symName: __ZNSt3__110unique_ptrIPP8TreeNodeNS_22__allocator_destructorINS_9allocatorIS2_EEEEED1B7v160006Ev, symObjAddr: 0x7FF0, symBinAddr: 0x100024600, symSize: 0x20 }
  - { offsetInCU: 0xB8FF, offset: 0x220C2, size: 0x8, addend: 0x0, symName: __ZNSt3__114__split_bufferIPP8TreeNodeRNS_9allocatorIS3_EEED1Ev, symObjAddr: 0x8010, symBinAddr: 0x100024620, symSize: 0x20 }
  - { offsetInCU: 0xB92B, offset: 0x220EE, size: 0x8, addend: 0x0, symName: __ZNSt3__114__split_bufferIPP8TreeNodeRNS_9allocatorIS3_EEE18__construct_at_endINS_13move_iteratorIPS3_EEEENS_9enable_ifIXsr27__is_cpp17_forward_iteratorIT_EE5valueEvE4typeESD_SD_, symObjAddr: 0x8250, symBinAddr: 0x100024860, symSize: 0x590 }
  - { offsetInCU: 0xB994, offset: 0x22157, size: 0x8, addend: 0x0, symName: __ZNSt3__113move_iteratorIPPP8TreeNodeEC1B7v160006ES4_, symObjAddr: 0x87E0, symBinAddr: 0x100024DF0, symSize: 0x30 }
  - { offsetInCU: 0xB9CC, offset: 0x2218F, size: 0x8, addend: 0x0, symName: __ZNSt3__116allocator_traitsINS_9allocatorIPP8TreeNodeEEE9constructB7v160006IS4_JRKS4_EvEEvRS5_PT_DpOT0_, symObjAddr: 0x8810, symBinAddr: 0x100024E20, symSize: 0x30 }
  - { offsetInCU: 0xBA46, offset: 0x22209, size: 0x8, addend: 0x0, symName: __ZNKSt3__114__move_trivialclB7v160006IPP8TreeNodeS4_Li0EEENS_4pairIPT_PT0_EES7_S7_S9_, symObjAddr: 0x95B0, symBinAddr: 0x100025BC0, symSize: 0x210 }
  - { offsetInCU: 0xBAB7, offset: 0x2227A, size: 0x8, addend: 0x0, symName: __ZNSt3__14pairIPPP8TreeNodeS4_EC1B7v160006IRS4_S4_LPv0EEEOT_OT0_, symObjAddr: 0x9ED0, symBinAddr: 0x1000264E0, symSize: 0x30 }
  - { offsetInCU: 0xBB15, offset: 0x222D8, size: 0x8, addend: 0x0, symName: __ZNSt3__14pairIPPP8TreeNodeS4_EC2B7v160006IRS4_S4_LPv0EEEOT_OT0_, symObjAddr: 0x9F00, symBinAddr: 0x100026510, symSize: 0x110 }
  - { offsetInCU: 0xBB73, offset: 0x22336, size: 0x8, addend: 0x0, symName: __ZNSt3__118__unwrap_iter_implIPPP8TreeNodeLb1EE8__unwrapB7v160006ES4_, symObjAddr: 0xA010, symBinAddr: 0x100026620, symSize: 0x20 }
  - { offsetInCU: 0xBB96, offset: 0x22359, size: 0x8, addend: 0x0, symName: __ZNSt3__14pairIPPP8TreeNodeS4_EC1B7v160006IS4_S4_LPv0EEEOT_OT0_, symObjAddr: 0xA030, symBinAddr: 0x100026640, symSize: 0x30 }
  - { offsetInCU: 0xBBF4, offset: 0x223B7, size: 0x8, addend: 0x0, symName: __ZNSt3__14pairIPPP8TreeNodeS4_EC2B7v160006IS4_S4_LPv0EEEOT_OT0_, symObjAddr: 0xA060, symBinAddr: 0x100026670, symSize: 0x110 }
  - { offsetInCU: 0xBC52, offset: 0x22415, size: 0x8, addend: 0x0, symName: __ZNSt3__118__unwrap_iter_implIPPP8TreeNodeLb1EE8__rewrapB7v160006ES4_S4_, symObjAddr: 0xA170, symBinAddr: 0x100026780, symSize: 0x50 }
  - { offsetInCU: 0xBC8D, offset: 0x22450, size: 0x8, addend: 0x0, symName: __ZNSt3__114__split_bufferIPP8TreeNodeRNS_9allocatorIS3_EEE21_ConstructTransactionC1B7v160006EPPS3_m, symObjAddr: 0xA480, symBinAddr: 0x100026A90, symSize: 0x30 }
  - { offsetInCU: 0xBCD3, offset: 0x22496, size: 0x8, addend: 0x0, symName: __ZNSt3__116allocator_traitsINS_9allocatorIPP8TreeNodeEEE9constructB7v160006IS4_JS4_EvEEvRS5_PT_DpOT0_, symObjAddr: 0xA4B0, symBinAddr: 0x100026AC0, symSize: 0x30 }
  - { offsetInCU: 0xBD2A, offset: 0x224ED, size: 0x8, addend: 0x0, symName: __ZNSt3__114__split_bufferIPP8TreeNodeRNS_9allocatorIS3_EEE7__allocB7v160006Ev, symObjAddr: 0xA4E0, symBinAddr: 0x100026AF0, symSize: 0x20 }
  - { offsetInCU: 0xBD50, offset: 0x22513, size: 0x8, addend: 0x0, symName: __ZNKSt3__113move_iteratorIPPP8TreeNodeEdeB7v160006Ev, symObjAddr: 0xA500, symBinAddr: 0x100026B10, symSize: 0x50 }
  - { offsetInCU: 0xBD76, offset: 0x22539, size: 0x8, addend: 0x0, symName: __ZNSt3__113move_iteratorIPPP8TreeNodeEppB7v160006Ev, symObjAddr: 0xA550, symBinAddr: 0x100026B60, symSize: 0x50 }
  - { offsetInCU: 0xBD9C, offset: 0x2255F, size: 0x8, addend: 0x0, symName: __ZNSt3__114__split_bufferIPP8TreeNodeRNS_9allocatorIS3_EEE21_ConstructTransactionD1B7v160006Ev, symObjAddr: 0xA5A0, symBinAddr: 0x100026BB0, symSize: 0x20 }
  - { offsetInCU: 0xBDC6, offset: 0x22589, size: 0x8, addend: 0x0, symName: __ZNKSt3__113move_iteratorIPPP8TreeNodeE4baseB7v160006Ev, symObjAddr: 0xA7E0, symBinAddr: 0x100026DF0, symSize: 0x50 }
  - { offsetInCU: 0xBDEC, offset: 0x225AF, size: 0x8, addend: 0x0, symName: __ZNSt3__114__split_bufferIPP8TreeNodeRNS_9allocatorIS3_EEE21_ConstructTransactionC2B7v160006EPPS3_m, symObjAddr: 0xA830, symBinAddr: 0x100026E40, symSize: 0x160 }
  - { offsetInCU: 0xBE32, offset: 0x225F5, size: 0x8, addend: 0x0, symName: __ZNSt3__19allocatorIPP8TreeNodeE9constructB7v160006IS3_JS3_EEEvPT_DpOT0_, symObjAddr: 0xA990, symBinAddr: 0x100026FA0, symSize: 0x90 }
  - { offsetInCU: 0xBE88, offset: 0x2264B, size: 0x8, addend: 0x0, symName: __ZNSt3__117__compressed_pairIPPP8TreeNodeRNS_9allocatorIS3_EEE6secondB7v160006Ev, symObjAddr: 0xAA20, symBinAddr: 0x100027030, symSize: 0x20 }
  - { offsetInCU: 0xBEAE, offset: 0x22671, size: 0x8, addend: 0x0, symName: __ZNSt3__122__compressed_pair_elemIRNS_9allocatorIPP8TreeNodeEELi1ELb0EE5__getB7v160006Ev, symObjAddr: 0xAA40, symBinAddr: 0x100027050, symSize: 0x50 }
  - { offsetInCU: 0xBED4, offset: 0x22697, size: 0x8, addend: 0x0, symName: __ZNSt3__114__split_bufferIPP8TreeNodeRNS_9allocatorIS3_EEE21_ConstructTransactionD2B7v160006Ev, symObjAddr: 0xAA90, symBinAddr: 0x1000270A0, symSize: 0xC0 }
  - { offsetInCU: 0xBEFE, offset: 0x226C1, size: 0x8, addend: 0x0, symName: __ZNSt3__113move_iteratorIPPP8TreeNodeEC2B7v160006ES4_, symObjAddr: 0xAB50, symBinAddr: 0x100027160, symSize: 0x60 }
  - { offsetInCU: 0xBF36, offset: 0x226F9, size: 0x8, addend: 0x0, symName: __ZNSt3__19allocatorIPP8TreeNodeE9constructB7v160006IS3_JRKS3_EEEvPT_DpOT0_, symObjAddr: 0xABB0, symBinAddr: 0x1000271C0, symSize: 0x90 }
  - { offsetInCU: 0xBF8C, offset: 0x2274F, size: 0x8, addend: 0x0, symName: __ZNSt3__19allocatorIP8TreeNodeE8allocateB7v160006Em, symObjAddr: 0xAC40, symBinAddr: 0x100027250, symSize: 0x60 }
  - { offsetInCU: 0xBFCA, offset: 0x2278D, size: 0x8, addend: 0x0, symName: __ZNSt3__116allocator_traitsINS_9allocatorIP8TreeNodeEEE8max_sizeB7v160006IS4_vEEmRKS4_, symObjAddr: 0xACA0, symBinAddr: 0x1000272B0, symSize: 0x20 }
  - { offsetInCU: 0xBFF8, offset: 0x227BB, size: 0x8, addend: 0x0, symName: __ZNKSt3__19allocatorIP8TreeNodeE8max_sizeB7v160006Ev, symObjAddr: 0xAD20, symBinAddr: 0x1000272D0, symSize: 0x20 }
  - { offsetInCU: 0xC028, offset: 0x227EB, size: 0x8, addend: 0x0, symName: __ZNKSt3__123__move_backward_trivialclB7v160006IPP8TreeNodeS4_Li0EEENS_4pairIPT_PT0_EES7_S7_S9_, symObjAddr: 0xB9F0, symBinAddr: 0x100027F80, symSize: 0x210 }
  - { offsetInCU: 0xC094, offset: 0x22857, size: 0x8, addend: 0x0, symName: __ZNSt3__14pairIPPP8TreeNodeS4_EC1B7v160006IRS4_S7_LPv0EEEOT_OT0_, symObjAddr: 0xC100, symBinAddr: 0x100028690, symSize: 0x30 }
  - { offsetInCU: 0xC0F2, offset: 0x228B5, size: 0x8, addend: 0x0, symName: __ZNSt3__14pairIPPP8TreeNodeS4_EC2B7v160006IRS4_S7_LPv0EEEOT_OT0_, symObjAddr: 0xC130, symBinAddr: 0x1000286C0, symSize: 0x110 }
  - { offsetInCU: 0xC150, offset: 0x22913, size: 0x8, addend: 0x0, symName: __ZNSt3__114__split_bufferIPP8TreeNodeRNS_9allocatorIS3_EEEC2EmmS6_, symObjAddr: 0xC450, symBinAddr: 0x1000287D0, symSize: 0x4C0 }
  - { offsetInCU: 0xC1CB, offset: 0x2298E, size: 0x8, addend: 0x0, symName: __ZNSt3__117__compressed_pairIPPP8TreeNodeRNS_9allocatorIS3_EEEC1B7v160006IDnS7_EEOT_OT0_, symObjAddr: 0xC910, symBinAddr: 0x100028C90, symSize: 0x30 }
  - { offsetInCU: 0xC223, offset: 0x229E6, size: 0x8, addend: 0x0, symName: __ZNSt3__117__compressed_pairIPPP8TreeNodeRNS_9allocatorIS3_EEEC2B7v160006IDnS7_EEOT_OT0_, symObjAddr: 0xCB50, symBinAddr: 0x100028ED0, symSize: 0x40 }
  - { offsetInCU: 0xC27B, offset: 0x22A3E, size: 0x8, addend: 0x0, symName: __ZNSt3__122__compressed_pair_elemIRNS_9allocatorIPP8TreeNodeEELi1ELb0EEC2B7v160006IS6_vEEOT_, symObjAddr: 0xCB90, symBinAddr: 0x100028F10, symSize: 0x60 }
  - { offsetInCU: 0xC2BD, offset: 0x22A80, size: 0x8, addend: 0x0, symName: __ZNSt3__19allocatorIPP8TreeNodeE8allocateB7v160006Em, symObjAddr: 0xCBF0, symBinAddr: 0x100028F70, symSize: 0x60 }
  - { offsetInCU: 0xC2FB, offset: 0x22ABE, size: 0x8, addend: 0x0, symName: __ZNSt3__116allocator_traitsINS_9allocatorIPP8TreeNodeEEE8max_sizeB7v160006IS5_vEEmRKS5_, symObjAddr: 0xCC50, symBinAddr: 0x100028FD0, symSize: 0x20 }
  - { offsetInCU: 0xC329, offset: 0x22AEC, size: 0x8, addend: 0x0, symName: __ZNKSt3__19allocatorIPP8TreeNodeE8max_sizeB7v160006Ev, symObjAddr: 0xCC70, symBinAddr: 0x100028FF0, symSize: 0x20 }
  - { offsetInCU: 0xC34F, offset: 0x22B12, size: 0x8, addend: 0x0, symName: __ZNSt3__122__allocator_destructorINS_9allocatorIP8TreeNodeEEEC2B7v160006ERS4_m, symObjAddr: 0xCC90, symBinAddr: 0x100029010, symSize: 0xA0 }
  - { offsetInCU: 0xC395, offset: 0x22B58, size: 0x8, addend: 0x0, symName: __ZNSt3__110unique_ptrIPP8TreeNodeNS_22__allocator_destructorINS_9allocatorIS2_EEEEEC2B7v160006ILb1EvEES3_NS_16__dependent_typeINS_27__unique_ptr_deleter_sfinaeIS7_EEXT_EE20__good_rval_ref_typeE, symObjAddr: 0xCD30, symBinAddr: 0x1000290B0, symSize: 0x1A0 }
  - { offsetInCU: 0xC3EC, offset: 0x22BAF, size: 0x8, addend: 0x0, symName: __ZNSt3__117__compressed_pairIPP8TreeNodeNS_22__allocator_destructorINS_9allocatorIS2_EEEEEC1B7v160006IRS3_S7_EEOT_OT0_, symObjAddr: 0xCED0, symBinAddr: 0x100029250, symSize: 0x30 }
  - { offsetInCU: 0xC444, offset: 0x22C07, size: 0x8, addend: 0x0, symName: __ZNSt3__117__compressed_pairIPP8TreeNodeNS_22__allocator_destructorINS_9allocatorIS2_EEEEEC2B7v160006IRS3_S7_EEOT_OT0_, symObjAddr: 0xCF00, symBinAddr: 0x100029280, symSize: 0x40 }
  - { offsetInCU: 0xC49C, offset: 0x22C5F, size: 0x8, addend: 0x0, symName: __ZNSt3__122__compressed_pair_elemIPP8TreeNodeLi0ELb0EEC2B7v160006IRS3_vEEOT_, symObjAddr: 0xCF40, symBinAddr: 0x1000292C0, symSize: 0x90 }
  - { offsetInCU: 0xC4DE, offset: 0x22CA1, size: 0x8, addend: 0x0, symName: __ZNSt3__122__compressed_pair_elemINS_22__allocator_destructorINS_9allocatorIP8TreeNodeEEEELi1ELb0EEC2B7v160006IS6_vEEOT_, symObjAddr: 0xCFD0, symBinAddr: 0x100029350, symSize: 0x30 }
  - { offsetInCU: 0xC520, offset: 0x22CE3, size: 0x8, addend: 0x0, symName: __ZNKSt3__117__compressed_pairIPP8TreeNodeNS_22__allocator_destructorINS_9allocatorIS2_EEEEE5firstB7v160006Ev, symObjAddr: 0xD000, symBinAddr: 0x100029380, symSize: 0x20 }
  - { offsetInCU: 0xC546, offset: 0x22D09, size: 0x8, addend: 0x0, symName: __ZNKSt3__122__compressed_pair_elemIPP8TreeNodeLi0ELb0EE5__getB7v160006Ev, symObjAddr: 0xD020, symBinAddr: 0x1000293A0, symSize: 0x10 }
  - { offsetInCU: 0xC56C, offset: 0x22D2F, size: 0x8, addend: 0x0, symName: __ZNSt3__117__compressed_pairIPP8TreeNodeNS_22__allocator_destructorINS_9allocatorIS2_EEEEE5firstB7v160006Ev, symObjAddr: 0xD030, symBinAddr: 0x1000293B0, symSize: 0x20 }
  - { offsetInCU: 0xC592, offset: 0x22D55, size: 0x8, addend: 0x0, symName: __ZNSt3__122__compressed_pair_elemIPP8TreeNodeLi0ELb0EE5__getB7v160006Ev, symObjAddr: 0xD050, symBinAddr: 0x1000293D0, symSize: 0x10 }
  - { offsetInCU: 0xC5B8, offset: 0x22D7B, size: 0x8, addend: 0x0, symName: __ZNSt3__117__compressed_pairIPPP8TreeNodeNS_9allocatorIS3_EEE5firstB7v160006Ev, symObjAddr: 0xD060, symBinAddr: 0x1000293E0, symSize: 0x20 }
  - { offsetInCU: 0xC5DE, offset: 0x22DA1, size: 0x8, addend: 0x0, symName: __ZNSt3__122__compressed_pair_elemIPPP8TreeNodeLi0ELb0EE5__getB7v160006Ev, symObjAddr: 0xD080, symBinAddr: 0x100029400, symSize: 0x10 }
  - { offsetInCU: 0xC604, offset: 0x22DC7, size: 0x8, addend: 0x0, symName: __ZNSt3__117__compressed_pairIPPP8TreeNodeRNS_9allocatorIS3_EEE5firstB7v160006Ev, symObjAddr: 0xD090, symBinAddr: 0x100029410, symSize: 0x20 }
  - { offsetInCU: 0xC62A, offset: 0x22DED, size: 0x8, addend: 0x0, symName: __ZNSt3__110unique_ptrIPP8TreeNodeNS_22__allocator_destructorINS_9allocatorIS2_EEEEED2B7v160006Ev, symObjAddr: 0xD0B0, symBinAddr: 0x100029430, symSize: 0x20 }
  - { offsetInCU: 0xC654, offset: 0x22E17, size: 0x8, addend: 0x0, symName: __ZNSt3__110unique_ptrIPP8TreeNodeNS_22__allocator_destructorINS_9allocatorIS2_EEEEE5resetB7v160006ES3_, symObjAddr: 0xD0D0, symBinAddr: 0x100029450, symSize: 0xC0 }
  - { offsetInCU: 0xC698, offset: 0x22E5B, size: 0x8, addend: 0x0, symName: __ZNSt3__117__compressed_pairIPP8TreeNodeNS_22__allocator_destructorINS_9allocatorIS2_EEEEE6secondB7v160006Ev, symObjAddr: 0xD190, symBinAddr: 0x100029510, symSize: 0x20 }
  - { offsetInCU: 0xC6BE, offset: 0x22E81, size: 0x8, addend: 0x0, symName: __ZNSt3__122__allocator_destructorINS_9allocatorIP8TreeNodeEEEclB7v160006EPS3_, symObjAddr: 0xD1B0, symBinAddr: 0x100029530, symSize: 0xA0 }
  - { offsetInCU: 0xC6F2, offset: 0x22EB5, size: 0x8, addend: 0x0, symName: __ZNSt3__122__compressed_pair_elemINS_22__allocator_destructorINS_9allocatorIP8TreeNodeEEEELi1ELb0EE5__getB7v160006Ev, symObjAddr: 0xD250, symBinAddr: 0x1000295D0, symSize: 0x10 }
  - { offsetInCU: 0xC718, offset: 0x22EDB, size: 0x8, addend: 0x0, symName: __ZNSt3__114__split_bufferIPP8TreeNodeRNS_9allocatorIS3_EEED2Ev, symObjAddr: 0xD260, symBinAddr: 0x1000295E0, symSize: 0xD0 }
  - { offsetInCU: 0xC744, offset: 0x22F07, size: 0x8, addend: 0x0, symName: __ZNSt3__114__split_bufferIPP8TreeNodeRNS_9allocatorIS3_EEE5clearB7v160006Ev, symObjAddr: 0xD330, symBinAddr: 0x1000296B0, symSize: 0x60 }
  - { offsetInCU: 0xC76A, offset: 0x22F2D, size: 0x8, addend: 0x0, symName: __ZNKSt3__114__split_bufferIPP8TreeNodeRNS_9allocatorIS3_EEE8capacityB7v160006Ev, symObjAddr: 0xD390, symBinAddr: 0x100029710, symSize: 0x90 }
  - { offsetInCU: 0xC790, offset: 0x22F53, size: 0x8, addend: 0x0, symName: __ZNSt3__114__split_bufferIPP8TreeNodeRNS_9allocatorIS3_EEE17__destruct_at_endB7v160006EPS3_, symObjAddr: 0xD420, symBinAddr: 0x1000297A0, symSize: 0x30 }
  - { offsetInCU: 0xC7C4, offset: 0x22F87, size: 0x8, addend: 0x0, symName: __ZNSt3__114__split_bufferIPP8TreeNodeRNS_9allocatorIS3_EEE17__destruct_at_endB7v160006EPS3_NS_17integral_constantIbLb0EEE, symObjAddr: 0xD450, symBinAddr: 0x1000297D0, symSize: 0xF0 }
  - { offsetInCU: 0xC804, offset: 0x22FC7, size: 0x8, addend: 0x0, symName: __ZNKSt3__114__split_bufferIPP8TreeNodeRNS_9allocatorIS3_EEE9__end_capB7v160006Ev, symObjAddr: 0xD540, symBinAddr: 0x1000298C0, symSize: 0x20 }
  - { offsetInCU: 0xC82A, offset: 0x22FED, size: 0x8, addend: 0x0, symName: __ZNKSt3__117__compressed_pairIPPP8TreeNodeRNS_9allocatorIS3_EEE5firstB7v160006Ev, symObjAddr: 0xD560, symBinAddr: 0x1000298E0, symSize: 0x20 }
  - { offsetInCU: 0xC850, offset: 0x23013, size: 0x8, addend: 0x0, symName: __ZNSt3__19allocatorIP8TreeNodeE9constructB7v160006IS2_JRKS2_EEEvPT_DpOT0_, symObjAddr: 0xD580, symBinAddr: 0x100029900, symSize: 0x90 }
  - { offsetInCU: 0xC8A6, offset: 0x23069, size: 0x8, addend: 0x0, symName: __ZNKSt3__15dequeIP8TreeNodeNS_9allocatorIS2_EEE5emptyB7v160006Ev, symObjAddr: 0xD610, symBinAddr: 0x100029990, symSize: 0x30 }
  - { offsetInCU: 0xC8CC, offset: 0x2308F, size: 0x8, addend: 0x0, symName: __ZNSt3__15dequeIP8TreeNodeNS_9allocatorIS2_EEE5frontEv, symObjAddr: 0xD640, symBinAddr: 0x1000299C0, symSize: 0xF0 }
  - { offsetInCU: 0xC8F4, offset: 0x230B7, size: 0x8, addend: 0x0, symName: __ZNSt3__15dequeIP8TreeNodeNS_9allocatorIS2_EEE9pop_frontEv, symObjAddr: 0xD730, symBinAddr: 0x100029AB0, symSize: 0x1A0 }
  - { offsetInCU: 0xC92B, offset: 0x230EE, size: 0x8, addend: 0x0, symName: __ZNSt3__15dequeIP8TreeNodeNS_9allocatorIS2_EEE26__maybe_remove_front_spareB7v160006Eb, symObjAddr: 0xD8E0, symBinAddr: 0x100029C60, symSize: 0x110 }
  - { offsetInCU: 0xC960, offset: 0x23123, size: 0x8, addend: 0x0, symName: __ZNKSt3__15dequeIP8TreeNodeNS_9allocatorIS2_EEE20__front_spare_blocksB7v160006Ev, symObjAddr: 0xD9F0, symBinAddr: 0x100029D70, symSize: 0x20 }
...
