---
triple:          'x86_64-apple-darwin'
binary-path:     test
relocations:
  - { offsetInCU: 0x3C, offset: 0x3C, size: 0x8, addend: 0x0, symName: _.str, symObjAddr: 0x11200, symBinAddr: 0x100013640, symSize: 0x0 }
  - { offsetInCU: 0x7A, offset: 0x7A, size: 0x8, addend: 0x0, symName: __ZNSt3__1L19piecewise_constructE, symObjAddr: 0x111C0, symBinAddr: 0x100013600, symSize: 0x0 }
  - { offsetInCU: 0x4179, offset: 0x4179, size: 0x8, addend: 0x0, symName: __ZNSt3__17advanceB7v160006IPimmvEEvRT_T0_, symObjAddr: 0x3340, symBinAddr: 0x1000055F0, symSize: 0x50 }
  - { offsetInCU: 0x7192, offset: 0x7192, size: 0x8, addend: 0x0, symName: __ZNSt3__17advanceB7v160006IPKimmvEEvRT_T0_, symObjAddr: 0xE7C0, symBinAddr: 0x100010A70, symSize: 0x50 }
  - { offsetInCU: 0x94E9, offset: 0x94E9, size: 0x8, addend: 0x0, symName: __ZNSt3__14endlB7v160006IcNS_11char_traitsIcEEEERNS_13basic_ostreamIT_T0_EES7_, symObjAddr: 0xFF0, symBinAddr: 0x1000032A0, symSize: 0xB0 }
  - { offsetInCU: 0x9529, offset: 0x9529, size: 0x8, addend: 0x0, symName: __ZNSt3__119__debug_db_insert_cB7v160006INS_13unordered_mapIiiNS_4hashIiEENS_8equal_toIiEENS_9allocatorINS_4pairIKiiEEEEEEEEvPT_, symObjAddr: 0x1170, symBinAddr: 0x100003420, symSize: 0x10 }
  - { offsetInCU: 0x955A, offset: 0x955A, size: 0x8, addend: 0x0, symName: __ZNSt3__1neB7v160006IPiEEbRKNS_11__wrap_iterIT_EES6_, symObjAddr: 0x21E0, symBinAddr: 0x100004490, symSize: 0x30 }
  - { offsetInCU: 0x959D, offset: 0x959D, size: 0x8, addend: 0x0, symName: __ZNSt3__1eqB7v160006IPiEEbRKNS_11__wrap_iterIT_EES6_, symObjAddr: 0x2DD0, symBinAddr: 0x100005080, symSize: 0x40 }
  - { offsetInCU: 0x95E0, offset: 0x95E0, size: 0x8, addend: 0x0, symName: __ZNSt3__18distanceB7v160006IPiEENS_15iterator_traitsIT_E15difference_typeES3_S3_, symObjAddr: 0x3280, symBinAddr: 0x100005530, symSize: 0x30 }
  - { offsetInCU: 0x9623, offset: 0x9623, size: 0x8, addend: 0x0, symName: __ZNSt3__14copyB7v160006IPiS1_EET0_T_S3_S2_, symObjAddr: 0x3390, symBinAddr: 0x100005640, symSize: 0x220 }
  - { offsetInCU: 0x9680, offset: 0x9680, size: 0x8, addend: 0x0, symName: __ZNSt3__125__debug_db_invalidate_allB7v160006INS_6vectorIiNS_9allocatorIiEEEEEEvPT_, symObjAddr: 0x4180, symBinAddr: 0x100006430, symSize: 0x10 }
  - { offsetInCU: 0x96B1, offset: 0x96B1, size: 0x8, addend: 0x0, symName: __ZNSt3__110__distanceB7v160006IPiEENS_15iterator_traitsIT_E15difference_typeES3_S3_NS_26random_access_iterator_tagE, symObjAddr: 0x4190, symBinAddr: 0x100006440, symSize: 0x20 }
  - { offsetInCU: 0x96FE, offset: 0x96FE, size: 0x8, addend: 0x0, symName: __ZNSt3__121__convert_to_integralB7v160006Em, symObjAddr: 0x4200, symBinAddr: 0x1000064B0, symSize: 0x10 }
  - { offsetInCU: 0x972A, offset: 0x972A, size: 0x8, addend: 0x0, symName: __ZNSt3__19__advanceB7v160006IPiEEvRT_NS_15iterator_traitsIS2_E15difference_typeENS_26random_access_iterator_tagE, symObjAddr: 0x4210, symBinAddr: 0x1000064C0, symSize: 0x60 }
  - { offsetInCU: 0x9773, offset: 0x9773, size: 0x8, addend: 0x0, symName: __ZNSt3__16__copyB7v160006INS_17_ClassicAlgPolicyEPiS2_S2_EENS_4pairIT0_T2_EES4_T1_S5_, symObjAddr: 0x4270, symBinAddr: 0x100006520, symSize: 0x210 }
  - { offsetInCU: 0x97E2, offset: 0x97E2, size: 0x8, addend: 0x0, symName: __ZNSt3__123__dispatch_copy_or_moveB7v160006INS_17_ClassicAlgPolicyENS_11__copy_loopIS1_EENS_14__copy_trivialEPiS5_S5_EENS_4pairIT2_T4_EES7_T3_S8_, symObjAddr: 0x4480, symBinAddr: 0x100006730, symSize: 0x210 }
  - { offsetInCU: 0x9863, offset: 0x9863, size: 0x8, addend: 0x0, symName: __ZNSt3__121__unwrap_and_dispatchB7v160006INS_10__overloadINS_11__copy_loopINS_17_ClassicAlgPolicyEEENS_14__copy_trivialEEEPiS7_S7_Li0EEENS_4pairIT0_T2_EES9_T1_SA_, symObjAddr: 0x4690, symBinAddr: 0x100006940, symSize: 0x650 }
  - { offsetInCU: 0x98FC, offset: 0x98FC, size: 0x8, addend: 0x0, symName: __ZNSt3__114__unwrap_rangeB7v160006IPiS1_EENS_4pairIT0_S3_EET_S5_, symObjAddr: 0x4CE0, symBinAddr: 0x100006F90, symSize: 0x300 }
  - { offsetInCU: 0x9ACF, offset: 0x9ACF, size: 0x8, addend: 0x0, symName: __ZNSt3__113__unwrap_iterB7v160006IPiNS_18__unwrap_iter_implIS1_Lb1EEELi0EEEDTclsrT0_8__unwrapclsr3stdE7declvalIT_EEEES5_, symObjAddr: 0x51F0, symBinAddr: 0x1000074A0, symSize: 0x20 }
  - { offsetInCU: 0x9B13, offset: 0x9B13, size: 0x8, addend: 0x0, symName: __ZNSt3__19make_pairB7v160006IPiS1_EENS_4pairINS_18__unwrap_ref_decayIT_E4typeENS3_IT0_E4typeEEEOS4_OS7_, symObjAddr: 0x5210, symBinAddr: 0x1000074C0, symSize: 0x190 }
  - { offsetInCU: 0x9B64, offset: 0x9B64, size: 0x8, addend: 0x0, symName: __ZNSt3__114__rewrap_rangeB7v160006IPiS1_EET_S2_T0_, symObjAddr: 0x53A0, symBinAddr: 0x100007650, symSize: 0x30 }
  - { offsetInCU: 0x9BB0, offset: 0x9BB0, size: 0x8, addend: 0x0, symName: __ZNSt3__113__rewrap_iterB7v160006IPiS1_NS_18__unwrap_iter_implIS1_Lb1EEEEET_S4_T0_, symObjAddr: 0x53D0, symBinAddr: 0x100007680, symSize: 0x50 }
  - { offsetInCU: 0x9C05, offset: 0x9C05, size: 0x8, addend: 0x0, symName: __ZNSt3__119__copy_trivial_implB7v160006IiiEENS_4pairIPT_PT0_EES3_S3_S5_, symObjAddr: 0x5420, symBinAddr: 0x1000076D0, symSize: 0x350 }
  - { offsetInCU: 0x9C74, offset: 0x9C74, size: 0x8, addend: 0x0, symName: __ZNSt3__19make_pairB7v160006IRPiS1_EENS_4pairINS_18__unwrap_ref_decayIT_E4typeENS4_IT0_E4typeEEEOS5_OS8_, symObjAddr: 0x5770, symBinAddr: 0x100007A20, symSize: 0x190 }
  - { offsetInCU: 0x9D18, offset: 0x9D18, size: 0x8, addend: 0x0, symName: __ZNSt3__112__to_addressB7v160006IiEEPT_S2_, symObjAddr: 0x5A60, symBinAddr: 0x100007D10, symSize: 0x10 }
  - { offsetInCU: 0x9D4D, offset: 0x9D4D, size: 0x8, addend: 0x0, symName: __ZNSt3__130__uninitialized_allocator_copyB7v160006INS_9allocatorIiEEPiS3_S3_EET2_RT_T0_T1_S4_, symObjAddr: 0x5C30, symBinAddr: 0x100007EE0, symSize: 0x550 }
  - { offsetInCU: 0x9DF9, offset: 0x9DF9, size: 0x8, addend: 0x0, symName: __ZNSt3__122__make_exception_guardB7v160006INS_29_AllocatorDestroyRangeReverseINS_9allocatorIiEEPiEEEENS_28__exception_guard_exceptionsIT_EES7_, symObjAddr: 0x64D0, symBinAddr: 0x100008780, symSize: 0x2A0 }
  - { offsetInCU: 0x9E32, offset: 0x9E32, size: 0x8, addend: 0x0, symName: __ZNSt3__119__allocator_destroyB7v160006INS_9allocatorIiEENS_16reverse_iteratorIPiEES5_EEvRT_T0_T1_, symObjAddr: 0x7260, symBinAddr: 0x100009510, symSize: 0x2B0 }
  - { offsetInCU: 0x9E9E, offset: 0x9E9E, size: 0x8, addend: 0x0, symName: __ZNSt3__1neB7v160006IPiS1_EEbRKNS_16reverse_iteratorIT_EERKNS2_IT0_EE, symObjAddr: 0x7540, symBinAddr: 0x1000097F0, symSize: 0x40 }
  - { offsetInCU: 0x9EEA, offset: 0x9EEA, size: 0x8, addend: 0x0, symName: __ZNSt3__112__to_addressB7v160006INS_16reverse_iteratorIPiEEvEENS_5decayIDTclsr19__to_address_helperIT_EE6__callclsr3stdE7declvalIRKS5_EEEEE4typeES7_, symObjAddr: 0x75B0, symBinAddr: 0x100009860, symSize: 0x20 }
  - { offsetInCU: 0x9F49, offset: 0x9F49, size: 0x8, addend: 0x0, symName: __ZNSt3__119__libcpp_deallocateB7v160006EPvmm, symObjAddr: 0x7D40, symBinAddr: 0x100009FF0, symSize: 0x30 }
  - { offsetInCU: 0x9F91, offset: 0x9F91, size: 0x8, addend: 0x0, symName: __ZNSt3__127__do_deallocate_handle_sizeB7v160006IJEEEvPvmDpT_, symObjAddr: 0x7D70, symBinAddr: 0x10000A020, symSize: 0x20 }
  - { offsetInCU: 0x9FCF, offset: 0x9FCF, size: 0x8, addend: 0x0, symName: __ZNSt3__124__libcpp_operator_deleteB7v160006IJPvEEEvDpT_, symObjAddr: 0x7D90, symBinAddr: 0x10000A040, symSize: 0x20 }
  - { offsetInCU: 0xA004, offset: 0xA004, size: 0x8, addend: 0x0, symName: __ZNSt3__119__allocate_at_leastB7v160006INS_9allocatorIiEEEENS_19__allocation_resultINS_16allocator_traitsIT_E7pointerEEERS5_m, symObjAddr: 0x8060, symBinAddr: 0x10000A310, symSize: 0x210 }
  - { offsetInCU: 0xA049, offset: 0xA049, size: 0x8, addend: 0x0, symName: __ZNSt3__13minB7v160006ImEERKT_S3_S3_, symObjAddr: 0x8320, symBinAddr: 0x10000A5D0, symSize: 0x30 }
  - { offsetInCU: 0xA28D, offset: 0xA28D, size: 0x8, addend: 0x0, symName: __ZNSt3__13minB7v160006ImNS_6__lessImmEEEERKT_S5_S5_T0_, symObjAddr: 0x83A0, symBinAddr: 0x10000A650, symSize: 0x170 }
  - { offsetInCU: 0xA328, offset: 0xA328, size: 0x8, addend: 0x0, symName: __ZNSt3__120__throw_length_errorB7v160006EPKc, symObjAddr: 0x8610, symBinAddr: 0x10000A8C0, symSize: 0x70 }
  - { offsetInCU: 0xA350, offset: 0xA350, size: 0x8, addend: 0x0, symName: __ZNSt3__117__libcpp_allocateB7v160006Emm, symObjAddr: 0x87C0, symBinAddr: 0x10000AA70, symSize: 0x20 }
  - { offsetInCU: 0xA38D, offset: 0xA38D, size: 0x8, addend: 0x0, symName: __ZNSt3__121__libcpp_operator_newB7v160006IJmEEEPvDpT_, symObjAddr: 0x87E0, symBinAddr: 0x10000AA90, symSize: 0x20 }
  - { offsetInCU: 0xA3C6, offset: 0xA3C6, size: 0x8, addend: 0x0, symName: __ZNSt3__13maxB7v160006ImEERKT_S3_S3_, symObjAddr: 0x8800, symBinAddr: 0x10000AAB0, symSize: 0x30 }
  - { offsetInCU: 0xA409, offset: 0xA409, size: 0x8, addend: 0x0, symName: __ZNSt3__13maxB7v160006ImNS_6__lessImmEEEERKT_S5_S5_T0_, symObjAddr: 0x8830, symBinAddr: 0x10000AAE0, symSize: 0x170 }
  - { offsetInCU: 0xA469, offset: 0xA469, size: 0x8, addend: 0x0, symName: __ZNSt3__1neB7v160006ERKNS_19__hash_map_iteratorINS_15__hash_iteratorIPNS_11__hash_nodeINS_17__hash_value_typeIiiEEPvEEEEEESB_, symObjAddr: 0x8C70, symBinAddr: 0x10000AF20, symSize: 0x30 }
  - { offsetInCU: 0xA4DD, offset: 0xA4DD, size: 0x8, addend: 0x0, symName: __ZNSt3__116forward_as_tupleB7v160006IJRKiEEENS_5tupleIJDpOT_EEES6_, symObjAddr: 0xA120, symBinAddr: 0x10000C3D0, symSize: 0x180 }
  - { offsetInCU: 0xA517, offset: 0xA517, size: 0x8, addend: 0x0, symName: __ZNSt3__116forward_as_tupleB7v160006IJEEENS_5tupleIJDpOT_EEES4_, symObjAddr: 0xA2A0, symBinAddr: 0x10000C550, symSize: 0x10 }
  - { offsetInCU: 0xA53B, offset: 0xA53B, size: 0x8, addend: 0x0, symName: __ZNSt3__116__constrain_hashB7v160006Emm, symObjAddr: 0xA3F0, symBinAddr: 0x10000C6A0, symSize: 0x80 }
  - { offsetInCU: 0xA575, offset: 0xA575, size: 0x8, addend: 0x0, symName: __ZNSt3__116__is_hash_power2B7v160006Em, symObjAddr: 0xA9C0, symBinAddr: 0x10000CC70, symSize: 0x40 }
  - { offsetInCU: 0xA5FD, offset: 0xA5FD, size: 0x8, addend: 0x0, symName: __ZNSt3__13getB7v160006ILm0EJRKiEEERNS_13tuple_elementIXT_ENS_5tupleIJDpT0_EEEE4typeERS7_, symObjAddr: 0xB8D0, symBinAddr: 0x10000DB80, symSize: 0x20 }
  - { offsetInCU: 0xA640, offset: 0xA640, size: 0x8, addend: 0x0, symName: __ZNSt3__116__next_hash_pow2B7v160006Em, symObjAddr: 0xC730, symBinAddr: 0x10000E9E0, symSize: 0x60 }
  - { offsetInCU: 0xA66C, offset: 0xA66C, size: 0x8, addend: 0x0, symName: __ZNSt3__125__debug_db_invalidate_allB7v160006INS_12__hash_tableINS_17__hash_value_typeIiiEENS_22__unordered_map_hasherIiS3_NS_4hashIiEENS_8equal_toIiEELb1EEENS_21__unordered_map_equalIiS3_S8_S6_Lb1EEENS_9allocatorIS3_EEEEEEvPT_, symObjAddr: 0xC790, symBinAddr: 0x10000EA40, symSize: 0x10 }
  - { offsetInCU: 0xA6B9, offset: 0xA6B9, size: 0x8, addend: 0x0, symName: __ZNSt3__112__libcpp_clzB7v160006Em, symObjAddr: 0xCB40, symBinAddr: 0x10000EDF0, symSize: 0x20 }
  - { offsetInCU: 0xA73C, offset: 0xA73C, size: 0x8, addend: 0x0, symName: __ZNSt3__1neB7v160006ERKNS_15__hash_iteratorIPNS_11__hash_nodeINS_17__hash_value_typeIiiEEPvEEEES9_, symObjAddr: 0xD0E0, symBinAddr: 0x10000F390, symSize: 0x30 }
  - { offsetInCU: 0xA779, offset: 0xA779, size: 0x8, addend: 0x0, symName: __ZNSt3__1eqB7v160006ERKNS_15__hash_iteratorIPNS_11__hash_nodeINS_17__hash_value_typeIiiEEPvEEEES9_, symObjAddr: 0xD110, symBinAddr: 0x10000F3C0, symSize: 0x90 }
  - { offsetInCU: 0xA7B6, offset: 0xA7B6, size: 0x8, addend: 0x0, symName: __ZNSt3__119__debug_db_insert_cB7v160006INS_6vectorIiNS_9allocatorIiEEEEEEvPT_, symObjAddr: 0xDD00, symBinAddr: 0x10000FFB0, symSize: 0x10 }
  - { offsetInCU: 0xA7E7, offset: 0xA7E7, size: 0x8, addend: 0x0, symName: __ZNSt3__118__debug_db_erase_cB7v160006INS_6vectorIiNS_9allocatorIiEEEEEEvPT_, symObjAddr: 0xE2C0, symBinAddr: 0x100010570, symSize: 0x10 }
  - { offsetInCU: 0xA818, offset: 0xA818, size: 0x8, addend: 0x0, symName: __ZNSt3__18distanceB7v160006IPKiEENS_15iterator_traitsIT_E15difference_typeES4_S4_, symObjAddr: 0xE790, symBinAddr: 0x100010A40, symSize: 0x30 }
  - { offsetInCU: 0xA85B, offset: 0xA85B, size: 0x8, addend: 0x0, symName: __ZNSt3__14copyB7v160006IPKiPiEET0_T_S5_S4_, symObjAddr: 0xE810, symBinAddr: 0x100010AC0, symSize: 0x220 }
  - { offsetInCU: 0xA8B8, offset: 0xA8B8, size: 0x8, addend: 0x0, symName: __ZNSt3__110__distanceB7v160006IPKiEENS_15iterator_traitsIT_E15difference_typeES4_S4_NS_26random_access_iterator_tagE, symObjAddr: 0xED30, symBinAddr: 0x100010FE0, symSize: 0x20 }
  - { offsetInCU: 0xA905, offset: 0xA905, size: 0x8, addend: 0x0, symName: __ZNSt3__19__advanceB7v160006IPKiEEvRT_NS_15iterator_traitsIS3_E15difference_typeENS_26random_access_iterator_tagE, symObjAddr: 0xED50, symBinAddr: 0x100011000, symSize: 0x60 }
  - { offsetInCU: 0xA94E, offset: 0xA94E, size: 0x8, addend: 0x0, symName: __ZNSt3__16__copyB7v160006INS_17_ClassicAlgPolicyEPKiS3_PiEENS_4pairIT0_T2_EES6_T1_S7_, symObjAddr: 0xEDB0, symBinAddr: 0x100011060, symSize: 0x210 }
  - { offsetInCU: 0xA9BD, offset: 0xA9BD, size: 0x8, addend: 0x0, symName: __ZNSt3__123__dispatch_copy_or_moveB7v160006INS_17_ClassicAlgPolicyENS_11__copy_loopIS1_EENS_14__copy_trivialEPKiS6_PiEENS_4pairIT2_T4_EES9_T3_SA_, symObjAddr: 0xEFC0, symBinAddr: 0x100011270, symSize: 0x210 }
  - { offsetInCU: 0xAA3E, offset: 0xAA3E, size: 0x8, addend: 0x0, symName: __ZNSt3__121__unwrap_and_dispatchB7v160006INS_10__overloadINS_11__copy_loopINS_17_ClassicAlgPolicyEEENS_14__copy_trivialEEEPKiS8_PiLi0EEENS_4pairIT0_T2_EESB_T1_SC_, symObjAddr: 0xF1D0, symBinAddr: 0x100011480, symSize: 0x650 }
  - { offsetInCU: 0xAAD7, offset: 0xAAD7, size: 0x8, addend: 0x0, symName: __ZNSt3__114__unwrap_rangeB7v160006IPKiS2_EENS_4pairIT0_S4_EET_S6_, symObjAddr: 0xF820, symBinAddr: 0x100011AD0, symSize: 0x300 }
  - { offsetInCU: 0xAC28, offset: 0xAC28, size: 0x8, addend: 0x0, symName: __ZNSt3__19make_pairB7v160006IPKiPiEENS_4pairINS_18__unwrap_ref_decayIT_E4typeENS5_IT0_E4typeEEEOS6_OS9_, symObjAddr: 0xFD30, symBinAddr: 0x100011FE0, symSize: 0x190 }
  - { offsetInCU: 0xAC79, offset: 0xAC79, size: 0x8, addend: 0x0, symName: __ZNSt3__114__rewrap_rangeB7v160006IPKiS2_EET_S3_T0_, symObjAddr: 0xFEC0, symBinAddr: 0x100012170, symSize: 0x30 }
  - { offsetInCU: 0xACC5, offset: 0xACC5, size: 0x8, addend: 0x0, symName: __ZNSt3__19make_pairB7v160006IPKiS2_EENS_4pairINS_18__unwrap_ref_decayIT_E4typeENS4_IT0_E4typeEEEOS5_OS8_, symObjAddr: 0xFEF0, symBinAddr: 0x1000121A0, symSize: 0x190 }
  - { offsetInCU: 0xAD16, offset: 0xAD16, size: 0x8, addend: 0x0, symName: __ZNSt3__113__unwrap_iterB7v160006IPKiNS_18__unwrap_iter_implIS2_Lb1EEELi0EEEDTclsrT0_8__unwrapclsr3stdE7declvalIT_EEEES6_, symObjAddr: 0x10080, symBinAddr: 0x100012330, symSize: 0x20 }
  - { offsetInCU: 0xAE81, offset: 0xAE81, size: 0x8, addend: 0x0, symName: __ZNSt3__112__to_addressB7v160006IKiEEPT_S3_, symObjAddr: 0x10200, symBinAddr: 0x1000124B0, symSize: 0x10 }
  - { offsetInCU: 0xAEB6, offset: 0xAEB6, size: 0x8, addend: 0x0, symName: __ZNSt3__119__copy_trivial_implB7v160006IKiiEENS_4pairIPT_PT0_EES4_S4_S6_, symObjAddr: 0x10210, symBinAddr: 0x1000124C0, symSize: 0x350 }
  - { offsetInCU: 0xAF25, offset: 0xAF25, size: 0x8, addend: 0x0, symName: __ZNSt3__19make_pairB7v160006IRPKiPiEENS_4pairINS_18__unwrap_ref_decayIT_E4typeENS6_IT0_E4typeEEEOS7_OSA_, symObjAddr: 0x10560, symBinAddr: 0x100012810, symSize: 0x190 }
  - { offsetInCU: 0xAF76, offset: 0xAF76, size: 0x8, addend: 0x0, symName: __ZNSt3__113__rewrap_iterB7v160006IPKiS2_NS_18__unwrap_iter_implIS2_Lb1EEEEET_S5_T0_, symObjAddr: 0x10970, symBinAddr: 0x100012C20, symSize: 0x50 }
  - { offsetInCU: 0xAFCB, offset: 0xAFCB, size: 0x8, addend: 0x0, symName: __ZNSt3__130__uninitialized_allocator_copyB7v160006INS_9allocatorIiEEiiLPv0EEEPT0_RT_PKS4_S9_S5_, symObjAddr: 0x10A10, symBinAddr: 0x100012CC0, symSize: 0x30 }
  - { offsetInCU: 0xB043, offset: 0xB043, size: 0x8, addend: 0x0, symName: __ZNSt3__19use_facetB7v160006INS_5ctypeIcEEEERKT_RKNS_6localeE, symObjAddr: 0x10C40, symBinAddr: 0x100012EF0, symSize: 0x30 }
  - { offsetInCU: 0xB83B, offset: 0xB83B, size: 0x8, addend: 0x0, symName: __ZSt28__throw_bad_array_new_lengthB7v160006v, symObjAddr: 0x8780, symBinAddr: 0x10000AA30, symSize: 0x40 }
  - { offsetInCU: 0xE364, offset: 0xE364, size: 0x8, addend: 0x0, symName: _main, symObjAddr: 0x0, symBinAddr: 0x1000022B0, symSize: 0xA00 }
  - { offsetInCU: 0xE4C2, offset: 0xE4C2, size: 0x8, addend: 0x0, symName: __ZN8SolutionC1Ev, symObjAddr: 0xA00, symBinAddr: 0x100002CB0, symSize: 0x20 }
  - { offsetInCU: 0xE4EE, offset: 0xE4EE, size: 0x8, addend: 0x0, symName: __ZNSt3__16vectorIiNS_9allocatorIiEEEC1B7v160006Ev, symObjAddr: 0xA20, symBinAddr: 0x100002CD0, symSize: 0x20 }
  - { offsetInCU: 0xE518, offset: 0xE518, size: 0x8, addend: 0x0, symName: __ZNSt3__16vectorIiNS_9allocatorIiEEEaSB7v160006ESt16initializer_listIiE, symObjAddr: 0xA40, symBinAddr: 0x100002CF0, symSize: 0x1F0 }
  - { offsetInCU: 0xE552, offset: 0xE552, size: 0x8, addend: 0x0, symName: __ZN8Solution20canPartitionKSubsetsERNSt3__16vectorIiNS0_9allocatorIiEEEEi, symObjAddr: 0xC30, symBinAddr: 0x100002EE0, symSize: 0x3A0 }
  - { offsetInCU: 0xE6D1, offset: 0xE6D1, size: 0x8, addend: 0x0, symName: __ZNSt3__113basic_ostreamIcNS_11char_traitsIcEEElsB7v160006EPFRS3_S4_E, symObjAddr: 0xFD0, symBinAddr: 0x100003280, symSize: 0x20 }
  - { offsetInCU: 0xE705, offset: 0xE705, size: 0x8, addend: 0x0, symName: __ZNSt3__16vectorIiNS_9allocatorIiEEED1B7v160006Ev, symObjAddr: 0x10A0, symBinAddr: 0x100003350, symSize: 0x20 }
  - { offsetInCU: 0xE72F, offset: 0xE72F, size: 0x8, addend: 0x0, symName: __ZN8SolutionC2Ev, symObjAddr: 0x10C0, symBinAddr: 0x100003370, symSize: 0x30 }
  - { offsetInCU: 0xE75B, offset: 0xE75B, size: 0x8, addend: 0x0, symName: __ZNSt3__113unordered_mapIiiNS_4hashIiEENS_8equal_toIiEENS_9allocatorINS_4pairIKiiEEEEEC1B7v160006Ev, symObjAddr: 0x10F0, symBinAddr: 0x1000033A0, symSize: 0x20 }
  - { offsetInCU: 0xE785, offset: 0xE785, size: 0x8, addend: 0x0, symName: __ZNSt3__113unordered_mapIiiNS_4hashIiEENS_8equal_toIiEENS_9allocatorINS_4pairIKiiEEEEEC2B7v160006Ev, symObjAddr: 0x1110, symBinAddr: 0x1000033C0, symSize: 0x40 }
  - { offsetInCU: 0xE7AF, offset: 0xE7AF, size: 0x8, addend: 0x0, symName: __ZNSt3__112__hash_tableINS_17__hash_value_typeIiiEENS_22__unordered_map_hasherIiS2_NS_4hashIiEENS_8equal_toIiEELb1EEENS_21__unordered_map_equalIiS2_S7_S5_Lb1EEENS_9allocatorIS2_EEEC1Ev, symObjAddr: 0x1150, symBinAddr: 0x100003400, symSize: 0x20 }
  - { offsetInCU: 0xE7DB, offset: 0xE7DB, size: 0x8, addend: 0x0, symName: __ZNSt3__112__hash_tableINS_17__hash_value_typeIiiEENS_22__unordered_map_hasherIiS2_NS_4hashIiEENS_8equal_toIiEELb1EEENS_21__unordered_map_equalIiS2_S7_S5_Lb1EEENS_9allocatorIS2_EEEC2Ev, symObjAddr: 0x1190, symBinAddr: 0x100003440, symSize: 0x2E0 }
  - { offsetInCU: 0xE808, offset: 0xE808, size: 0x8, addend: 0x0, symName: __ZNSt3__110unique_ptrIA_PNS_16__hash_node_baseIPNS_11__hash_nodeINS_17__hash_value_typeIiiEEPvEEEENS_25__bucket_list_deallocatorINS_9allocatorIS9_EEEEEC1B7v160006ILb1EvEEv, symObjAddr: 0x1470, symBinAddr: 0x100003720, symSize: 0x20 }
  - { offsetInCU: 0xE83D, offset: 0xE83D, size: 0x8, addend: 0x0, symName: __ZNSt3__117__compressed_pairINS_16__hash_node_baseIPNS_11__hash_nodeINS_17__hash_value_typeIiiEEPvEEEENS_9allocatorIS6_EEEC1B7v160006ILb1EvEEv, symObjAddr: 0x1490, symBinAddr: 0x100003740, symSize: 0x20 }
  - { offsetInCU: 0xE87C, offset: 0xE87C, size: 0x8, addend: 0x0, symName: __ZNSt3__117__compressed_pairImNS_22__unordered_map_hasherIiNS_17__hash_value_typeIiiEENS_4hashIiEENS_8equal_toIiEELb1EEEEC1B7v160006IiNS_18__default_init_tagEEEOT_OT0_, symObjAddr: 0x14B0, symBinAddr: 0x100003760, symSize: 0x30 }
  - { offsetInCU: 0xE8D9, offset: 0xE8D9, size: 0x8, addend: 0x0, symName: __ZNSt3__117__compressed_pairIfNS_21__unordered_map_equalIiNS_17__hash_value_typeIiiEENS_8equal_toIiEENS_4hashIiEELb1EEEEC1B7v160006IfNS_18__default_init_tagEEEOT_OT0_, symObjAddr: 0x14E0, symBinAddr: 0x100003790, symSize: 0x30 }
  - { offsetInCU: 0xE931, offset: 0xE931, size: 0x8, addend: 0x0, symName: __ZNSt3__110unique_ptrIA_PNS_16__hash_node_baseIPNS_11__hash_nodeINS_17__hash_value_typeIiiEEPvEEEENS_25__bucket_list_deallocatorINS_9allocatorIS9_EEEEEC2B7v160006ILb1EvEEv, symObjAddr: 0x1510, symBinAddr: 0x1000037C0, symSize: 0x170 }
  - { offsetInCU: 0xE96C, offset: 0xE96C, size: 0x8, addend: 0x0, symName: __ZNSt3__117__compressed_pairIPPNS_16__hash_node_baseIPNS_11__hash_nodeINS_17__hash_value_typeIiiEEPvEEEENS_25__bucket_list_deallocatorINS_9allocatorIS9_EEEEEC1B7v160006INS_16__value_init_tagESH_EEOT_OT0_, symObjAddr: 0x1680, symBinAddr: 0x100003930, symSize: 0x30 }
  - { offsetInCU: 0xE9C4, offset: 0xE9C4, size: 0x8, addend: 0x0, symName: __ZNSt3__117__compressed_pairIPPNS_16__hash_node_baseIPNS_11__hash_nodeINS_17__hash_value_typeIiiEEPvEEEENS_25__bucket_list_deallocatorINS_9allocatorIS9_EEEEEC2B7v160006INS_16__value_init_tagESH_EEOT_OT0_, symObjAddr: 0x16B0, symBinAddr: 0x100003960, symSize: 0x40 }
  - { offsetInCU: 0xEA1C, offset: 0xEA1C, size: 0x8, addend: 0x0, symName: __ZNSt3__122__compressed_pair_elemIPPNS_16__hash_node_baseIPNS_11__hash_nodeINS_17__hash_value_typeIiiEEPvEEEELi0ELb0EEC2B7v160006ENS_16__value_init_tagE, symObjAddr: 0x16F0, symBinAddr: 0x1000039A0, symSize: 0x50 }
  - { offsetInCU: 0xEA50, offset: 0xEA50, size: 0x8, addend: 0x0, symName: __ZNSt3__122__compressed_pair_elemINS_25__bucket_list_deallocatorINS_9allocatorIPNS_16__hash_node_baseIPNS_11__hash_nodeINS_17__hash_value_typeIiiEEPvEEEEEEEELi1ELb0EEC2B7v160006ENS_16__value_init_tagE, symObjAddr: 0x1740, symBinAddr: 0x1000039F0, symSize: 0x20 }
  - { offsetInCU: 0xEA84, offset: 0xEA84, size: 0x8, addend: 0x0, symName: __ZNSt3__125__bucket_list_deallocatorINS_9allocatorIPNS_16__hash_node_baseIPNS_11__hash_nodeINS_17__hash_value_typeIiiEEPvEEEEEEEC1B7v160006Ev, symObjAddr: 0x1760, symBinAddr: 0x100003A10, symSize: 0x20 }
  - { offsetInCU: 0xEAAE, offset: 0xEAAE, size: 0x8, addend: 0x0, symName: __ZNSt3__125__bucket_list_deallocatorINS_9allocatorIPNS_16__hash_node_baseIPNS_11__hash_nodeINS_17__hash_value_typeIiiEEPvEEEEEEEC2B7v160006Ev, symObjAddr: 0x1780, symBinAddr: 0x100003A30, symSize: 0x1D0 }
  - { offsetInCU: 0xEAD9, offset: 0xEAD9, size: 0x8, addend: 0x0, symName: __ZNSt3__117__compressed_pairImNS_9allocatorIPNS_16__hash_node_baseIPNS_11__hash_nodeINS_17__hash_value_typeIiiEEPvEEEEEEEC1B7v160006IiNS_18__default_init_tagEEEOT_OT0_, symObjAddr: 0x1950, symBinAddr: 0x100003C00, symSize: 0x30 }
  - { offsetInCU: 0xEB31, offset: 0xEB31, size: 0x8, addend: 0x0, symName: __ZNSt3__117__compressed_pairImNS_9allocatorIPNS_16__hash_node_baseIPNS_11__hash_nodeINS_17__hash_value_typeIiiEEPvEEEEEEEC2B7v160006IiNS_18__default_init_tagEEEOT_OT0_, symObjAddr: 0x1980, symBinAddr: 0x100003C30, symSize: 0x40 }
  - { offsetInCU: 0xEB89, offset: 0xEB89, size: 0x8, addend: 0x0, symName: __ZNSt3__122__compressed_pair_elemImLi0ELb0EEC2B7v160006IivEEOT_, symObjAddr: 0x19C0, symBinAddr: 0x100003C70, symSize: 0xB0 }
  - { offsetInCU: 0xEBCB, offset: 0xEBCB, size: 0x8, addend: 0x0, symName: __ZNSt3__122__compressed_pair_elemINS_9allocatorIPNS_16__hash_node_baseIPNS_11__hash_nodeINS_17__hash_value_typeIiiEEPvEEEEEELi1ELb1EEC2B7v160006ENS_18__default_init_tagE, symObjAddr: 0x1A70, symBinAddr: 0x100003D20, symSize: 0x20 }
  - { offsetInCU: 0xEBFF, offset: 0xEBFF, size: 0x8, addend: 0x0, symName: __ZNSt3__19allocatorIPNS_16__hash_node_baseIPNS_11__hash_nodeINS_17__hash_value_typeIiiEEPvEEEEEC2B7v160006Ev, symObjAddr: 0x1A90, symBinAddr: 0x100003D40, symSize: 0x20 }
  - { offsetInCU: 0xEC29, offset: 0xEC29, size: 0x8, addend: 0x0, symName: __ZNSt3__116__non_trivial_ifILb1ENS_9allocatorIPNS_16__hash_node_baseIPNS_11__hash_nodeINS_17__hash_value_typeIiiEEPvEEEEEEEC2B7v160006Ev, symObjAddr: 0x1AB0, symBinAddr: 0x100003D60, symSize: 0x10 }
  - { offsetInCU: 0xEC53, offset: 0xEC53, size: 0x8, addend: 0x0, symName: __ZNSt3__117__compressed_pairINS_16__hash_node_baseIPNS_11__hash_nodeINS_17__hash_value_typeIiiEEPvEEEENS_9allocatorIS6_EEEC2B7v160006ILb1EvEEv, symObjAddr: 0x1AC0, symBinAddr: 0x100003D70, symSize: 0x30 }
  - { offsetInCU: 0xEC88, offset: 0xEC88, size: 0x8, addend: 0x0, symName: __ZNSt3__122__compressed_pair_elemINS_16__hash_node_baseIPNS_11__hash_nodeINS_17__hash_value_typeIiiEEPvEEEELi0ELb0EEC2B7v160006ENS_16__value_init_tagE, symObjAddr: 0x1AF0, symBinAddr: 0x100003DA0, symSize: 0x20 }
  - { offsetInCU: 0xECBC, offset: 0xECBC, size: 0x8, addend: 0x0, symName: __ZNSt3__122__compressed_pair_elemINS_9allocatorINS_11__hash_nodeINS_17__hash_value_typeIiiEEPvEEEELi1ELb1EEC2B7v160006ENS_16__value_init_tagE, symObjAddr: 0x1B10, symBinAddr: 0x100003DC0, symSize: 0x20 }
  - { offsetInCU: 0xECF0, offset: 0xECF0, size: 0x8, addend: 0x0, symName: __ZNSt3__116__hash_node_baseIPNS_11__hash_nodeINS_17__hash_value_typeIiiEEPvEEEC1B7v160006Ev, symObjAddr: 0x1B30, symBinAddr: 0x100003DE0, symSize: 0x20 }
  - { offsetInCU: 0xED1A, offset: 0xED1A, size: 0x8, addend: 0x0, symName: __ZNSt3__116__hash_node_baseIPNS_11__hash_nodeINS_17__hash_value_typeIiiEEPvEEEC2B7v160006Ev, symObjAddr: 0x1B50, symBinAddr: 0x100003E00, symSize: 0x50 }
  - { offsetInCU: 0xED44, offset: 0xED44, size: 0x8, addend: 0x0, symName: __ZNSt3__19allocatorINS_11__hash_nodeINS_17__hash_value_typeIiiEEPvEEEC2B7v160006Ev, symObjAddr: 0x1BA0, symBinAddr: 0x100003E50, symSize: 0x20 }
  - { offsetInCU: 0xED6E, offset: 0xED6E, size: 0x8, addend: 0x0, symName: __ZNSt3__116__non_trivial_ifILb1ENS_9allocatorINS_11__hash_nodeINS_17__hash_value_typeIiiEEPvEEEEEC2B7v160006Ev, symObjAddr: 0x1BC0, symBinAddr: 0x100003E70, symSize: 0x10 }
  - { offsetInCU: 0xED98, offset: 0xED98, size: 0x8, addend: 0x0, symName: __ZNSt3__117__compressed_pairImNS_22__unordered_map_hasherIiNS_17__hash_value_typeIiiEENS_4hashIiEENS_8equal_toIiEELb1EEEEC2B7v160006IiNS_18__default_init_tagEEEOT_OT0_, symObjAddr: 0x1BD0, symBinAddr: 0x100003E80, symSize: 0x40 }
  - { offsetInCU: 0xEDF0, offset: 0xEDF0, size: 0x8, addend: 0x0, symName: __ZNSt3__122__compressed_pair_elemINS_22__unordered_map_hasherIiNS_17__hash_value_typeIiiEENS_4hashIiEENS_8equal_toIiEELb1EEELi1ELb1EEC2B7v160006ENS_18__default_init_tagE, symObjAddr: 0x1C10, symBinAddr: 0x100003EC0, symSize: 0x20 }
  - { offsetInCU: 0xEE24, offset: 0xEE24, size: 0x8, addend: 0x0, symName: __ZNSt3__122__unordered_map_hasherIiNS_17__hash_value_typeIiiEENS_4hashIiEENS_8equal_toIiEELb1EEC2B7v160006Ev, symObjAddr: 0x1C30, symBinAddr: 0x100003EE0, symSize: 0x10 }
  - { offsetInCU: 0xEE4E, offset: 0xEE4E, size: 0x8, addend: 0x0, symName: __ZNSt3__117__compressed_pairIfNS_21__unordered_map_equalIiNS_17__hash_value_typeIiiEENS_8equal_toIiEENS_4hashIiEELb1EEEEC2B7v160006IfNS_18__default_init_tagEEEOT_OT0_, symObjAddr: 0x1C40, symBinAddr: 0x100003EF0, symSize: 0x40 }
  - { offsetInCU: 0xEEA6, offset: 0xEEA6, size: 0x8, addend: 0x0, symName: __ZNSt3__122__compressed_pair_elemIfLi0ELb0EEC2B7v160006IfvEEOT_, symObjAddr: 0x1C80, symBinAddr: 0x100003F30, symSize: 0xD0 }
  - { offsetInCU: 0xEEE8, offset: 0xEEE8, size: 0x8, addend: 0x0, symName: __ZNSt3__122__compressed_pair_elemINS_21__unordered_map_equalIiNS_17__hash_value_typeIiiEENS_8equal_toIiEENS_4hashIiEELb1EEELi1ELb1EEC2B7v160006ENS_18__default_init_tagE, symObjAddr: 0x1D50, symBinAddr: 0x100004000, symSize: 0x20 }
  - { offsetInCU: 0xEF1C, offset: 0xEF1C, size: 0x8, addend: 0x0, symName: __ZNSt3__121__unordered_map_equalIiNS_17__hash_value_typeIiiEENS_8equal_toIiEENS_4hashIiEELb1EEC2B7v160006Ev, symObjAddr: 0x1D70, symBinAddr: 0x100004020, symSize: 0x10 }
  - { offsetInCU: 0xEF46, offset: 0xEF46, size: 0x8, addend: 0x0, symName: __ZNKSt3__16vectorIiNS_9allocatorIiEEE4sizeB7v160006Ev, symObjAddr: 0x1D80, symBinAddr: 0x100004030, symSize: 0x90 }
  - { offsetInCU: 0xEF6C, offset: 0xEF6C, size: 0x8, addend: 0x0, symName: __ZNSt3__16vectorIiNS_9allocatorIiEEE5beginB7v160006Ev, symObjAddr: 0x1E10, symBinAddr: 0x1000040C0, symSize: 0x1E0 }
  - { offsetInCU: 0xEF95, offset: 0xEF95, size: 0x8, addend: 0x0, symName: __ZNSt3__16vectorIiNS_9allocatorIiEEE3endB7v160006Ev, symObjAddr: 0x1FF0, symBinAddr: 0x1000042A0, symSize: 0x1F0 }
  - { offsetInCU: 0xEFBE, offset: 0xEFBE, size: 0x8, addend: 0x0, symName: __ZNKSt3__111__wrap_iterIPiEdeB7v160006Ev, symObjAddr: 0x2210, symBinAddr: 0x1000044C0, symSize: 0x50 }
  - { offsetInCU: 0xEFE4, offset: 0xEFE4, size: 0x8, addend: 0x0, symName: __ZNSt3__111__wrap_iterIPiEppB7v160006Ev, symObjAddr: 0x2260, symBinAddr: 0x100004510, symSize: 0x50 }
  - { offsetInCU: 0xF00A, offset: 0xF00A, size: 0x8, addend: 0x0, symName: __ZNSt3__16vectorIiNS_9allocatorIiEEEaSB7v160006ERKS3_, symObjAddr: 0x22B0, symBinAddr: 0x100004560, symSize: 0xC0 }
  - { offsetInCU: 0xF041, offset: 0xF041, size: 0x8, addend: 0x0, symName: __ZN8Solution9backtrackEiiiii, symObjAddr: 0x2370, symBinAddr: 0x100004620, symSize: 0x850 }
  - { offsetInCU: 0xF0F2, offset: 0xF0F2, size: 0x8, addend: 0x0, symName: __ZNSt3__16vectorIiNS_9allocatorIiEEE11__make_iterB7v160006EPi, symObjAddr: 0x2BC0, symBinAddr: 0x100004E70, symSize: 0x180 }
  - { offsetInCU: 0xF129, offset: 0xF129, size: 0x8, addend: 0x0, symName: __ZNSt3__111__wrap_iterIPiEC1B7v160006EPKvS1_, symObjAddr: 0x2D40, symBinAddr: 0x100004FF0, symSize: 0x30 }
  - { offsetInCU: 0xF16F, offset: 0xF16F, size: 0x8, addend: 0x0, symName: __ZNSt3__111__wrap_iterIPiEC2B7v160006EPKvS1_, symObjAddr: 0x2D70, symBinAddr: 0x100005020, symSize: 0x60 }
  - { offsetInCU: 0xF1B5, offset: 0xF1B5, size: 0x8, addend: 0x0, symName: __ZNKSt3__111__wrap_iterIPiE4baseB7v160006Ev, symObjAddr: 0x2E10, symBinAddr: 0x1000050C0, symSize: 0x50 }
  - { offsetInCU: 0xF1DB, offset: 0xF1DB, size: 0x8, addend: 0x0, symName: __ZNSt3__16vectorIiNS_9allocatorIiEEE19__copy_assign_allocB7v160006ERKS3_, symObjAddr: 0x2E60, symBinAddr: 0x100005110, symSize: 0x30 }
  - { offsetInCU: 0xF210, offset: 0xF210, size: 0x8, addend: 0x0, symName: __ZNSt3__16vectorIiNS_9allocatorIiEEE6assignIPiLi0EEEvT_S6_, symObjAddr: 0x2E90, symBinAddr: 0x100005140, symSize: 0x3E0 }
  - { offsetInCU: 0xF2B2, offset: 0xF2B2, size: 0x8, addend: 0x0, symName: __ZNSt3__16vectorIiNS_9allocatorIiEEE19__copy_assign_allocB7v160006ERKS3_NS_17integral_constantIbLb0EEE, symObjAddr: 0x3270, symBinAddr: 0x100005520, symSize: 0x10 }
  - { offsetInCU: 0xF2EE, offset: 0xF2EE, size: 0x8, addend: 0x0, symName: __ZNKSt3__16vectorIiNS_9allocatorIiEEE8capacityB7v160006Ev, symObjAddr: 0x32B0, symBinAddr: 0x100005560, symSize: 0x90 }
  - { offsetInCU: 0xF314, offset: 0xF314, size: 0x8, addend: 0x0, symName: __ZNSt3__16vectorIiNS_9allocatorIiEEE18__construct_at_endIPiLi0EEEvT_S6_m, symObjAddr: 0x35B0, symBinAddr: 0x100005860, symSize: 0x300 }
  - { offsetInCU: 0xF38F, offset: 0xF38F, size: 0x8, addend: 0x0, symName: __ZNSt3__16vectorIiNS_9allocatorIiEEE17__destruct_at_endB7v160006EPi, symObjAddr: 0x38B0, symBinAddr: 0x100005B60, symSize: 0x70 }
  - { offsetInCU: 0xF3D3, offset: 0xF3D3, size: 0x8, addend: 0x0, symName: __ZNSt3__16vectorIiNS_9allocatorIiEEE13__vdeallocateEv, symObjAddr: 0x3920, symBinAddr: 0x100005BD0, symSize: 0x160 }
  - { offsetInCU: 0xF3FB, offset: 0xF3FB, size: 0x8, addend: 0x0, symName: __ZNSt3__16vectorIiNS_9allocatorIiEEE11__vallocateB7v160006Em, symObjAddr: 0x3A80, symBinAddr: 0x100005D30, symSize: 0x410 }
  - { offsetInCU: 0xF445, offset: 0xF445, size: 0x8, addend: 0x0, symName: __ZNKSt3__16vectorIiNS_9allocatorIiEEE11__recommendB7v160006Em, symObjAddr: 0x3E90, symBinAddr: 0x100006140, symSize: 0x2F0 }
  - { offsetInCU: 0xF4A1, offset: 0xF4A1, size: 0x8, addend: 0x0, symName: __ZNKSt3__16vectorIiNS_9allocatorIiEEE9__end_capB7v160006Ev, symObjAddr: 0x41B0, symBinAddr: 0x100006460, symSize: 0x20 }
  - { offsetInCU: 0xF4C7, offset: 0xF4C7, size: 0x8, addend: 0x0, symName: __ZNKSt3__117__compressed_pairIPiNS_9allocatorIiEEE5firstB7v160006Ev, symObjAddr: 0x41D0, symBinAddr: 0x100006480, symSize: 0x20 }
  - { offsetInCU: 0xF4ED, offset: 0xF4ED, size: 0x8, addend: 0x0, symName: __ZNKSt3__122__compressed_pair_elemIPiLi0ELb0EE5__getB7v160006Ev, symObjAddr: 0x41F0, symBinAddr: 0x1000064A0, symSize: 0x10 }
  - { offsetInCU: 0xF536, offset: 0xF536, size: 0x8, addend: 0x0, symName: __ZNKSt3__114__copy_trivialclB7v160006IiiLi0EEENS_4pairIPT_PT0_EES4_S4_S6_, symObjAddr: 0x4FE0, symBinAddr: 0x100007290, symSize: 0x210 }
  - { offsetInCU: 0xF5A7, offset: 0xF5A7, size: 0x8, addend: 0x0, symName: __ZNSt3__14pairIPiS1_EC1B7v160006IRS1_S1_LPv0EEEOT_OT0_, symObjAddr: 0x5900, symBinAddr: 0x100007BB0, symSize: 0x30 }
  - { offsetInCU: 0xF605, offset: 0xF605, size: 0x8, addend: 0x0, symName: __ZNSt3__14pairIPiS1_EC2B7v160006IRS1_S1_LPv0EEEOT_OT0_, symObjAddr: 0x5930, symBinAddr: 0x100007BE0, symSize: 0x110 }
  - { offsetInCU: 0xF663, offset: 0xF663, size: 0x8, addend: 0x0, symName: __ZNSt3__118__unwrap_iter_implIPiLb1EE8__unwrapB7v160006ES1_, symObjAddr: 0x5A40, symBinAddr: 0x100007CF0, symSize: 0x20 }
  - { offsetInCU: 0xF686, offset: 0xF686, size: 0x8, addend: 0x0, symName: __ZNSt3__14pairIPiS1_EC1B7v160006IS1_S1_LPv0EEEOT_OT0_, symObjAddr: 0x5A70, symBinAddr: 0x100007D20, symSize: 0x30 }
  - { offsetInCU: 0xF6E4, offset: 0xF6E4, size: 0x8, addend: 0x0, symName: __ZNSt3__14pairIPiS1_EC2B7v160006IS1_S1_LPv0EEEOT_OT0_, symObjAddr: 0x5AA0, symBinAddr: 0x100007D50, symSize: 0x110 }
  - { offsetInCU: 0xF742, offset: 0xF742, size: 0x8, addend: 0x0, symName: __ZNSt3__118__unwrap_iter_implIPiLb1EE8__rewrapB7v160006ES1_S1_, symObjAddr: 0x5BB0, symBinAddr: 0x100007E60, symSize: 0x50 }
  - { offsetInCU: 0xF78C, offset: 0xF78C, size: 0x8, addend: 0x0, symName: __ZNSt3__16vectorIiNS_9allocatorIiEEE21_ConstructTransactionC1B7v160006ERS3_m, symObjAddr: 0x5C00, symBinAddr: 0x100007EB0, symSize: 0x30 }
  - { offsetInCU: 0xF7D4, offset: 0xF7D4, size: 0x8, addend: 0x0, symName: __ZNSt3__16vectorIiNS_9allocatorIiEEE7__allocB7v160006Ev, symObjAddr: 0x6180, symBinAddr: 0x100008430, symSize: 0x20 }
  - { offsetInCU: 0xF7FA, offset: 0xF7FA, size: 0x8, addend: 0x0, symName: __ZNSt3__16vectorIiNS_9allocatorIiEEE21_ConstructTransactionD1B7v160006Ev, symObjAddr: 0x61A0, symBinAddr: 0x100008450, symSize: 0x20 }
  - { offsetInCU: 0xF824, offset: 0xF824, size: 0x8, addend: 0x0, symName: __ZNSt3__16vectorIiNS_9allocatorIiEEE21_ConstructTransactionC2B7v160006ERS3_m, symObjAddr: 0x61C0, symBinAddr: 0x100008470, symSize: 0x1A0 }
  - { offsetInCU: 0xF86C, offset: 0xF86C, size: 0x8, addend: 0x0, symName: __ZNKSt3__16vectorIiNS_9allocatorIiEEE19__annotate_increaseB7v160006Em, symObjAddr: 0x6360, symBinAddr: 0x100008610, symSize: 0xD0 }
  - { offsetInCU: 0xF8A1, offset: 0xF8A1, size: 0x8, addend: 0x0, symName: __ZNKSt3__16vectorIiNS_9allocatorIiEEE31__annotate_contiguous_containerEPKvS5_S5_S5_, symObjAddr: 0x6430, symBinAddr: 0x1000086E0, symSize: 0x50 }
  - { offsetInCU: 0xF903, offset: 0xF903, size: 0x8, addend: 0x0, symName: __ZNKSt3__16vectorIiNS_9allocatorIiEEE4dataB7v160006Ev, symObjAddr: 0x6480, symBinAddr: 0x100008730, symSize: 0x50 }
  - { offsetInCU: 0xF929, offset: 0xF929, size: 0x8, addend: 0x0, symName: __ZNSt3__129_AllocatorDestroyRangeReverseINS_9allocatorIiEEPiEC1B7v160006ERS2_RS3_S6_, symObjAddr: 0x6770, symBinAddr: 0x100008A20, symSize: 0x40 }
  - { offsetInCU: 0xF980, offset: 0xF980, size: 0x8, addend: 0x0, symName: __ZNSt3__116allocator_traitsINS_9allocatorIiEEE9constructB7v160006IiJRiEvEEvRS2_PT_DpOT0_, symObjAddr: 0x67B0, symBinAddr: 0x100008A60, symSize: 0x30 }
  - { offsetInCU: 0xF9D7, offset: 0xF9D7, size: 0x8, addend: 0x0, symName: __ZNSt3__128__exception_guard_exceptionsINS_29_AllocatorDestroyRangeReverseINS_9allocatorIiEEPiEEE10__completeB7v160006Ev, symObjAddr: 0x67E0, symBinAddr: 0x100008A90, symSize: 0x70 }
  - { offsetInCU: 0xF9FD, offset: 0xF9FD, size: 0x8, addend: 0x0, symName: __ZNSt3__128__exception_guard_exceptionsINS_29_AllocatorDestroyRangeReverseINS_9allocatorIiEEPiEEED1B7v160006Ev, symObjAddr: 0x6850, symBinAddr: 0x100008B00, symSize: 0x20 }
  - { offsetInCU: 0xFA27, offset: 0xFA27, size: 0x8, addend: 0x0, symName: __ZNSt3__128__exception_guard_exceptionsINS_29_AllocatorDestroyRangeReverseINS_9allocatorIiEEPiEEEC1B7v160006ES5_, symObjAddr: 0x6870, symBinAddr: 0x100008B20, symSize: 0x250 }
  - { offsetInCU: 0xFA64, offset: 0xFA64, size: 0x8, addend: 0x0, symName: __ZNSt3__128__exception_guard_exceptionsINS_29_AllocatorDestroyRangeReverseINS_9allocatorIiEEPiEEEC2B7v160006ES5_, symObjAddr: 0x6AC0, symBinAddr: 0x100008D70, symSize: 0x1E0 }
  - { offsetInCU: 0xFAA1, offset: 0xFAA1, size: 0x8, addend: 0x0, symName: __ZNSt3__129_AllocatorDestroyRangeReverseINS_9allocatorIiEEPiEC2B7v160006ERS2_RS3_S6_, symObjAddr: 0x6CA0, symBinAddr: 0x100008F50, symSize: 0xF0 }
  - { offsetInCU: 0xFAF8, offset: 0xFAF8, size: 0x8, addend: 0x0, symName: __ZNSt3__19allocatorIiE9constructB7v160006IiJRiEEEvPT_DpOT0_, symObjAddr: 0x6D90, symBinAddr: 0x100009040, symSize: 0xC0 }
  - { offsetInCU: 0xFB4E, offset: 0xFB4E, size: 0x8, addend: 0x0, symName: __ZNSt3__128__exception_guard_exceptionsINS_29_AllocatorDestroyRangeReverseINS_9allocatorIiEEPiEEED2B7v160006Ev, symObjAddr: 0x6E50, symBinAddr: 0x100009100, symSize: 0x90 }
  - { offsetInCU: 0xFB78, offset: 0xFB78, size: 0x8, addend: 0x0, symName: __ZNKSt3__129_AllocatorDestroyRangeReverseINS_9allocatorIiEEPiEclB7v160006Ev, symObjAddr: 0x6EE0, symBinAddr: 0x100009190, symSize: 0x380 }
  - { offsetInCU: 0xFB9F, offset: 0xFB9F, size: 0x8, addend: 0x0, symName: __ZNSt3__116reverse_iteratorIPiEC1B7v160006ES1_, symObjAddr: 0x7510, symBinAddr: 0x1000097C0, symSize: 0x30 }
  - { offsetInCU: 0xFBD7, offset: 0xFBD7, size: 0x8, addend: 0x0, symName: __ZNSt3__116allocator_traitsINS_9allocatorIiEEE7destroyB7v160006IivEEvRS2_PT_, symObjAddr: 0x7580, symBinAddr: 0x100009830, symSize: 0x30 }
  - { offsetInCU: 0xFC14, offset: 0xFC14, size: 0x8, addend: 0x0, symName: __ZNSt3__116reverse_iteratorIPiEppB7v160006Ev, symObjAddr: 0x75D0, symBinAddr: 0x100009880, symSize: 0x60 }
  - { offsetInCU: 0xFC3A, offset: 0xFC3A, size: 0x8, addend: 0x0, symName: __ZNKSt3__116reverse_iteratorIPiE4baseB7v160006Ev, symObjAddr: 0x7630, symBinAddr: 0x1000098E0, symSize: 0x50 }
  - { offsetInCU: 0xFC60, offset: 0xFC60, size: 0x8, addend: 0x0, symName: __ZNSt3__19allocatorIiE7destroyB7v160006EPi, symObjAddr: 0x7680, symBinAddr: 0x100009930, symSize: 0x10 }
  - { offsetInCU: 0xFC99, offset: 0xFC99, size: 0x8, addend: 0x0, symName: __ZNSt3__119__to_address_helperINS_16reverse_iteratorIPiEEvE6__callB7v160006ERKS3_, symObjAddr: 0x7690, symBinAddr: 0x100009940, symSize: 0x40 }
  - { offsetInCU: 0xFCBC, offset: 0xFCBC, size: 0x8, addend: 0x0, symName: __ZNKSt3__116reverse_iteratorIPiEptB7v160006Ev, symObjAddr: 0x76D0, symBinAddr: 0x100009980, symSize: 0x20 }
  - { offsetInCU: 0xFCE2, offset: 0xFCE2, size: 0x8, addend: 0x0, symName: __ZNKSt3__116reverse_iteratorIPiEdeB7v160006Ev, symObjAddr: 0x76F0, symBinAddr: 0x1000099A0, symSize: 0x60 }
  - { offsetInCU: 0xFD16, offset: 0xFD16, size: 0x8, addend: 0x0, symName: __ZNSt3__116reverse_iteratorIPiEC2B7v160006ES1_, symObjAddr: 0x7750, symBinAddr: 0x100009A00, symSize: 0xA0 }
  - { offsetInCU: 0xFD4E, offset: 0xFD4E, size: 0x8, addend: 0x0, symName: __ZNSt3__117__compressed_pairIPiNS_9allocatorIiEEE6secondB7v160006Ev, symObjAddr: 0x77F0, symBinAddr: 0x100009AA0, symSize: 0x20 }
  - { offsetInCU: 0xFD74, offset: 0xFD74, size: 0x8, addend: 0x0, symName: __ZNSt3__122__compressed_pair_elemINS_9allocatorIiEELi1ELb1EE5__getB7v160006Ev, symObjAddr: 0x7810, symBinAddr: 0x100009AC0, symSize: 0x10 }
  - { offsetInCU: 0xFD9A, offset: 0xFD9A, size: 0x8, addend: 0x0, symName: __ZNSt3__16vectorIiNS_9allocatorIiEEE21_ConstructTransactionD2B7v160006Ev, symObjAddr: 0x7820, symBinAddr: 0x100009AD0, symSize: 0x220 }
  - { offsetInCU: 0xFDC4, offset: 0xFDC4, size: 0x8, addend: 0x0, symName: __ZNKSt3__16vectorIiNS_9allocatorIiEEE17__annotate_shrinkB7v160006Em, symObjAddr: 0x7A40, symBinAddr: 0x100009CF0, symSize: 0xB0 }
  - { offsetInCU: 0xFDF9, offset: 0xFDF9, size: 0x8, addend: 0x0, symName: __ZNSt3__16vectorIiNS_9allocatorIiEEE27__invalidate_iterators_pastB7v160006EPi, symObjAddr: 0x7AF0, symBinAddr: 0x100009DA0, symSize: 0x10 }
  - { offsetInCU: 0xFE30, offset: 0xFE30, size: 0x8, addend: 0x0, symName: __ZNSt3__16vectorIiNS_9allocatorIiEEE22__base_destruct_at_endB7v160006EPi, symObjAddr: 0x7B00, symBinAddr: 0x100009DB0, symSize: 0xF0 }
  - { offsetInCU: 0xFE74, offset: 0xFE74, size: 0x8, addend: 0x0, symName: __ZNSt3__16vectorIiNS_9allocatorIiEEE5clearB7v160006Ev, symObjAddr: 0x7BF0, symBinAddr: 0x100009EA0, symSize: 0x60 }
  - { offsetInCU: 0xFEA9, offset: 0xFEA9, size: 0x8, addend: 0x0, symName: __ZNSt3__116allocator_traitsINS_9allocatorIiEEE10deallocateB7v160006ERS2_Pim, symObjAddr: 0x7C50, symBinAddr: 0x100009F00, symSize: 0x30 }
  - { offsetInCU: 0xFEEB, offset: 0xFEEB, size: 0x8, addend: 0x0, symName: __ZNSt3__16vectorIiNS_9allocatorIiEEE9__end_capB7v160006Ev, symObjAddr: 0x7C80, symBinAddr: 0x100009F30, symSize: 0x20 }
  - { offsetInCU: 0xFF11, offset: 0xFF11, size: 0x8, addend: 0x0, symName: __ZNSt3__16vectorIiNS_9allocatorIiEEE7__clearB7v160006Ev, symObjAddr: 0x7CA0, symBinAddr: 0x100009F50, symSize: 0x50 }
  - { offsetInCU: 0xFF37, offset: 0xFF37, size: 0x8, addend: 0x0, symName: __ZNSt3__19allocatorIiE10deallocateB7v160006EPim, symObjAddr: 0x7CF0, symBinAddr: 0x100009FA0, symSize: 0x50 }
  - { offsetInCU: 0xFF79, offset: 0xFF79, size: 0x8, addend: 0x0, symName: __ZNSt3__117__compressed_pairIPiNS_9allocatorIiEEE5firstB7v160006Ev, symObjAddr: 0x7DB0, symBinAddr: 0x10000A060, symSize: 0x20 }
  - { offsetInCU: 0xFF9F, offset: 0xFF9F, size: 0x8, addend: 0x0, symName: __ZNSt3__122__compressed_pair_elemIPiLi0ELb0EE5__getB7v160006Ev, symObjAddr: 0x7DD0, symBinAddr: 0x10000A080, symSize: 0x10 }
  - { offsetInCU: 0xFFC5, offset: 0xFFC5, size: 0x8, addend: 0x0, symName: __ZNKSt3__16vectorIiNS_9allocatorIiEEE8max_sizeEv, symObjAddr: 0x7DE0, symBinAddr: 0x10000A090, symSize: 0x260 }
  - { offsetInCU: 0xFFEE, offset: 0xFFEE, size: 0x8, addend: 0x0, symName: __ZNKSt3__16vectorIiNS_9allocatorIiEEE20__throw_length_errorB7v160006Ev, symObjAddr: 0x8040, symBinAddr: 0x10000A2F0, symSize: 0x20 }
  - { offsetInCU: 0x10014, offset: 0x10014, size: 0x8, addend: 0x0, symName: __ZNKSt3__16vectorIiNS_9allocatorIiEEE14__annotate_newB7v160006Em, symObjAddr: 0x8270, symBinAddr: 0x10000A520, symSize: 0xB0 }
  - { offsetInCU: 0x10053, offset: 0x10053, size: 0x8, addend: 0x0, symName: __ZNSt3__116allocator_traitsINS_9allocatorIiEEE8max_sizeB7v160006IS2_vEEmRKS2_, symObjAddr: 0x8350, symBinAddr: 0x10000A600, symSize: 0x20 }
  - { offsetInCU: 0x10081, offset: 0x10081, size: 0x8, addend: 0x0, symName: __ZNKSt3__16vectorIiNS_9allocatorIiEEE7__allocB7v160006Ev, symObjAddr: 0x8370, symBinAddr: 0x10000A620, symSize: 0x20 }
  - { offsetInCU: 0x100A7, offset: 0x100A7, size: 0x8, addend: 0x0, symName: __ZNSt3__114numeric_limitsIlE3maxB7v160006Ev, symObjAddr: 0x8390, symBinAddr: 0x10000A640, symSize: 0x10 }
  - { offsetInCU: 0x100C5, offset: 0x100C5, size: 0x8, addend: 0x0, symName: __ZNKSt3__16__lessImmEclB7v160006ERKmS3_, symObjAddr: 0x8510, symBinAddr: 0x10000A7C0, symSize: 0xA0 }
  - { offsetInCU: 0x10107, offset: 0x10107, size: 0x8, addend: 0x0, symName: __ZNKSt3__19allocatorIiE8max_sizeB7v160006Ev, symObjAddr: 0x85B0, symBinAddr: 0x10000A860, symSize: 0x20 }
  - { offsetInCU: 0x1012D, offset: 0x1012D, size: 0x8, addend: 0x0, symName: __ZNKSt3__117__compressed_pairIPiNS_9allocatorIiEEE6secondB7v160006Ev, symObjAddr: 0x85D0, symBinAddr: 0x10000A880, symSize: 0x20 }
  - { offsetInCU: 0x10153, offset: 0x10153, size: 0x8, addend: 0x0, symName: __ZNKSt3__122__compressed_pair_elemINS_9allocatorIiEELi1ELb1EE5__getB7v160006Ev, symObjAddr: 0x85F0, symBinAddr: 0x10000A8A0, symSize: 0x10 }
  - { offsetInCU: 0x10179, offset: 0x10179, size: 0x8, addend: 0x0, symName: __ZNSt3__123__libcpp_numeric_limitsIlLb1EE3maxB7v160006Ev, symObjAddr: 0x8600, symBinAddr: 0x10000A8B0, symSize: 0x10 }
  - { offsetInCU: 0x1018D, offset: 0x1018D, size: 0x8, addend: 0x0, symName: __ZNSt12length_errorC1B7v160006EPKc, symObjAddr: 0x8680, symBinAddr: 0x10000A930, symSize: 0x30 }
  - { offsetInCU: 0x101C5, offset: 0x101C5, size: 0x8, addend: 0x0, symName: __ZNSt12length_errorC2B7v160006EPKc, symObjAddr: 0x86B0, symBinAddr: 0x10000A960, symSize: 0x70 }
  - { offsetInCU: 0x101FD, offset: 0x101FD, size: 0x8, addend: 0x0, symName: __ZNSt3__19allocatorIiE8allocateB7v160006Em, symObjAddr: 0x8720, symBinAddr: 0x10000A9D0, symSize: 0x60 }
  - { offsetInCU: 0x10231, offset: 0x10231, size: 0x8, addend: 0x0, symName: __ZNSt3__113unordered_mapIiiNS_4hashIiEENS_8equal_toIiEENS_9allocatorINS_4pairIKiiEEEEEixERS7_, symObjAddr: 0x89A0, symBinAddr: 0x10000AC50, symSize: 0x2D0 }
  - { offsetInCU: 0x1026A, offset: 0x1026A, size: 0x8, addend: 0x0, symName: __ZNSt3__113unordered_mapIiiNS_4hashIiEENS_8equal_toIiEENS_9allocatorINS_4pairIKiiEEEEE4findB7v160006ERS7_, symObjAddr: 0x8CA0, symBinAddr: 0x10000AF50, symSize: 0x220 }
  - { offsetInCU: 0x102A1, offset: 0x102A1, size: 0x8, addend: 0x0, symName: __ZNSt3__113unordered_mapIiiNS_4hashIiEENS_8equal_toIiEENS_9allocatorINS_4pairIKiiEEEEE3endB7v160006Ev, symObjAddr: 0x8EC0, symBinAddr: 0x10000B170, symSize: 0x210 }
  - { offsetInCU: 0x102C8, offset: 0x102C8, size: 0x8, addend: 0x0, symName: __ZNSt3__16vectorIiNS_9allocatorIiEEEixB7v160006Em, symObjAddr: 0x90D0, symBinAddr: 0x10000B380, symSize: 0x60 }
  - { offsetInCU: 0x10313, offset: 0x10313, size: 0x8, addend: 0x0, symName: __ZNSt3__112__hash_tableINS_17__hash_value_typeIiiEENS_22__unordered_map_hasherIiS2_NS_4hashIiEENS_8equal_toIiEELb1EEENS_21__unordered_map_equalIiS2_S7_S5_Lb1EEENS_9allocatorIS2_EEE25__emplace_unique_key_argsIiJRKNS_21piecewise_construct_tENS_5tupleIJRKiEEENSI_IJEEEEEENS_4pairINS_15__hash_iteratorIPNS_11__hash_nodeIS2_PvEEEEbEERKT_DpOT0_, symObjAddr: 0x9130, symBinAddr: 0x10000B3E0, symSize: 0xFF0 }
  - { offsetInCU: 0x10428, offset: 0x10428, size: 0x8, addend: 0x0, symName: __ZNKSt3__115__hash_iteratorIPNS_11__hash_nodeINS_17__hash_value_typeIiiEEPvEEEptB7v160006Ev, symObjAddr: 0xA2B0, symBinAddr: 0x10000C560, symSize: 0x60 }
  - { offsetInCU: 0x1044E, offset: 0x1044E, size: 0x8, addend: 0x0, symName: __ZNSt3__117__hash_value_typeIiiE11__get_valueB7v160006Ev, symObjAddr: 0xA310, symBinAddr: 0x10000C5C0, symSize: 0x10 }
  - { offsetInCU: 0x10474, offset: 0x10474, size: 0x8, addend: 0x0, symName: __ZNSt3__112__hash_tableINS_17__hash_value_typeIiiEENS_22__unordered_map_hasherIiS2_NS_4hashIiEENS_8equal_toIiEELb1EEENS_21__unordered_map_equalIiS2_S7_S5_Lb1EEENS_9allocatorIS2_EEE13hash_functionB7v160006Ev, symObjAddr: 0xA320, symBinAddr: 0x10000C5D0, symSize: 0x20 }
  - { offsetInCU: 0x1049A, offset: 0x1049A, size: 0x8, addend: 0x0, symName: __ZNKSt3__122__unordered_map_hasherIiNS_17__hash_value_typeIiiEENS_4hashIiEENS_8equal_toIiEELb1EEclB7v160006ERKi, symObjAddr: 0xA340, symBinAddr: 0x10000C5F0, symSize: 0x80 }
  - { offsetInCU: 0x104CF, offset: 0x104CF, size: 0x8, addend: 0x0, symName: __ZNKSt3__112__hash_tableINS_17__hash_value_typeIiiEENS_22__unordered_map_hasherIiS2_NS_4hashIiEENS_8equal_toIiEELb1EEENS_21__unordered_map_equalIiS2_S7_S5_Lb1EEENS_9allocatorIS2_EEE12bucket_countB7v160006Ev, symObjAddr: 0xA3C0, symBinAddr: 0x10000C670, symSize: 0x30 }
  - { offsetInCU: 0x104F5, offset: 0x104F5, size: 0x8, addend: 0x0, symName: __ZNKSt3__110unique_ptrIA_PNS_16__hash_node_baseIPNS_11__hash_nodeINS_17__hash_value_typeIiiEEPvEEEENS_25__bucket_list_deallocatorINS_9allocatorIS9_EEEEEixB7v160006Em, symObjAddr: 0xA470, symBinAddr: 0x10000C720, symSize: 0x60 }
  - { offsetInCU: 0x1052A, offset: 0x1052A, size: 0x8, addend: 0x0, symName: __ZNKSt3__116__hash_node_baseIPNS_11__hash_nodeINS_17__hash_value_typeIiiEEPvEEE6__hashB7v160006Ev, symObjAddr: 0xA4D0, symBinAddr: 0x10000C780, symSize: 0x50 }
  - { offsetInCU: 0x10550, offset: 0x10550, size: 0x8, addend: 0x0, symName: __ZNSt3__112__hash_tableINS_17__hash_value_typeIiiEENS_22__unordered_map_hasherIiS2_NS_4hashIiEENS_8equal_toIiEELb1EEENS_21__unordered_map_equalIiS2_S7_S5_Lb1EEENS_9allocatorIS2_EEE6key_eqB7v160006Ev, symObjAddr: 0xA520, symBinAddr: 0x10000C7D0, symSize: 0x20 }
  - { offsetInCU: 0x10576, offset: 0x10576, size: 0x8, addend: 0x0, symName: __ZNKSt3__121__unordered_map_equalIiNS_17__hash_value_typeIiiEENS_8equal_toIiEENS_4hashIiEELb1EEclB7v160006ERKS2_RKi, symObjAddr: 0xA540, symBinAddr: 0x10000C7F0, symSize: 0x40 }
  - { offsetInCU: 0x105BA, offset: 0x105BA, size: 0x8, addend: 0x0, symName: __ZNSt3__116__hash_node_baseIPNS_11__hash_nodeINS_17__hash_value_typeIiiEEPvEEE8__upcastB7v160006Ev, symObjAddr: 0xA580, symBinAddr: 0x10000C830, symSize: 0x20 }
  - { offsetInCU: 0x105E0, offset: 0x105E0, size: 0x8, addend: 0x0, symName: __ZNSt3__112__hash_tableINS_17__hash_value_typeIiiEENS_22__unordered_map_hasherIiS2_NS_4hashIiEENS_8equal_toIiEELb1EEENS_21__unordered_map_equalIiS2_S7_S5_Lb1EEENS_9allocatorIS2_EEE21__construct_node_hashIRKNS_21piecewise_construct_tEJNS_5tupleIJRKiEEENSI_IJEEEEEENS_10unique_ptrINS_11__hash_nodeIS2_PvEENS_22__hash_node_destructorINSB_ISQ_EEEEEEmOT_DpOT0_, symObjAddr: 0xA5A0, symBinAddr: 0x10000C850, symSize: 0x3B0 }
  - { offsetInCU: 0x10683, offset: 0x10683, size: 0x8, addend: 0x0, symName: __ZNSt3__112__hash_tableINS_17__hash_value_typeIiiEENS_22__unordered_map_hasherIiS2_NS_4hashIiEENS_8equal_toIiEELb1EEENS_21__unordered_map_equalIiS2_S7_S5_Lb1EEENS_9allocatorIS2_EEE4sizeB7v160006Ev, symObjAddr: 0xA950, symBinAddr: 0x10000CC00, symSize: 0x20 }
  - { offsetInCU: 0x106A9, offset: 0x106A9, size: 0x8, addend: 0x0, symName: __ZNSt3__112__hash_tableINS_17__hash_value_typeIiiEENS_22__unordered_map_hasherIiS2_NS_4hashIiEENS_8equal_toIiEELb1EEENS_21__unordered_map_equalIiS2_S7_S5_Lb1EEENS_9allocatorIS2_EEE15max_load_factorB7v160006Ev, symObjAddr: 0xA970, symBinAddr: 0x10000CC20, symSize: 0x20 }
  - { offsetInCU: 0x106CF, offset: 0x106CF, size: 0x8, addend: 0x0, symName: __ZNSt3__112__hash_tableINS_17__hash_value_typeIiiEENS_22__unordered_map_hasherIiS2_NS_4hashIiEENS_8equal_toIiEELb1EEENS_21__unordered_map_equalIiS2_S7_S5_Lb1EEENS_9allocatorIS2_EEE15__rehash_uniqueB7v160006Em, symObjAddr: 0xA990, symBinAddr: 0x10000CC40, symSize: 0x30 }
  - { offsetInCU: 0x10703, offset: 0x10703, size: 0x8, addend: 0x0, symName: __Z4ceilB7v160006f, symObjAddr: 0xAA00, symBinAddr: 0x10000CCB0, symSize: 0x20 }
  - { offsetInCU: 0x10732, offset: 0x10732, size: 0x8, addend: 0x0, symName: __ZNSt3__117__compressed_pairINS_16__hash_node_baseIPNS_11__hash_nodeINS_17__hash_value_typeIiiEEPvEEEENS_9allocatorIS6_EEE5firstB7v160006Ev, symObjAddr: 0xAA20, symBinAddr: 0x10000CCD0, symSize: 0x20 }
  - { offsetInCU: 0x10758, offset: 0x10758, size: 0x8, addend: 0x0, symName: __ZNSt3__116__hash_node_baseIPNS_11__hash_nodeINS_17__hash_value_typeIiiEEPvEEE5__ptrB7v160006Ev, symObjAddr: 0xAA40, symBinAddr: 0x10000CCF0, symSize: 0x20 }
  - { offsetInCU: 0x1077E, offset: 0x1077E, size: 0x8, addend: 0x0, symName: __ZNKSt3__110unique_ptrINS_11__hash_nodeINS_17__hash_value_typeIiiEEPvEENS_22__hash_node_destructorINS_9allocatorIS5_EEEEEptB7v160006Ev, symObjAddr: 0xAA60, symBinAddr: 0x10000CD10, symSize: 0x50 }
  - { offsetInCU: 0x107A4, offset: 0x107A4, size: 0x8, addend: 0x0, symName: __ZNKSt3__110unique_ptrINS_11__hash_nodeINS_17__hash_value_typeIiiEEPvEENS_22__hash_node_destructorINS_9allocatorIS5_EEEEE3getB7v160006Ev, symObjAddr: 0xAAB0, symBinAddr: 0x10000CD60, symSize: 0x50 }
  - { offsetInCU: 0x107CA, offset: 0x107CA, size: 0x8, addend: 0x0, symName: __ZNSt3__110unique_ptrINS_11__hash_nodeINS_17__hash_value_typeIiiEEPvEENS_22__hash_node_destructorINS_9allocatorIS5_EEEEE7releaseB7v160006Ev, symObjAddr: 0xAB00, symBinAddr: 0x10000CDB0, symSize: 0xA0 }
  - { offsetInCU: 0x107FF, offset: 0x107FF, size: 0x8, addend: 0x0, symName: __ZNSt3__110unique_ptrINS_11__hash_nodeINS_17__hash_value_typeIiiEEPvEENS_22__hash_node_destructorINS_9allocatorIS5_EEEEED1B7v160006Ev, symObjAddr: 0xABA0, symBinAddr: 0x10000CE50, symSize: 0x20 }
  - { offsetInCU: 0x10829, offset: 0x10829, size: 0x8, addend: 0x0, symName: __ZNSt3__115__hash_iteratorIPNS_11__hash_nodeINS_17__hash_value_typeIiiEEPvEEEC1B7v160006EPNS_16__hash_node_baseIS6_EEPKv, symObjAddr: 0xABC0, symBinAddr: 0x10000CE70, symSize: 0x30 }
  - { offsetInCU: 0x1087B, offset: 0x1087B, size: 0x8, addend: 0x0, symName: __ZNSt3__14pairINS_15__hash_iteratorIPNS_11__hash_nodeINS_17__hash_value_typeIiiEEPvEEEEbEC1B7v160006IS8_RbLS5_0EEEOT_OT0_, symObjAddr: 0xABF0, symBinAddr: 0x10000CEA0, symSize: 0x30 }
  - { offsetInCU: 0x108D9, offset: 0x108D9, size: 0x8, addend: 0x0, symName: __ZNSt3__117__compressed_pairImNS_22__unordered_map_hasherIiNS_17__hash_value_typeIiiEENS_4hashIiEENS_8equal_toIiEELb1EEEE6secondB7v160006Ev, symObjAddr: 0xAC20, symBinAddr: 0x10000CED0, symSize: 0x20 }
  - { offsetInCU: 0x108FF, offset: 0x108FF, size: 0x8, addend: 0x0, symName: __ZNSt3__122__compressed_pair_elemINS_22__unordered_map_hasherIiNS_17__hash_value_typeIiiEENS_4hashIiEENS_8equal_toIiEELb1EEELi1ELb1EE5__getB7v160006Ev, symObjAddr: 0xAC40, symBinAddr: 0x10000CEF0, symSize: 0x10 }
  - { offsetInCU: 0x10925, offset: 0x10925, size: 0x8, addend: 0x0, symName: __ZNKSt3__14hashIiEclB7v160006Ei, symObjAddr: 0xAC50, symBinAddr: 0x10000CF00, symSize: 0x20 }
  - { offsetInCU: 0x1095A, offset: 0x1095A, size: 0x8, addend: 0x0, symName: __ZNKSt3__110unique_ptrIA_PNS_16__hash_node_baseIPNS_11__hash_nodeINS_17__hash_value_typeIiiEEPvEEEENS_25__bucket_list_deallocatorINS_9allocatorIS9_EEEEE11get_deleterB7v160006Ev, symObjAddr: 0xAC70, symBinAddr: 0x10000CF20, symSize: 0x20 }
  - { offsetInCU: 0x10980, offset: 0x10980, size: 0x8, addend: 0x0, symName: __ZNKSt3__125__bucket_list_deallocatorINS_9allocatorIPNS_16__hash_node_baseIPNS_11__hash_nodeINS_17__hash_value_typeIiiEEPvEEEEEEE4sizeB7v160006Ev, symObjAddr: 0xAC90, symBinAddr: 0x10000CF40, symSize: 0x50 }
  - { offsetInCU: 0x109A6, offset: 0x109A6, size: 0x8, addend: 0x0, symName: __ZNKSt3__117__compressed_pairIPPNS_16__hash_node_baseIPNS_11__hash_nodeINS_17__hash_value_typeIiiEEPvEEEENS_25__bucket_list_deallocatorINS_9allocatorIS9_EEEEE6secondB7v160006Ev, symObjAddr: 0xACE0, symBinAddr: 0x10000CF90, symSize: 0x20 }
  - { offsetInCU: 0x109CC, offset: 0x109CC, size: 0x8, addend: 0x0, symName: __ZNKSt3__122__compressed_pair_elemINS_25__bucket_list_deallocatorINS_9allocatorIPNS_16__hash_node_baseIPNS_11__hash_nodeINS_17__hash_value_typeIiiEEPvEEEEEEEELi1ELb0EE5__getB7v160006Ev, symObjAddr: 0xAD00, symBinAddr: 0x10000CFB0, symSize: 0x10 }
  - { offsetInCU: 0x109F2, offset: 0x109F2, size: 0x8, addend: 0x0, symName: __ZNKSt3__117__compressed_pairImNS_9allocatorIPNS_16__hash_node_baseIPNS_11__hash_nodeINS_17__hash_value_typeIiiEEPvEEEEEEE5firstB7v160006Ev, symObjAddr: 0xAD10, symBinAddr: 0x10000CFC0, symSize: 0x20 }
  - { offsetInCU: 0x10A18, offset: 0x10A18, size: 0x8, addend: 0x0, symName: __ZNKSt3__122__compressed_pair_elemImLi0ELb0EE5__getB7v160006Ev, symObjAddr: 0xAD30, symBinAddr: 0x10000CFE0, symSize: 0x10 }
  - { offsetInCU: 0x10A3E, offset: 0x10A3E, size: 0x8, addend: 0x0, symName: __ZNKSt3__117__compressed_pairIPPNS_16__hash_node_baseIPNS_11__hash_nodeINS_17__hash_value_typeIiiEEPvEEEENS_25__bucket_list_deallocatorINS_9allocatorIS9_EEEEE5firstB7v160006Ev, symObjAddr: 0xAD40, symBinAddr: 0x10000CFF0, symSize: 0x20 }
  - { offsetInCU: 0x10A64, offset: 0x10A64, size: 0x8, addend: 0x0, symName: __ZNKSt3__122__compressed_pair_elemIPPNS_16__hash_node_baseIPNS_11__hash_nodeINS_17__hash_value_typeIiiEEPvEEEELi0ELb0EE5__getB7v160006Ev, symObjAddr: 0xAD60, symBinAddr: 0x10000D010, symSize: 0x10 }
  - { offsetInCU: 0x10A8A, offset: 0x10A8A, size: 0x8, addend: 0x0, symName: __ZNSt3__117__compressed_pairIfNS_21__unordered_map_equalIiNS_17__hash_value_typeIiiEENS_8equal_toIiEENS_4hashIiEELb1EEEE6secondB7v160006Ev, symObjAddr: 0xAD70, symBinAddr: 0x10000D020, symSize: 0x20 }
  - { offsetInCU: 0x10AB0, offset: 0x10AB0, size: 0x8, addend: 0x0, symName: __ZNSt3__122__compressed_pair_elemINS_21__unordered_map_equalIiNS_17__hash_value_typeIiiEENS_8equal_toIiEENS_4hashIiEELb1EEELi1ELb1EE5__getB7v160006Ev, symObjAddr: 0xAD90, symBinAddr: 0x10000D040, symSize: 0x10 }
  - { offsetInCU: 0x10AD6, offset: 0x10AD6, size: 0x8, addend: 0x0, symName: __ZNKSt3__18equal_toIiEclB7v160006ERKiS3_, symObjAddr: 0xADA0, symBinAddr: 0x10000D050, symSize: 0xD0 }
  - { offsetInCU: 0x10B1A, offset: 0x10B1A, size: 0x8, addend: 0x0, symName: __ZNKSt3__117__hash_value_typeIiiE11__get_valueB7v160006Ev, symObjAddr: 0xAE70, symBinAddr: 0x10000D120, symSize: 0x10 }
  - { offsetInCU: 0x10B40, offset: 0x10B40, size: 0x8, addend: 0x0, symName: __ZNSt3__114pointer_traitsIPNS_16__hash_node_baseIPNS_11__hash_nodeINS_17__hash_value_typeIiiEEPvEEEEE10pointer_toB7v160006ERS8_, symObjAddr: 0xAE80, symBinAddr: 0x10000D130, symSize: 0x10 }
  - { offsetInCU: 0x10B63, offset: 0x10B63, size: 0x8, addend: 0x0, symName: __ZNSt3__112__hash_tableINS_17__hash_value_typeIiiEENS_22__unordered_map_hasherIiS2_NS_4hashIiEENS_8equal_toIiEELb1EEENS_21__unordered_map_equalIiS2_S7_S5_Lb1EEENS_9allocatorIS2_EEE12__node_allocB7v160006Ev, symObjAddr: 0xAE90, symBinAddr: 0x10000D140, symSize: 0x20 }
  - { offsetInCU: 0x10B89, offset: 0x10B89, size: 0x8, addend: 0x0, symName: __ZNSt3__116allocator_traitsINS_9allocatorINS_11__hash_nodeINS_17__hash_value_typeIiiEEPvEEEEE8allocateB7v160006ERS7_m, symObjAddr: 0xAEB0, symBinAddr: 0x10000D160, symSize: 0x30 }
  - { offsetInCU: 0x10BBC, offset: 0x10BBC, size: 0x8, addend: 0x0, symName: __ZNSt3__122__hash_node_destructorINS_9allocatorINS_11__hash_nodeINS_17__hash_value_typeIiiEEPvEEEEEC1B7v160006ERS7_b, symObjAddr: 0xAEE0, symBinAddr: 0x10000D190, symSize: 0x40 }
  - { offsetInCU: 0x10C09, offset: 0x10C09, size: 0x8, addend: 0x0, symName: __ZNSt3__110unique_ptrINS_11__hash_nodeINS_17__hash_value_typeIiiEEPvEENS_22__hash_node_destructorINS_9allocatorIS5_EEEEEC1B7v160006ILb1EvEEPS5_NS_16__dependent_typeINS_27__unique_ptr_deleter_sfinaeIS9_EEXT_EE20__good_rval_ref_typeE, symObjAddr: 0xAF20, symBinAddr: 0x10000D1D0, symSize: 0x30 }
  - { offsetInCU: 0x10C5A, offset: 0x10C5A, size: 0x8, addend: 0x0, symName: __ZNSt3__116allocator_traitsINS_9allocatorINS_11__hash_nodeINS_17__hash_value_typeIiiEEPvEEEEE9constructB7v160006INS_4pairIKiiEEJRKNS_21piecewise_construct_tENS_5tupleIJRSB_EEENSG_IJEEEEvEEvRS7_PT_DpOT0_, symObjAddr: 0xAF50, symBinAddr: 0x10000D200, symSize: 0x40 }
  - { offsetInCU: 0x10CD9, offset: 0x10CD9, size: 0x8, addend: 0x0, symName: __ZNSt3__122__hash_key_value_typesINS_17__hash_value_typeIiiEEE9__get_ptrB7v160006ERS2_, symObjAddr: 0xAF90, symBinAddr: 0x10000D240, symSize: 0x20 }
  - { offsetInCU: 0x10CFC, offset: 0x10CFC, size: 0x8, addend: 0x0, symName: __ZNSt3__110unique_ptrINS_11__hash_nodeINS_17__hash_value_typeIiiEEPvEENS_22__hash_node_destructorINS_9allocatorIS5_EEEEE11get_deleterB7v160006Ev, symObjAddr: 0xAFB0, symBinAddr: 0x10000D260, symSize: 0x20 }
  - { offsetInCU: 0x10D22, offset: 0x10D22, size: 0x8, addend: 0x0, symName: __ZNSt3__117__compressed_pairINS_16__hash_node_baseIPNS_11__hash_nodeINS_17__hash_value_typeIiiEEPvEEEENS_9allocatorIS6_EEE6secondB7v160006Ev, symObjAddr: 0xAFD0, symBinAddr: 0x10000D280, symSize: 0x20 }
  - { offsetInCU: 0x10D48, offset: 0x10D48, size: 0x8, addend: 0x0, symName: __ZNSt3__122__compressed_pair_elemINS_9allocatorINS_11__hash_nodeINS_17__hash_value_typeIiiEEPvEEEELi1ELb1EE5__getB7v160006Ev, symObjAddr: 0xAFF0, symBinAddr: 0x10000D2A0, symSize: 0x10 }
  - { offsetInCU: 0x10D6E, offset: 0x10D6E, size: 0x8, addend: 0x0, symName: __ZNSt3__19allocatorINS_11__hash_nodeINS_17__hash_value_typeIiiEEPvEEE8allocateB7v160006Em, symObjAddr: 0xB000, symBinAddr: 0x10000D2B0, symSize: 0x50 }
  - { offsetInCU: 0x10DAC, offset: 0x10DAC, size: 0x8, addend: 0x0, symName: __ZNSt3__116allocator_traitsINS_9allocatorINS_11__hash_nodeINS_17__hash_value_typeIiiEEPvEEEEE8max_sizeB7v160006IS7_vEEmRKS7_, symObjAddr: 0xB050, symBinAddr: 0x10000D300, symSize: 0x20 }
  - { offsetInCU: 0x10DDA, offset: 0x10DDA, size: 0x8, addend: 0x0, symName: __ZNKSt3__19allocatorINS_11__hash_nodeINS_17__hash_value_typeIiiEEPvEEE8max_sizeB7v160006Ev, symObjAddr: 0xB070, symBinAddr: 0x10000D320, symSize: 0x20 }
  - { offsetInCU: 0x10E00, offset: 0x10E00, size: 0x8, addend: 0x0, symName: __ZNSt3__122__hash_node_destructorINS_9allocatorINS_11__hash_nodeINS_17__hash_value_typeIiiEEPvEEEEEC2B7v160006ERS7_b, symObjAddr: 0xB090, symBinAddr: 0x10000D340, symSize: 0xC0 }
  - { offsetInCU: 0x10E48, offset: 0x10E48, size: 0x8, addend: 0x0, symName: __ZNSt3__110unique_ptrINS_11__hash_nodeINS_17__hash_value_typeIiiEEPvEENS_22__hash_node_destructorINS_9allocatorIS5_EEEEEC2B7v160006ILb1EvEEPS5_NS_16__dependent_typeINS_27__unique_ptr_deleter_sfinaeIS9_EEXT_EE20__good_rval_ref_typeE, symObjAddr: 0xB150, symBinAddr: 0x10000D400, symSize: 0x1A0 }
  - { offsetInCU: 0x10E9F, offset: 0x10E9F, size: 0x8, addend: 0x0, symName: __ZNSt3__117__compressed_pairIPNS_11__hash_nodeINS_17__hash_value_typeIiiEEPvEENS_22__hash_node_destructorINS_9allocatorIS5_EEEEEC1B7v160006IRS6_SA_EEOT_OT0_, symObjAddr: 0xB2F0, symBinAddr: 0x10000D5A0, symSize: 0x30 }
  - { offsetInCU: 0x10EF7, offset: 0x10EF7, size: 0x8, addend: 0x0, symName: __ZNSt3__117__compressed_pairIPNS_11__hash_nodeINS_17__hash_value_typeIiiEEPvEENS_22__hash_node_destructorINS_9allocatorIS5_EEEEEC2B7v160006IRS6_SA_EEOT_OT0_, symObjAddr: 0xB320, symBinAddr: 0x10000D5D0, symSize: 0x40 }
  - { offsetInCU: 0x10F4F, offset: 0x10F4F, size: 0x8, addend: 0x0, symName: __ZNSt3__122__compressed_pair_elemIPNS_11__hash_nodeINS_17__hash_value_typeIiiEEPvEELi0ELb0EEC2B7v160006IRS6_vEEOT_, symObjAddr: 0xB360, symBinAddr: 0x10000D610, symSize: 0x90 }
  - { offsetInCU: 0x10F91, offset: 0x10F91, size: 0x8, addend: 0x0, symName: __ZNSt3__122__compressed_pair_elemINS_22__hash_node_destructorINS_9allocatorINS_11__hash_nodeINS_17__hash_value_typeIiiEEPvEEEEEELi1ELb0EEC2B7v160006IS9_vEEOT_, symObjAddr: 0xB3F0, symBinAddr: 0x10000D6A0, symSize: 0x30 }
  - { offsetInCU: 0x10FD3, offset: 0x10FD3, size: 0x8, addend: 0x0, symName: __ZNSt3__19allocatorINS_11__hash_nodeINS_17__hash_value_typeIiiEEPvEEE9constructB7v160006INS_4pairIKiiEEJRKNS_21piecewise_construct_tENS_5tupleIJRS9_EEENSE_IJEEEEEEvPT_DpOT0_, symObjAddr: 0xB420, symBinAddr: 0x10000D6D0, symSize: 0x1A0 }
  - { offsetInCU: 0x11054, offset: 0x11054, size: 0x8, addend: 0x0, symName: __ZNSt3__14pairIKiiEC1B7v160006IJRS1_EJEEENS_21piecewise_construct_tENS_5tupleIJDpT_EEENS6_IJDpT0_EEE, symObjAddr: 0xB5C0, symBinAddr: 0x10000D870, symSize: 0x1C0 }
  - { offsetInCU: 0x110C5, offset: 0x110C5, size: 0x8, addend: 0x0, symName: __ZNSt3__14pairIKiiEC1B7v160006IJRS1_EJEJLm0EEJEEENS_21piecewise_construct_tERNS_5tupleIJDpT_EEERNS6_IJDpT0_EEENS_15__tuple_indicesIJXspT1_EEEENSF_IJXspT2_EEEE, symObjAddr: 0xB780, symBinAddr: 0x10000DA30, symSize: 0x30 }
  - { offsetInCU: 0x11152, offset: 0x11152, size: 0x8, addend: 0x0, symName: __ZNSt3__14pairIKiiEC2B7v160006IJRS1_EJEJLm0EEJEEENS_21piecewise_construct_tERNS_5tupleIJDpT_EEERNS6_IJDpT0_EEENS_15__tuple_indicesIJXspT1_EEEENSF_IJXspT2_EEEE, symObjAddr: 0xB7B0, symBinAddr: 0x10000DA60, symSize: 0x120 }
  - { offsetInCU: 0x111DF, offset: 0x111DF, size: 0x8, addend: 0x0, symName: __ZNSt3__112__tuple_leafILm0ERKiLb0EE3getB7v160006Ev, symObjAddr: 0xB8F0, symBinAddr: 0x10000DBA0, symSize: 0x50 }
  - { offsetInCU: 0x11205, offset: 0x11205, size: 0x8, addend: 0x0, symName: __ZNSt3__117__compressed_pairIPNS_11__hash_nodeINS_17__hash_value_typeIiiEEPvEENS_22__hash_node_destructorINS_9allocatorIS5_EEEEE6secondB7v160006Ev, symObjAddr: 0xB940, symBinAddr: 0x10000DBF0, symSize: 0x20 }
  - { offsetInCU: 0x1122B, offset: 0x1122B, size: 0x8, addend: 0x0, symName: __ZNSt3__122__compressed_pair_elemINS_22__hash_node_destructorINS_9allocatorINS_11__hash_nodeINS_17__hash_value_typeIiiEEPvEEEEEELi1ELb0EE5__getB7v160006Ev, symObjAddr: 0xB960, symBinAddr: 0x10000DC10, symSize: 0x10 }
  - { offsetInCU: 0x11251, offset: 0x11251, size: 0x8, addend: 0x0, symName: __ZNSt3__117__compressed_pairImNS_22__unordered_map_hasherIiNS_17__hash_value_typeIiiEENS_4hashIiEENS_8equal_toIiEELb1EEEE5firstB7v160006Ev, symObjAddr: 0xB970, symBinAddr: 0x10000DC20, symSize: 0x20 }
  - { offsetInCU: 0x11277, offset: 0x11277, size: 0x8, addend: 0x0, symName: __ZNSt3__122__compressed_pair_elemImLi0ELb0EE5__getB7v160006Ev, symObjAddr: 0xB990, symBinAddr: 0x10000DC40, symSize: 0x10 }
  - { offsetInCU: 0x1129D, offset: 0x1129D, size: 0x8, addend: 0x0, symName: __ZNSt3__117__compressed_pairIfNS_21__unordered_map_equalIiNS_17__hash_value_typeIiiEENS_8equal_toIiEENS_4hashIiEELb1EEEE5firstB7v160006Ev, symObjAddr: 0xB9A0, symBinAddr: 0x10000DC50, symSize: 0x20 }
  - { offsetInCU: 0x112C3, offset: 0x112C3, size: 0x8, addend: 0x0, symName: __ZNSt3__122__compressed_pair_elemIfLi0ELb0EE5__getB7v160006Ev, symObjAddr: 0xB9C0, symBinAddr: 0x10000DC70, symSize: 0x10 }
  - { offsetInCU: 0x112E9, offset: 0x112E9, size: 0x8, addend: 0x0, symName: __ZNSt3__112__hash_tableINS_17__hash_value_typeIiiEENS_22__unordered_map_hasherIiS2_NS_4hashIiEENS_8equal_toIiEELb1EEENS_21__unordered_map_equalIiS2_S7_S5_Lb1EEENS_9allocatorIS2_EEE8__rehashILb1EEEvm, symObjAddr: 0xB9D0, symBinAddr: 0x10000DC80, symSize: 0x7D0 }
  - { offsetInCU: 0x1133F, offset: 0x1133F, size: 0x8, addend: 0x0, symName: __ZNSt3__112__hash_tableINS_17__hash_value_typeIiiEENS_22__unordered_map_hasherIiS2_NS_4hashIiEENS_8equal_toIiEELb1EEENS_21__unordered_map_equalIiS2_S7_S5_Lb1EEENS_9allocatorIS2_EEE11__do_rehashILb1EEEvm, symObjAddr: 0xC1A0, symBinAddr: 0x10000E450, symSize: 0x590 }
  - { offsetInCU: 0x11426, offset: 0x11426, size: 0x8, addend: 0x0, symName: __ZNSt3__110unique_ptrIA_PNS_16__hash_node_baseIPNS_11__hash_nodeINS_17__hash_value_typeIiiEEPvEEEENS_25__bucket_list_deallocatorINS_9allocatorIS9_EEEEE11get_deleterB7v160006Ev, symObjAddr: 0xC7A0, symBinAddr: 0x10000EA50, symSize: 0x20 }
  - { offsetInCU: 0x1144C, offset: 0x1144C, size: 0x8, addend: 0x0, symName: __ZNSt3__125__bucket_list_deallocatorINS_9allocatorIPNS_16__hash_node_baseIPNS_11__hash_nodeINS_17__hash_value_typeIiiEEPvEEEEEEE7__allocB7v160006Ev, symObjAddr: 0xC7C0, symBinAddr: 0x10000EA70, symSize: 0x20 }
  - { offsetInCU: 0x11472, offset: 0x11472, size: 0x8, addend: 0x0, symName: __ZNSt3__110unique_ptrIA_PNS_16__hash_node_baseIPNS_11__hash_nodeINS_17__hash_value_typeIiiEEPvEEEENS_25__bucket_list_deallocatorINS_9allocatorIS9_EEEEE5resetB7v160006IPS9_EENS_9enable_ifIXsr28_CheckArrayPointerConversionIT_EE5valueEvE4typeESJ_, symObjAddr: 0xC7E0, symBinAddr: 0x10000EA90, symSize: 0xC0 }
  - { offsetInCU: 0x114BF, offset: 0x114BF, size: 0x8, addend: 0x0, symName: __ZNSt3__116allocator_traitsINS_9allocatorIPNS_16__hash_node_baseIPNS_11__hash_nodeINS_17__hash_value_typeIiiEEPvEEEEEEE8allocateB7v160006ERSB_m, symObjAddr: 0xC8A0, symBinAddr: 0x10000EB50, symSize: 0x30 }
  - { offsetInCU: 0x114F2, offset: 0x114F2, size: 0x8, addend: 0x0, symName: __ZNSt3__125__bucket_list_deallocatorINS_9allocatorIPNS_16__hash_node_baseIPNS_11__hash_nodeINS_17__hash_value_typeIiiEEPvEEEEEEE4sizeB7v160006Ev, symObjAddr: 0xC8D0, symBinAddr: 0x10000EB80, symSize: 0x20 }
  - { offsetInCU: 0x11518, offset: 0x11518, size: 0x8, addend: 0x0, symName: __ZNSt3__117__compressed_pairIPPNS_16__hash_node_baseIPNS_11__hash_nodeINS_17__hash_value_typeIiiEEPvEEEENS_25__bucket_list_deallocatorINS_9allocatorIS9_EEEEE6secondB7v160006Ev, symObjAddr: 0xC8F0, symBinAddr: 0x10000EBA0, symSize: 0x20 }
  - { offsetInCU: 0x1153E, offset: 0x1153E, size: 0x8, addend: 0x0, symName: __ZNSt3__122__compressed_pair_elemINS_25__bucket_list_deallocatorINS_9allocatorIPNS_16__hash_node_baseIPNS_11__hash_nodeINS_17__hash_value_typeIiiEEPvEEEEEEEELi1ELb0EE5__getB7v160006Ev, symObjAddr: 0xC910, symBinAddr: 0x10000EBC0, symSize: 0x10 }
  - { offsetInCU: 0x11564, offset: 0x11564, size: 0x8, addend: 0x0, symName: __ZNSt3__117__compressed_pairImNS_9allocatorIPNS_16__hash_node_baseIPNS_11__hash_nodeINS_17__hash_value_typeIiiEEPvEEEEEEE6secondB7v160006Ev, symObjAddr: 0xC920, symBinAddr: 0x10000EBD0, symSize: 0x20 }
  - { offsetInCU: 0x1158A, offset: 0x1158A, size: 0x8, addend: 0x0, symName: __ZNSt3__122__compressed_pair_elemINS_9allocatorIPNS_16__hash_node_baseIPNS_11__hash_nodeINS_17__hash_value_typeIiiEEPvEEEEEELi1ELb1EE5__getB7v160006Ev, symObjAddr: 0xC940, symBinAddr: 0x10000EBF0, symSize: 0x10 }
  - { offsetInCU: 0x115B0, offset: 0x115B0, size: 0x8, addend: 0x0, symName: __ZNSt3__117__compressed_pairIPPNS_16__hash_node_baseIPNS_11__hash_nodeINS_17__hash_value_typeIiiEEPvEEEENS_25__bucket_list_deallocatorINS_9allocatorIS9_EEEEE5firstB7v160006Ev, symObjAddr: 0xC950, symBinAddr: 0x10000EC00, symSize: 0x20 }
  - { offsetInCU: 0x115D6, offset: 0x115D6, size: 0x8, addend: 0x0, symName: __ZNSt3__125__bucket_list_deallocatorINS_9allocatorIPNS_16__hash_node_baseIPNS_11__hash_nodeINS_17__hash_value_typeIiiEEPvEEEEEEEclB7v160006EPSA_, symObjAddr: 0xC970, symBinAddr: 0x10000EC20, symSize: 0x80 }
  - { offsetInCU: 0x1160B, offset: 0x1160B, size: 0x8, addend: 0x0, symName: __ZNSt3__122__compressed_pair_elemIPPNS_16__hash_node_baseIPNS_11__hash_nodeINS_17__hash_value_typeIiiEEPvEEEELi0ELb0EE5__getB7v160006Ev, symObjAddr: 0xC9F0, symBinAddr: 0x10000ECA0, symSize: 0x10 }
  - { offsetInCU: 0x11631, offset: 0x11631, size: 0x8, addend: 0x0, symName: __ZNSt3__116allocator_traitsINS_9allocatorIPNS_16__hash_node_baseIPNS_11__hash_nodeINS_17__hash_value_typeIiiEEPvEEEEEEE10deallocateB7v160006ERSB_PSA_m, symObjAddr: 0xCA00, symBinAddr: 0x10000ECB0, symSize: 0x30 }
  - { offsetInCU: 0x11673, offset: 0x11673, size: 0x8, addend: 0x0, symName: __ZNSt3__19allocatorIPNS_16__hash_node_baseIPNS_11__hash_nodeINS_17__hash_value_typeIiiEEPvEEEEE10deallocateB7v160006EPS9_m, symObjAddr: 0xCA30, symBinAddr: 0x10000ECE0, symSize: 0x50 }
  - { offsetInCU: 0x116B5, offset: 0x116B5, size: 0x8, addend: 0x0, symName: __ZNSt3__19allocatorIPNS_16__hash_node_baseIPNS_11__hash_nodeINS_17__hash_value_typeIiiEEPvEEEEE8allocateB7v160006Em, symObjAddr: 0xCA80, symBinAddr: 0x10000ED30, symSize: 0x60 }
  - { offsetInCU: 0x116F3, offset: 0x116F3, size: 0x8, addend: 0x0, symName: __ZNSt3__116allocator_traitsINS_9allocatorIPNS_16__hash_node_baseIPNS_11__hash_nodeINS_17__hash_value_typeIiiEEPvEEEEEEE8max_sizeB7v160006ISB_vEEmRKSB_, symObjAddr: 0xCAE0, symBinAddr: 0x10000ED90, symSize: 0x20 }
  - { offsetInCU: 0x11721, offset: 0x11721, size: 0x8, addend: 0x0, symName: __ZNKSt3__19allocatorIPNS_16__hash_node_baseIPNS_11__hash_nodeINS_17__hash_value_typeIiiEEPvEEEEE8max_sizeB7v160006Ev, symObjAddr: 0xCB00, symBinAddr: 0x10000EDB0, symSize: 0x20 }
  - { offsetInCU: 0x11747, offset: 0x11747, size: 0x8, addend: 0x0, symName: __ZNSt3__117__compressed_pairImNS_9allocatorIPNS_16__hash_node_baseIPNS_11__hash_nodeINS_17__hash_value_typeIiiEEPvEEEEEEE5firstB7v160006Ev, symObjAddr: 0xCB20, symBinAddr: 0x10000EDD0, symSize: 0x20 }
  - { offsetInCU: 0x1176D, offset: 0x1176D, size: 0x8, addend: 0x0, symName: __ZNSt3__122__compressed_pair_elemINS_16__hash_node_baseIPNS_11__hash_nodeINS_17__hash_value_typeIiiEEPvEEEELi0ELb0EE5__getB7v160006Ev, symObjAddr: 0xCB60, symBinAddr: 0x10000EE10, symSize: 0x10 }
  - { offsetInCU: 0x11793, offset: 0x11793, size: 0x8, addend: 0x0, symName: __ZNKSt3__117__compressed_pairIPNS_11__hash_nodeINS_17__hash_value_typeIiiEEPvEENS_22__hash_node_destructorINS_9allocatorIS5_EEEEE5firstB7v160006Ev, symObjAddr: 0xCB70, symBinAddr: 0x10000EE20, symSize: 0x20 }
  - { offsetInCU: 0x117B9, offset: 0x117B9, size: 0x8, addend: 0x0, symName: __ZNKSt3__122__compressed_pair_elemIPNS_11__hash_nodeINS_17__hash_value_typeIiiEEPvEELi0ELb0EE5__getB7v160006Ev, symObjAddr: 0xCB90, symBinAddr: 0x10000EE40, symSize: 0x10 }
  - { offsetInCU: 0x117DF, offset: 0x117DF, size: 0x8, addend: 0x0, symName: __ZNSt3__117__compressed_pairIPNS_11__hash_nodeINS_17__hash_value_typeIiiEEPvEENS_22__hash_node_destructorINS_9allocatorIS5_EEEEE5firstB7v160006Ev, symObjAddr: 0xCBA0, symBinAddr: 0x10000EE50, symSize: 0x20 }
  - { offsetInCU: 0x11805, offset: 0x11805, size: 0x8, addend: 0x0, symName: __ZNSt3__122__compressed_pair_elemIPNS_11__hash_nodeINS_17__hash_value_typeIiiEEPvEELi0ELb0EE5__getB7v160006Ev, symObjAddr: 0xCBC0, symBinAddr: 0x10000EE70, symSize: 0x10 }
  - { offsetInCU: 0x1182B, offset: 0x1182B, size: 0x8, addend: 0x0, symName: __ZNSt3__110unique_ptrINS_11__hash_nodeINS_17__hash_value_typeIiiEEPvEENS_22__hash_node_destructorINS_9allocatorIS5_EEEEED2B7v160006Ev, symObjAddr: 0xCBD0, symBinAddr: 0x10000EE80, symSize: 0x20 }
  - { offsetInCU: 0x11855, offset: 0x11855, size: 0x8, addend: 0x0, symName: __ZNSt3__110unique_ptrINS_11__hash_nodeINS_17__hash_value_typeIiiEEPvEENS_22__hash_node_destructorINS_9allocatorIS5_EEEEE5resetB7v160006EPS5_, symObjAddr: 0xCBF0, symBinAddr: 0x10000EEA0, symSize: 0xC0 }
  - { offsetInCU: 0x11899, offset: 0x11899, size: 0x8, addend: 0x0, symName: __ZNSt3__122__hash_node_destructorINS_9allocatorINS_11__hash_nodeINS_17__hash_value_typeIiiEEPvEEEEEclB7v160006EPS6_, symObjAddr: 0xCCB0, symBinAddr: 0x10000EF60, symSize: 0x130 }
  - { offsetInCU: 0x118CE, offset: 0x118CE, size: 0x8, addend: 0x0, symName: __ZNSt3__116allocator_traitsINS_9allocatorINS_11__hash_nodeINS_17__hash_value_typeIiiEEPvEEEEE7destroyB7v160006INS_4pairIKiiEEvvEEvRS7_PT_, symObjAddr: 0xCDE0, symBinAddr: 0x10000F090, symSize: 0x10 }
  - { offsetInCU: 0x11908, offset: 0x11908, size: 0x8, addend: 0x0, symName: __ZNSt3__116allocator_traitsINS_9allocatorINS_11__hash_nodeINS_17__hash_value_typeIiiEEPvEEEEE10deallocateB7v160006ERS7_PS6_m, symObjAddr: 0xCDF0, symBinAddr: 0x10000F0A0, symSize: 0x30 }
  - { offsetInCU: 0x1194A, offset: 0x1194A, size: 0x8, addend: 0x0, symName: __ZNSt3__19allocatorINS_11__hash_nodeINS_17__hash_value_typeIiiEEPvEEE10deallocateB7v160006EPS5_m, symObjAddr: 0xCE20, symBinAddr: 0x10000F0D0, symSize: 0x50 }
  - { offsetInCU: 0x1198C, offset: 0x1198C, size: 0x8, addend: 0x0, symName: __ZNSt3__115__hash_iteratorIPNS_11__hash_nodeINS_17__hash_value_typeIiiEEPvEEEC2B7v160006EPNS_16__hash_node_baseIS6_EEPKv, symObjAddr: 0xCE70, symBinAddr: 0x10000F120, symSize: 0x60 }
  - { offsetInCU: 0x119D4, offset: 0x119D4, size: 0x8, addend: 0x0, symName: __ZNSt3__14pairINS_15__hash_iteratorIPNS_11__hash_nodeINS_17__hash_value_typeIiiEEPvEEEEbEC2B7v160006IS8_RbLS5_0EEEOT_OT0_, symObjAddr: 0xCED0, symBinAddr: 0x10000F180, symSize: 0xE0 }
  - { offsetInCU: 0x11A32, offset: 0x11A32, size: 0x8, addend: 0x0, symName: __ZNSt3__15tupleIJRKiEEC1B7v160006INS_4_AndELi0EEES2_, symObjAddr: 0xCFB0, symBinAddr: 0x10000F260, symSize: 0x30 }
  - { offsetInCU: 0x11A7A, offset: 0x11A7A, size: 0x8, addend: 0x0, symName: __ZNSt3__15tupleIJRKiEEC2B7v160006INS_4_AndELi0EEES2_, symObjAddr: 0xCFE0, symBinAddr: 0x10000F290, symSize: 0x30 }
  - { offsetInCU: 0x11AC2, offset: 0x11AC2, size: 0x8, addend: 0x0, symName: __ZNSt3__112__tuple_implINS_15__tuple_indicesIJLm0EEEEJRKiEEC1B7v160006IJLm0EEJS4_EJEJEJS4_EEENS1_IJXspT_EEEENS_13__tuple_typesIJDpT0_EEENS1_IJXspT1_EEEENS8_IJDpT2_EEEDpOT3_, symObjAddr: 0xD010, symBinAddr: 0x10000F2C0, symSize: 0x30 }
  - { offsetInCU: 0x11B53, offset: 0x11B53, size: 0x8, addend: 0x0, symName: __ZNSt3__112__tuple_implINS_15__tuple_indicesIJLm0EEEEJRKiEEC2B7v160006IJLm0EEJS4_EJEJEJS4_EEENS1_IJXspT_EEEENS_13__tuple_typesIJDpT0_EEENS1_IJXspT1_EEEENS8_IJDpT2_EEEDpOT3_, symObjAddr: 0xD040, symBinAddr: 0x10000F2F0, symSize: 0x30 }
  - { offsetInCU: 0x11BE4, offset: 0x11BE4, size: 0x8, addend: 0x0, symName: __ZNSt3__112__tuple_leafILm0ERKiLb0EEC2B7v160006IS2_vEEOT_, symObjAddr: 0xD070, symBinAddr: 0x10000F320, symSize: 0x60 }
  - { offsetInCU: 0x11C27, offset: 0x11C27, size: 0x8, addend: 0x0, symName: __ZNSt3__114pointer_traitsIPNS_17__hash_value_typeIiiEEE10pointer_toB7v160006ERS2_, symObjAddr: 0xD0D0, symBinAddr: 0x10000F380, symSize: 0x10 }
  - { offsetInCU: 0x11C4A, offset: 0x11C4A, size: 0x8, addend: 0x0, symName: __ZNSt3__112__hash_tableINS_17__hash_value_typeIiiEENS_22__unordered_map_hasherIiS2_NS_4hashIiEENS_8equal_toIiEELb1EEENS_21__unordered_map_equalIiS2_S7_S5_Lb1EEENS_9allocatorIS2_EEE4findIiEENS_15__hash_iteratorIPNS_11__hash_nodeIS2_PvEEEERKT_, symObjAddr: 0xD1A0, symBinAddr: 0x10000F450, symSize: 0x420 }
  - { offsetInCU: 0x11CD3, offset: 0x11CD3, size: 0x8, addend: 0x0, symName: __ZNSt3__119__hash_map_iteratorINS_15__hash_iteratorIPNS_11__hash_nodeINS_17__hash_value_typeIiiEEPvEEEEEC1B7v160006ES8_, symObjAddr: 0xD5C0, symBinAddr: 0x10000F870, symSize: 0x1B0 }
  - { offsetInCU: 0x11D11, offset: 0x11D11, size: 0x8, addend: 0x0, symName: __ZNSt3__112__hash_tableINS_17__hash_value_typeIiiEENS_22__unordered_map_hasherIiS2_NS_4hashIiEENS_8equal_toIiEELb1EEENS_21__unordered_map_equalIiS2_S7_S5_Lb1EEENS_9allocatorIS2_EEE3endEv, symObjAddr: 0xD770, symBinAddr: 0x10000FA20, symSize: 0x180 }
  - { offsetInCU: 0x11D3A, offset: 0x11D3A, size: 0x8, addend: 0x0, symName: __ZNSt3__119__hash_map_iteratorINS_15__hash_iteratorIPNS_11__hash_nodeINS_17__hash_value_typeIiiEEPvEEEEEC2B7v160006ES8_, symObjAddr: 0xD8F0, symBinAddr: 0x10000FBA0, symSize: 0x180 }
  - { offsetInCU: 0x11D78, offset: 0x11D78, size: 0x8, addend: 0x0, symName: __ZNSt3__16vectorIiNS_9allocatorIiEEEC2B7v160006Ev, symObjAddr: 0xDA70, symBinAddr: 0x10000FD20, symSize: 0x260 }
  - { offsetInCU: 0x11DA8, offset: 0x11DA8, size: 0x8, addend: 0x0, symName: __ZNSt3__117__compressed_pairIPiNS_9allocatorIiEEEC1B7v160006IDnNS_18__default_init_tagEEEOT_OT0_, symObjAddr: 0xDCD0, symBinAddr: 0x10000FF80, symSize: 0x30 }
  - { offsetInCU: 0x11E00, offset: 0x11E00, size: 0x8, addend: 0x0, symName: __ZNSt3__117__compressed_pairIPiNS_9allocatorIiEEEC2B7v160006IDnNS_18__default_init_tagEEEOT_OT0_, symObjAddr: 0xDD10, symBinAddr: 0x10000FFC0, symSize: 0x40 }
  - { offsetInCU: 0x11E58, offset: 0x11E58, size: 0x8, addend: 0x0, symName: __ZNSt3__122__compressed_pair_elemIPiLi0ELb0EEC2B7v160006IDnvEEOT_, symObjAddr: 0xDD50, symBinAddr: 0x100010000, symSize: 0x50 }
  - { offsetInCU: 0x11E9A, offset: 0x11E9A, size: 0x8, addend: 0x0, symName: __ZNSt3__122__compressed_pair_elemINS_9allocatorIiEELi1ELb1EEC2B7v160006ENS_18__default_init_tagE, symObjAddr: 0xDDA0, symBinAddr: 0x100010050, symSize: 0x20 }
  - { offsetInCU: 0x11ECE, offset: 0x11ECE, size: 0x8, addend: 0x0, symName: __ZNSt3__19allocatorIiEC2B7v160006Ev, symObjAddr: 0xDDC0, symBinAddr: 0x100010070, symSize: 0x20 }
  - { offsetInCU: 0x11EF8, offset: 0x11EF8, size: 0x8, addend: 0x0, symName: __ZNSt3__116__non_trivial_ifILb1ENS_9allocatorIiEEEC2B7v160006Ev, symObjAddr: 0xDDE0, symBinAddr: 0x100010090, symSize: 0x10 }
  - { offsetInCU: 0x11F22, offset: 0x11F22, size: 0x8, addend: 0x0, symName: __ZNSt3__16vectorIiNS_9allocatorIiEEED2B7v160006Ev, symObjAddr: 0xDDF0, symBinAddr: 0x1000100A0, symSize: 0x170 }
  - { offsetInCU: 0x11F4D, offset: 0x11F4D, size: 0x8, addend: 0x0, symName: __ZNSt3__16vectorIiNS_9allocatorIiEEE16__destroy_vectorC1ERS3_, symObjAddr: 0xDF60, symBinAddr: 0x100010210, symSize: 0x30 }
  - { offsetInCU: 0x11F86, offset: 0x11F86, size: 0x8, addend: 0x0, symName: __ZNSt3__16vectorIiNS_9allocatorIiEEE16__destroy_vectorclB7v160006Ev, symObjAddr: 0xDF90, symBinAddr: 0x100010240, symSize: 0x210 }
  - { offsetInCU: 0x11FAC, offset: 0x11FAC, size: 0x8, addend: 0x0, symName: __ZNSt3__16vectorIiNS_9allocatorIiEEE16__destroy_vectorC2ERS3_, symObjAddr: 0xE1A0, symBinAddr: 0x100010450, symSize: 0x60 }
  - { offsetInCU: 0x11FE5, offset: 0x11FE5, size: 0x8, addend: 0x0, symName: __ZNKSt3__16vectorIiNS_9allocatorIiEEE17__annotate_deleteB7v160006Ev, symObjAddr: 0xE200, symBinAddr: 0x1000104B0, symSize: 0xC0 }
  - { offsetInCU: 0x1200B, offset: 0x1200B, size: 0x8, addend: 0x0, symName: __ZNSt3__16vectorIiNS_9allocatorIiEEE6assignIPKiLi0EEEvT_S7_, symObjAddr: 0xE2D0, symBinAddr: 0x100010580, symSize: 0x3E0 }
  - { offsetInCU: 0x120AD, offset: 0x120AD, size: 0x8, addend: 0x0, symName: __ZNKSt16initializer_listIiE5beginB7v160006Ev, symObjAddr: 0xE6B0, symBinAddr: 0x100010960, symSize: 0x50 }
  - { offsetInCU: 0x120D3, offset: 0x120D3, size: 0x8, addend: 0x0, symName: __ZNKSt16initializer_listIiE3endB7v160006Ev, symObjAddr: 0xE700, symBinAddr: 0x1000109B0, symSize: 0x90 }
  - { offsetInCU: 0x120F9, offset: 0x120F9, size: 0x8, addend: 0x0, symName: __ZNSt3__16vectorIiNS_9allocatorIiEEE18__construct_at_endIPKiLi0EEEvT_S7_m, symObjAddr: 0xEA30, symBinAddr: 0x100010CE0, symSize: 0x300 }
  - { offsetInCU: 0x1218D, offset: 0x1218D, size: 0x8, addend: 0x0, symName: __ZNKSt3__114__copy_trivialclB7v160006IKiiLi0EEENS_4pairIPT_PT0_EES5_S5_S7_, symObjAddr: 0xFB20, symBinAddr: 0x100011DD0, symSize: 0x210 }
  - { offsetInCU: 0x12217, offset: 0x12217, size: 0x8, addend: 0x0, symName: __ZNSt3__14pairIPKiS2_EC1B7v160006IS2_S2_LPv0EEEOT_OT0_, symObjAddr: 0x100A0, symBinAddr: 0x100012350, symSize: 0x30 }
  - { offsetInCU: 0x12275, offset: 0x12275, size: 0x8, addend: 0x0, symName: __ZNSt3__14pairIPKiS2_EC2B7v160006IS2_S2_LPv0EEEOT_OT0_, symObjAddr: 0x100D0, symBinAddr: 0x100012380, symSize: 0x110 }
  - { offsetInCU: 0x122D3, offset: 0x122D3, size: 0x8, addend: 0x0, symName: __ZNSt3__118__unwrap_iter_implIPKiLb1EE8__unwrapB7v160006ES2_, symObjAddr: 0x101E0, symBinAddr: 0x100012490, symSize: 0x20 }
  - { offsetInCU: 0x122FB, offset: 0x122FB, size: 0x8, addend: 0x0, symName: __ZNSt3__14pairIPKiPiEC1B7v160006IRS2_S3_LPv0EEEOT_OT0_, symObjAddr: 0x106F0, symBinAddr: 0x1000129A0, symSize: 0x30 }
  - { offsetInCU: 0x12359, offset: 0x12359, size: 0x8, addend: 0x0, symName: __ZNSt3__14pairIPKiPiEC2B7v160006IRS2_S3_LPv0EEEOT_OT0_, symObjAddr: 0x10720, symBinAddr: 0x1000129D0, symSize: 0x110 }
  - { offsetInCU: 0x123B7, offset: 0x123B7, size: 0x8, addend: 0x0, symName: __ZNSt3__14pairIPKiPiEC1B7v160006IS2_S3_LPv0EEEOT_OT0_, symObjAddr: 0x10830, symBinAddr: 0x100012AE0, symSize: 0x30 }
  - { offsetInCU: 0x12415, offset: 0x12415, size: 0x8, addend: 0x0, symName: __ZNSt3__14pairIPKiPiEC2B7v160006IS2_S3_LPv0EEEOT_OT0_, symObjAddr: 0x10860, symBinAddr: 0x100012B10, symSize: 0x110 }
  - { offsetInCU: 0x12473, offset: 0x12473, size: 0x8, addend: 0x0, symName: __ZNSt3__118__unwrap_iter_implIPKiLb1EE8__rewrapB7v160006ES2_S2_, symObjAddr: 0x109C0, symBinAddr: 0x100012C70, symSize: 0x50 }
  - { offsetInCU: 0x124A4, offset: 0x124A4, size: 0x8, addend: 0x0, symName: __ZNKSt3__19basic_iosIcNS_11char_traitsIcEEE5widenB7v160006Ec, symObjAddr: 0x10A40, symBinAddr: 0x100012CF0, symSize: 0x200 }
  - { offsetInCU: 0x12514, offset: 0x12514, size: 0x8, addend: 0x0, symName: __ZNKSt3__15ctypeIcE5widenB7v160006Ec, symObjAddr: 0x10C70, symBinAddr: 0x100012F20, symSize: 0xA0 }
...
